

Microchip MPLAB XC8 Assembler V2.41 build 20230208172133 
                                                                                               Thu Apr 27 16:26:58 2023

Microchip MPLAB XC8 C Compiler v2.41 (Free license) build 20230208172133 Og1 
     1                           	processor	18F14K50
     2                           	fnconf	rparam,??,?,0
     3                           	pagewidth 120
     4                           	opt	flic
     5                           	psect	idataBANK0,global,class=CODE,delta=1,noexec
     6                           	psect	mediumconst,global,reloc=2,class=MEDIUMCONST,delta=1,noexec
     7                           	psect	cinit,global,reloc=2,class=CODE,delta=1
     8                           	psect	bssCOMRAM,global,class=COMRAM,space=1,delta=1,lowdata,noexec
     9                           	psect	bssBANK0,global,class=BANK0,space=1,delta=1,lowdata,noexec
    10                           	psect	dataBANK0,global,class=BANK0,space=1,delta=1,lowdata,noexec
    11                           	psect	bssBANK1,global,class=BANK1,space=1,delta=1,lowdata,noexec
    12                           	psect	cstackCOMRAM,global,class=COMRAM,space=1,delta=1,lowdata,noexec
    13                           	psect	text0,global,reloc=2,class=CODE,delta=1
    14                           	psect	text1,global,reloc=2,class=CODE,delta=1
    15                           	psect	text2,global,reloc=2,class=CODE,delta=1
    16                           	psect	text3,global,reloc=2,class=CODE,delta=1
    17                           	psect	text4,global,reloc=2,class=CODE,delta=1
    18                           	psect	text5,global,reloc=2,class=CODE,delta=1
    19                           	psect	text6,global,reloc=2,class=CODE,delta=1
    20                           	psect	text7,global,reloc=2,class=CODE,delta=1
    21                           	psect	text8,global,reloc=2,class=CODE,delta=1
    22                           	psect	text9,global,reloc=2,class=CODE,delta=1
    23                           	psect	text10,global,reloc=2,class=CODE,delta=1
    24                           	psect	text11,global,reloc=2,class=CODE,delta=1
    25                           	psect	text12,global,reloc=2,class=CODE,delta=1
    26                           	psect	text13,global,reloc=2,class=CODE,delta=1
    27                           	psect	text14,global,reloc=2,class=CODE,delta=1
    28                           	psect	text15,global,reloc=2,class=CODE,delta=1
    29                           	psect	text16,global,reloc=2,class=CODE,delta=1,group=2
    30                           	psect	text17,global,reloc=2,class=CODE,delta=1
    31                           	psect	text18,global,reloc=2,class=CODE,delta=1
    32                           	psect	text19,global,reloc=2,class=CODE,delta=1
    33                           	psect	text20,global,reloc=2,class=CODE,delta=1
    34                           	psect	text21,global,reloc=2,class=CODE,delta=1
    35                           	psect	text22,global,reloc=2,class=CODE,delta=1,group=2
    36                           	psect	text23,global,reloc=2,class=CODE,delta=1
    37                           	psect	text24,global,reloc=2,class=CODE,delta=1
    38                           	psect	text25,global,reloc=2,class=CODE,delta=1
    39                           	psect	text26,global,reloc=2,class=CODE,delta=1
    40                           	psect	text27,global,reloc=2,class=CODE,delta=1
    41                           	psect	text28,global,reloc=2,class=CODE,delta=1
    42                           	psect	text29,global,reloc=2,class=CODE,delta=1
    43                           	psect	text30,global,reloc=2,class=CODE,delta=1
    44                           	psect	text31,global,reloc=2,class=CODE,delta=1
    45                           	psect	text32,global,reloc=2,class=CODE,delta=1
    46                           	psect	text33,global,reloc=2,class=CODE,delta=1
    47                           	psect	text34,global,reloc=2,class=CODE,delta=1
    48                           	psect	text35,global,reloc=2,class=CODE,delta=1
    49                           	psect	text36,global,reloc=2,class=CODE,delta=1
    50                           	psect	text37,global,reloc=2,class=CODE,delta=1
    51                           	psect	text38,global,reloc=2,class=CODE,delta=1
    52                           	psect	text39,global,reloc=2,class=CODE,delta=1
    53                           	psect	text40,global,reloc=2,class=CODE,delta=1
    54                           	psect	text41,global,reloc=2,class=CODE,delta=1
    55                           	psect	text42,global,reloc=2,class=CODE,delta=1
    56                           	psect	text43,global,reloc=2,class=CODE,delta=1
    57                           	psect	text44,global,reloc=2,class=CODE,delta=1
    58                           	psect	text45,global,reloc=2,class=CODE,delta=1
    59                           	psect	text46,global,reloc=2,class=CODE,delta=1,group=1
    60                           	psect	text47,global,reloc=2,class=CODE,delta=1,group=1
    61                           	psect	text48,global,reloc=2,class=CODE,delta=1
    62                           	psect	text49,global,reloc=2,class=CODE,delta=1
    63                           	psect	text50,global,reloc=2,class=CODE,delta=1
    64                           	psect	intcode,global,reloc=2,class=CODE,delta=1
    65                           	psect	intsave_regs,global,class=BIGRAM,space=1,delta=1,noexec
    66                           	psect	rparam,global,class=COMRAM,space=1,delta=1,noexec
    67                           	psect	temp,global,ovrld,common,class=COMRAM,space=1,delta=1
    68                           	psect	idloc,global,abs,ovrld,class=IDLOC,space=5,delta=1,noexec
    69                           	psect	config,global,abs,ovrld,class=CONFIG,space=4,delta=1,noexec
    70                           	dabs	1,0x200,48,_BDT
    71                           	dabs	1,0x280,64,_cdc_data_rx
    72                           	dabs	1,0x240,64,_cdc_data_tx
    73                           	dabs	1,0x238,8,_CtrlTrfData
    74                           	dabs	1,0x230,8,_SetupPkt
    75   000000                     
    76                           ; Generated 06/04/2022 GMT
    77                           ; 
    78                           ; Copyright © 2022, Microchip Technology Inc. and its subsidiaries ("Microchip")
    79                           ; All rights reserved.
    80                           ; 
    81                           ; This software is developed by Microchip Technology Inc. and its subsidiaries ("Microch
      +                          ip").
    82                           ; 
    83                           ; Redistribution and use in source and binary forms, with or without modification, are
    84                           ; permitted provided that the following conditions are met:
    85                           ; 
    86                           ;     1. Redistributions of source code must retain the above copyright notice, this lis
      +                          t of
    87                           ;        conditions and the following disclaimer.
    88                           ; 
    89                           ;     2. Redistributions in binary form must reproduce the above copyright notice, this 
      +                          list
    90                           ;        of conditions and the following disclaimer in the documentation and/or other
    91                           ;        materials provided with the distribution. Publication is not required when
    92                           ;        this file is used in an embedded application.
    93                           ; 
    94                           ;     3. Microchip's name may not be used to endorse or promote products derived from th
      +                          is
    95                           ;        software without specific prior written permission.
    96                           ; 
    97                           ; THIS SOFTWARE IS PROVIDED BY MICROCHIP "AS IS" AND ANY EXPRESS OR IMPLIED WARRANTIES,
    98                           ; INCLUDING, BUT NOT LIMITED TO, THE IMPLIED WARRANTIES OF MERCHANTABILITY AND FITNESS F
      +                          OR
    99                           ; PURPOSE ARE DISCLAIMED.  IN NO EVENT SHALL MICROCHIP BE LIABLE FOR ANY DIRECT, INDIREC
      +                          T,
   100                           ; INCIDENTAL, SPECIAL, EXEMPLARY, OR CONSEQUENTIAL DAMAGES (INCLUDING BUT NOT LIMITED TO
   101                           ; PROCUREMENT OF SUBSTITUTE GOODS OR SERVICES; LOSS OF USE, DATA OR PROFITS; OR BUSINESS
   102                           ; INTERRUPTION) HOWSOEVER CAUSED AND ON ANY THEORY OF LIABILITY, WHETHER IN CONTRACT, ST
      +                          RICT
   103                           ; LIABILITY, OR TORT (INCLUDING NEGLIGENCE OR OTHERWISE) ARISING IN ANY WAY OUT OF THE U
      +                          SE OF
   104                           ; THIS SOFTWARE, EVEN IF ADVISED OF THE POSSIBILITY OF SUCH DAMAGE.
   105                           ; 
   106                           ; 
   107                           ; Code-generator required, PIC18F14K50 Definitions
   108                           ; 
   109                           ; SFR Addresses
   110   000000                     
   111                           	psect	idataBANK0
   112   002790                     __pidataBANK0:
   113                           	callstack 0
   114                           
   115                           ;initializer for _CharConv
   116   002790  30                 	db	48
   117   002791  31                 	db	49
   118   002792  32                 	db	50
   119   002793  33                 	db	51
   120   002794  34                 	db	52
   121   002795  35                 	db	53
   122   002796  36                 	db	54
   123   002797  37                 	db	55
   124   002798  38                 	db	56
   125   002799  39                 	db	57
   126   00279A  61                 	db	97
   127   00279B  62                 	db	98
   128   00279C  63                 	db	99
   129   00279D  64                 	db	100
   130   00279E  65                 	db	101
   131   00279F  66                 	db	102
   132                           
   133                           ;initializer for _buttonMessage
   134   0027A0  42                 	db	66
   135   0027A1  75                 	db	117
   136   0027A2  74                 	db	116
   137   0027A3  74                 	db	116
   138   0027A4  6F                 	db	111
   139   0027A5  6E                 	db	110
   140   0027A6  20                 	db	32
   141   0027A7  70                 	db	112
   142   0027A8  72                 	db	114
   143   0027A9  65                 	db	101
   144   0027AA  73                 	db	115
   145   0027AB  73                 	db	115
   146   0027AC  65                 	db	101
   147   0027AD  64                 	db	100
   148   0027AE  2E                 	db	46
   149   0027AF  0D                 	db	13
   150   0027B0  0A                 	db	10
   151   0027B1  00                 	db	0
   152                           
   153                           	psect	mediumconst
   154   003EC2                     __pmediumconst:
   155                           	callstack 0
   156   003EC2  00                 	db	0
   157   003EC3                     _USB_SD_Ptr:
   158                           	callstack 0
   159   003EC3  88                 	db	low _sd000
   160   003EC4  3F                 	db	high _sd000
   161   003EC5  42                 	db	low _sd001
   162   003EC6  3F                 	db	high _sd001
   163   003EC7  0E                 	db	low _sd002
   164   003EC8  3F                 	db	high _sd002
   165   003EC9                     __end_of_USB_SD_Ptr:
   166                           	callstack 0
   167   003EC9                     _USB_CD_Ptr:
   168                           	callstack 0
   169   003EC9  CB                 	db	low _configDescriptor1
   170   003ECA  3E                 	db	high _configDescriptor1
   171   003ECB                     __end_of_USB_CD_Ptr:
   172                           	callstack 0
   173   003ECB                     _configDescriptor1:
   174                           	callstack 0
   175   003ECB  09                 	db	9
   176   003ECC  02                 	db	2
   177   003ECD  43                 	db	67
   178   003ECE  00                 	db	0
   179   003ECF  02                 	db	2
   180   003ED0  01                 	db	1
   181   003ED1  00                 	db	0
   182   003ED2  C0                 	db	192
   183   003ED3  32                 	db	50
   184   003ED4  09                 	db	9
   185   003ED5  04                 	db	4
   186   003ED6  00                 	db	0
   187   003ED7  00                 	db	0
   188   003ED8  01                 	db	1
   189   003ED9  02                 	db	2
   190   003EDA  02                 	db	2
   191   003EDB  01                 	db	1
   192   003EDC  00                 	db	0
   193   003EDD  05                 	db	5
   194   003EDE  24                 	db	36
   195   003EDF  00                 	db	0
   196   003EE0  10                 	db	16
   197   003EE1  01                 	db	1
   198   003EE2  04                 	db	4
   199   003EE3  24                 	db	36
   200   003EE4  02                 	db	2
   201   003EE5  02                 	db	2
   202   003EE6  05                 	db	5
   203   003EE7  24                 	db	36
   204   003EE8  06                 	db	6
   205   003EE9  00                 	db	0
   206   003EEA  01                 	db	1
   207   003EEB  05                 	db	5
   208   003EEC  24                 	db	36
   209   003EED  01                 	db	1
   210   003EEE  00                 	db	0
   211   003EEF  01                 	db	1
   212   003EF0  07                 	db	7
   213   003EF1  05                 	db	5
   214   003EF2  81                 	db	129
   215   003EF3  03                 	db	3
   216   003EF4  0A                 	db	10
   217   003EF5  00                 	db	0
   218   003EF6  02                 	db	2
   219   003EF7  09                 	db	9
   220   003EF8  04                 	db	4
   221   003EF9  01                 	db	1
   222   003EFA  00                 	db	0
   223   003EFB  02                 	db	2
   224   003EFC  0A                 	db	10
   225   003EFD  00                 	db	0
   226   003EFE  00                 	db	0
   227   003EFF  00                 	db	0
   228   003F00  07                 	db	7
   229   003F01  05                 	db	5
   230   003F02  02                 	db	2
   231   003F03  02                 	db	2
   232   003F04  40                 	db	64
   233   003F05  00                 	db	0
   234   003F06  00                 	db	0
   235   003F07  07                 	db	7
   236   003F08  05                 	db	5
   237   003F09  82                 	db	130
   238   003F0A  02                 	db	2
   239   003F0B  40                 	db	64
   240   003F0C  00                 	db	0
   241   003F0D  00                 	db	0
   242   003F0E                     __end_of_configDescriptor1:
   243                           	callstack 0
   244   003F0E                     _sd002:
   245                           	callstack 0
   246   003F0E  34                 	db	52
   247   003F0F  03                 	db	3
   248   003F10  0043               	dw	67
   249   003F12  0044               	dw	68
   250   003F14  0043               	dw	67
   251   003F16  0020               	dw	32
   252   003F18  0052               	dw	82
   253   003F1A  0053               	dw	83
   254   003F1C  002D               	dw	45
   255   003F1E  0032               	dw	50
   256   003F20  0033               	dw	51
   257   003F22  0032               	dw	50
   258   003F24  0020               	dw	32
   259   003F26  0045               	dw	69
   260   003F28  006D               	dw	109
   261   003F2A  0075               	dw	117
   262   003F2C  006C               	dw	108
   263   003F2E  0061               	dw	97
   264   003F30  0074               	dw	116
   265   003F32  0069               	dw	105
   266   003F34  006F               	dw	111
   267   003F36  006E               	dw	110
   268   003F38  0020               	dw	32
   269   003F3A  0044               	dw	68
   270   003F3C  0065               	dw	101
   271   003F3E  006D               	dw	109
   272   003F40  006F               	dw	111
   273   003F42                     __end_of_sd002:
   274                           	callstack 0
   275   003F42                     _sd001:
   276                           	callstack 0
   277   003F42  34                 	db	52
   278   003F43  03                 	db	3
   279   003F44  004D               	dw	77
   280   003F46  0069               	dw	105
   281   003F48  0063               	dw	99
   282   003F4A  0072               	dw	114
   283   003F4C  006F               	dw	111
   284   003F4E  0063               	dw	99
   285   003F50  0068               	dw	104
   286   003F52  0069               	dw	105
   287   003F54  0070               	dw	112
   288   003F56  0020               	dw	32
   289   003F58  0054               	dw	84
   290   003F5A  0065               	dw	101
   291   003F5C  0063               	dw	99
   292   003F5E  0068               	dw	104
   293   003F60  006E               	dw	110
   294   003F62  006F               	dw	111
   295   003F64  006C               	dw	108
   296   003F66  006F               	dw	111
   297   003F68  0067               	dw	103
   298   003F6A  0079               	dw	121
   299   003F6C  0020               	dw	32
   300   003F6E  0049               	dw	73
   301   003F70  006E               	dw	110
   302   003F72  0063               	dw	99
   303   003F74  002E               	dw	46
   304   003F76                     __end_of_sd001:
   305                           	callstack 0
   306   003F76                     _device_dsc:
   307                           	callstack 0
   308   003F76  12                 	db	18
   309   003F77  01                 	db	1
   310   003F78  0200               	dw	512
   311   003F7A  02                 	db	2
   312   003F7B  00                 	db	0
   313   003F7C  00                 	db	0
   314   003F7D  08                 	db	8
   315   003F7E  04D8               	dw	1240
   316   003F80  000A               	dw	10
   317   003F82  0100               	dw	256
   318   003F84  01                 	db	1
   319   003F85  02                 	db	2
   320   003F86  00                 	db	0
   321   003F87  01                 	db	1
   322   003F88                     __end_of_device_dsc:
   323                           	callstack 0
   324   003F88                     _sd000:
   325                           	callstack 0
   326   003F88  04                 	db	4
   327   003F89  03                 	db	3
   328   003F8A  0409               	dw	1033
   329   003F8C                     __end_of_sd000:
   330                           	callstack 0
   331   000000                     _USTAT	set	3939
   332   000000                     _UIE	set	3936
   333   000000                     _UCFG	set	3937
   334   000000                     _UIR	set	3938
   335   000000                     _TXREG	set	4013
   336   000000                     _RCREG	set	4014
   337   000000                     _SPBRG	set	4015
   338   000000                     _BAUDCON	set	4024
   339   000000                     _TRISB	set	3987
   340   000000                     _ANSELH	set	3967
   341   000000                     _UEP0bits	set	3923
   342   000000                     _TRISCbits	set	3988
   343   000000                     _UIEbits	set	3936
   344   000000                     _UCON	set	3940
   345   000000                     _UIRbits	set	3938
   346   000000                     _PORTA	set	3968
   347   000000                     _TXIF	set	31988
   348   000000                     _UEIE	set	3931
   349   000000                     _UEIR	set	3935
   350   000000                     _UCONbits	set	3940
   351   000000                     _ANSEL	set	3966
   352   000000                     _PORTAbits	set	3968
   353   000000                     _UEP1	set	3924
   354   000000                     _UEP0	set	3923
   355   000000                     _LATCbits	set	3979
   356   000000                     _TRISA	set	3986
   357   000000                     _PORTC	set	3970
   358   000000                     _PORTB	set	3969
   359   000000                     _TRISC	set	3988
   360   000000                     _OSCCON	set	4051
   361   000000                     _PIR1bits	set	3998
   362   000000                     _RCSTA	set	4011
   363   000000                     _TXSTA	set	4012
   364   000000                     _PIE2bits	set	4000
   365   000000                     _PIR2bits	set	4001
   366   000000                     _UADDR	set	3932
   367   003F8C                     STR_6:
   368   003F8C  2A                 	db	42
   369   003F8D  2A                 	db	42
   370   003F8E  2A                 	db	42
   371   003F8F  2A                 	db	42
   372   003F90  2A                 	db	42
   373   003F91  2A                 	db	42
   374   003F92  2A                 	db	42
   375   003F93  2A                 	db	42
   376   003F94  2A                 	db	42
   377   003F95  31                 	db	49	;'1'
   378   003F96  2A                 	db	42
   379   003F97  2A                 	db	42
   380   003F98  2A                 	db	42
   381   003F99  2A                 	db	42
   382   003F9A  2A                 	db	42
   383   003F9B  2A                 	db	42
   384   003F9C  2A                 	db	42
   385   003F9D  2A                 	db	42
   386   003F9E  2A                 	db	42
   387   003F9F  2A                 	db	42
   388   003FA0  00                 	db	0
   389   003FA1                     STR_8:
   390   003FA1  2A                 	db	42
   391   003FA2  2A                 	db	42
   392   003FA3  2A                 	db	42
   393   003FA4  2A                 	db	42
   394   003FA5  2A                 	db	42
   395   003FA6  2A                 	db	42
   396   003FA7  2A                 	db	42
   397   003FA8  2A                 	db	42
   398   003FA9  2A                 	db	42
   399   003FAA  32                 	db	50	;'2'
   400   003FAB  2A                 	db	42
   401   003FAC  2A                 	db	42
   402   003FAD  2A                 	db	42
   403   003FAE  2A                 	db	42
   404   003FAF  2A                 	db	42
   405   003FB0  2A                 	db	42
   406   003FB1  2A                 	db	42
   407   003FB2  2A                 	db	42
   408   003FB3  2A                 	db	42
   409   003FB4  2A                 	db	42
   410   003FB5  00                 	db	0
   411   003FB6                     STR_7:
   412   003FB6  2A                 	db	42
   413   003FB7  2A                 	db	42
   414   003FB8  2A                 	db	42
   415   003FB9  20                 	db	32
   416   003FBA  55                 	db	85	;'U'
   417   003FBB  41                 	db	65	;'A'
   418   003FBC  52                 	db	82	;'R'
   419   003FBD  54                 	db	84	;'T'
   420   003FBE  20                 	db	32
   421   003FBF  53                 	db	83	;'S'
   422   003FC0  54                 	db	84	;'T'
   423   003FC1  41                 	db	65	;'A'
   424   003FC2  52                 	db	82	;'R'
   425   003FC3  54                 	db	84	;'T'
   426   003FC4  20                 	db	32
   427   003FC5  2A                 	db	42
   428   003FC6  2A                 	db	42
   429   003FC7  2A                 	db	42
   430   003FC8  2A                 	db	42
   431   003FC9  00                 	db	0
   432   003FCA                     STR_4:
   433   003FCA  55                 	db	85	;'U'
   434   003FCB  41                 	db	65	;'A'
   435   003FCC  52                 	db	82	;'R'
   436   003FCD  54                 	db	84	;'T'
   437   003FCE  2D                 	db	45
   438   003FCF  52                 	db	82	;'R'
   439   003FD0  78                 	db	120	;'x'
   440   003FD1  64                 	db	100	;'d'
   441   003FD2  61                 	db	97	;'a'
   442   003FD3  74                 	db	116	;'t'
   443   003FD4  61                 	db	97	;'a'
   444   003FD5  20                 	db	32
   445   003FD6  3D                 	db	61	;'='
   446   003FD7  20                 	db	32
   447   003FD8  00                 	db	0
   448   003FD9                     STR_1:
   449   003FD9  47                 	db	71	;'G'
   450   003FDA  65                 	db	101	;'e'
   451   003FDB  74                 	db	116	;'t'
   452   003FDC  43                 	db	67	;'C'
   453   003FDD  68                 	db	104	;'h'
   454   003FDE  61                 	db	97	;'a'
   455   003FDF  4E                 	db	78	;'N'
   456   003FE0  75                 	db	117	;'u'
   457   003FE1  6D                 	db	109	;'m'
   458   003FE2  72                 	db	114	;'r'
   459   003FE3  20                 	db	32
   460   003FE4  3D                 	db	61	;'='
   461   003FE5  20                 	db	32
   462   003FE6  00                 	db	0
   463   003FE7                     STR_9:
   464   003FE7  70                 	db	112	;'p'
   465   003FE8  75                 	db	117	;'u'
   466   003FE9  74                 	db	116	;'t'
   467   003FEA  73                 	db	115	;'s'
   468   003FEB  55                 	db	85	;'U'
   469   003FEC  53                 	db	83	;'S'
   470   003FED  42                 	db	66	;'B'
   471   003FEE  55                 	db	85	;'U'
   472   003FEF  53                 	db	83	;'S'
   473   003FF0  41                 	db	65	;'A'
   474   003FF1  52                 	db	82	;'R'
   475   003FF2  54                 	db	84	;'T'
   476   003FF3  00                 	db	0
   477   003FF4                     STR_3:
   478   003FF4  47                 	db	71	;'G'
   479   003FF5  65                 	db	101	;'e'
   480   003FF6  74                 	db	116	;'t'
   481   003FF7  43                 	db	67	;'C'
   482   003FF8  68                 	db	104	;'h'
   483   003FF9  61                 	db	97	;'a'
   484   003FFA  72                 	db	114	;'r'
   485   003FFB  20                 	db	32
   486   003FFC  3D                 	db	61	;'='
   487   003FFD  20                 	db	32
   488   003FFE  00                 	db	0
   489   003FFF  00                 	db	0	; dummy byte at the end
   490   000000                     
   491                           ; #config settings
   492                           
   493                           	psect	cinit
   494   002468                     __pcinit:
   495                           	callstack 0
   496   002468                     start_initialization:
   497                           	callstack 0
   498   002468                     __initialization:
   499                           	callstack 0
   500                           
   501                           ; Initialize objects allocated to BANK0 (34 bytes)
   502                           ; load TBLPTR registers with __pidataBANK0
   503   002468  0E90               	movlw	low __pidataBANK0
   504   00246A  6EF6               	movwf	tblptrl,c
   505   00246C  0E27               	movlw	high __pidataBANK0
   506   00246E  6EF7               	movwf	tblptrh,c
   507   002470  0E00               	movlw	low (__pidataBANK0 shr (0+16))
   508   002472  6EF8               	movwf	tblptru,c
   509   002474  EE00  F0AC         	lfsr	0,__pdataBANK0
   510   002478  EE10 F022          	lfsr	1,34
   511   00247C                     copy_data0:
   512   00247C  0009               	tblrd		*+
   513   00247E  CFF5 FFEE          	movff	tablat,postinc0
   514   002482  50E5               	movf	postdec1,w,c
   515   002484  50E1               	movf	fsr1l,w,c
   516   002486  E1FA               	bnz	copy_data0
   517                           
   518                           ; Clear objects allocated to BANK1 (256 bytes)
   519   002488  EE01  F000         	lfsr	0,__pbssBANK1
   520   00248C  EE11 F000          	lfsr	1,256
   521   002490                     clear_0:
   522   002490  6AEE               	clrf	postinc0,c
   523   002492  50E5               	movf	postdec1,w,c
   524   002494  50E1               	movf	fsr1l,w,c
   525   002496  E1FC               	bnz	clear_0
   526   002498  50E2               	movf	fsr1h,w,c
   527   00249A  E1FA               	bnz	clear_0
   528                           
   529                           ; Clear objects allocated to BANK0 (76 bytes)
   530   00249C  EE00  F060         	lfsr	0,__pbssBANK0
   531   0024A0  0E4C               	movlw	76
   532   0024A2                     clear_1:
   533   0024A2  6AEE               	clrf	postinc0,c
   534   0024A4  06E8               	decf	wreg,f,c
   535   0024A6  E1FD               	bnz	clear_1
   536                           
   537                           ; Clear objects allocated to COMRAM (31 bytes)
   538   0024A8  EE00  F03F         	lfsr	0,__pbssCOMRAM
   539   0024AC  0E1F               	movlw	31
   540   0024AE                     clear_2:
   541   0024AE  6AEE               	clrf	postinc0,c
   542   0024B0  06E8               	decf	wreg,f,c
   543   0024B2  E1FD               	bnz	clear_2
   544   0024B4                     end_of_initialization:
   545                           	callstack 0
   546   0024B4                     __end_of__initialization:
   547                           	callstack 0
   548   0024B4  905E               	bcf	int$flags,0,c	;clear compiler interrupt flag (level 1)
   549   0024B6  925E               	bcf	int$flags,1,c	;clear compiler interrupt flag (level 2)
   550   0024B8  0E00               	movlw	low (__Lmediumconst shr (0+16))
   551   0024BA  6EF8               	movwf	tblptru,c
   552   0024BC  0100               	movlb	0
   553   0024BE  EF69  F005         	goto	_main	;jump to C main() function
   554                           
   555                           	psect	bssCOMRAM
   556   00003F                     __pbssCOMRAM:
   557                           	callstack 0
   558   00003F                     _inPipes:
   559                           	callstack 0
   560   00003F                     	ds	6
   561   000045                     _pBDTEntryIn:
   562                           	callstack 0
   563   000045                     	ds	6
   564   00004B                     APP_LEDUpdateUSBStatus@ledCount:
   565                           	callstack 0
   566   00004B                     	ds	2
   567   00004D                     _CDCDataOutHandle:
   568                           	callstack 0
   569   00004D                     	ds	2
   570   00004F                     _pBDTEntryEP0OutNext:
   571                           	callstack 0
   572   00004F                     	ds	2
   573   000051                     _pBDTEntryEP0OutCurrent:
   574                           	callstack 0
   575   000051                     	ds	2
   576   000053                     _cdc_tx_len:
   577                           	callstack 0
   578   000053                     	ds	1
   579   000054                     _cdc_rx_len:
   580                           	callstack 0
   581   000054                     	ds	1
   582   000055                     _USBDeferStatusStagePacket:
   583                           	callstack 0
   584   000055                     	ds	1
   585   000056                     _USBStatusStageTimeoutCounter:
   586                           	callstack 0
   587   000056                     	ds	1
   588   000057                     _endpoint_number:
   589                           	callstack 0
   590   000057                     	ds	1
   591   000058                     _controlTransferState:
   592                           	callstack 0
   593   000058                     	ds	1
   594   000059                     _shortPacketStatus:
   595                           	callstack 0
   596   000059                     	ds	1
   597   00005A                     _cdc_trf_state:
   598                           	callstack 0
   599   00005A                     	ds	1
   600   00005B                     _USBDeviceState:
   601                           	callstack 0
   602   00005B                     	ds	1
   603   00005C                     _USTATcopy:
   604                           	callstack 0
   605   00005C                     	ds	1
   606   00005D                     _USBActiveConfiguration:
   607                           	callstack 0
   608   00005D                     	ds	1
   609                           
   610                           	psect	bssBANK0
   611   000060                     __pbssBANK0:
   612                           	callstack 0
   613   000060                     _cdc_notice:
   614                           	callstack 0
   615   000060                     	ds	10
   616   00006A                     _outPipes:
   617                           	callstack 0
   618   00006A                     	ds	8
   619   000072                     _pBDTEntryOut:
   620                           	callstack 0
   621   000072                     	ds	6
   622   000078                     _BaudRateGen:
   623                           	callstack 0
   624   000078                     	ds	4
   625   00007C                     _USB1msTickCount:
   626                           	callstack 0
   627   00007C                     	ds	4
   628   000080                     _pCDCDst:
   629                           	callstack 0
   630   000080                     	ds	3
   631   000083                     _pCDCSrc:
   632                           	callstack 0
   633   000083                     	ds	3
   634   000086                     _ep_data_out:
   635                           	callstack 0
   636   000086                     	ds	3
   637   000089                     _ep_data_in:
   638                           	callstack 0
   639   000089                     	ds	3
   640   00008C                     _CDCDataInHandle:
   641                           	callstack 0
   642   00008C                     	ds	2
   643   00008E                     _pDst:
   644                           	callstack 0
   645   00008E                     	ds	2
   646   000090                     _buttonPressed:
   647                           	callstack 0
   648   000090                     	ds	1
   649   000091                     _control_signal_bitmap:
   650                           	callstack 0
   651   000091                     	ds	1
   652   000092                     _cdc_mem_type:
   653                           	callstack 0
   654   000092                     	ds	1
   655   000093                     _USBTicksSinceSuspendEnd:
   656                           	callstack 0
   657   000093                     	ds	1
   658   000094                     _USBDeferOUTDataStagePackets:
   659                           	callstack 0
   660   000094                     	ds	1
   661   000095                     _USBDeferINDataStagePackets:
   662                           	callstack 0
   663   000095                     	ds	1
   664   000096                     _USBStatusStageEnabledFlag2:
   665                           	callstack 0
   666   000096                     	ds	1
   667   000097                     _USBStatusStageEnabledFlag1:
   668                           	callstack 0
   669   000097                     	ds	1
   670   000098                     _BothEP0OutUOWNsSet:
   671                           	callstack 0
   672   000098                     	ds	1
   673   000099                     _USBBusIsSuspended:
   674                           	callstack 0
   675   000099                     	ds	1
   676   00009A                     _RemoteWakeup:
   677                           	callstack 0
   678   00009A                     	ds	1
   679   00009B                     _dummy_encapsulated_cmd_response:
   680                           	callstack 0
   681   00009B                     	ds	8
   682   0000A3                     _line_coding:
   683                           	callstack 0
   684   0000A3                     	ds	7
   685   0000AA                     _USBAlternateInterface:
   686                           	callstack 0
   687   0000AA                     	ds	2
   688                           
   689                           	psect	dataBANK0
   690   0000AC                     __pdataBANK0:
   691                           	callstack 0
   692   0000AC                     _CharConv:
   693                           	callstack 0
   694   0000AC                     	ds	16
   695   0000BC                     _buttonMessage:
   696                           	callstack 0
   697   0000BC                     	ds	18
   698                           
   699                           	psect	bssBANK1
   700   000100                     __pbssBANK1:
   701                           	callstack 0
   702   000100                     _writeBuffer:
   703                           	callstack 0
   704   000100                     	ds	64
   705   000140                     _readBuffer:
   706                           	callstack 0
   707   000140                     	ds	64
   708   000180                     _USB_Out_Buffer:
   709                           	callstack 0
   710   000180                     	ds	64
   711   0001C0                     _USB_In_Buffer:
   712                           	callstack 0
   713   0001C0                     	ds	64
   714                           
   715                           	psect	cstackCOMRAM
   716   000001                     __pcstackCOMRAM:
   717                           	callstack 0
   718   000001                     ??_LED_Enable:
   719   000001                     ??_LED_Off:
   720   000001                     ??_LED_On:
   721   000001                     ??_BUTTON_Enable:
   722   000001                     ??_USBStdGetDscHandler:
   723   000001                     ??_USBStdGetStatusHandler:
   724   000001                     ??_USBCheckCDCRequest:
   725   000001                     ?_USBTransferOnePacket:
   726                           	callstack 0
   727   000001                     ?___wmul:
   728                           	callstack 0
   729   000001                     ?___lwdiv:
   730                           	callstack 0
   731   000001                     GetChar@rxdt:
   732                           	callstack 0
   733   000001                     USBTransferOnePacket@dir:
   734                           	callstack 0
   735   000001                     USBConfigureEndpoint@direction:
   736                           	callstack 0
   737   000001                     USBCtrlTrfTxService@byteToSend:
   738                           	callstack 0
   739   000001                     USBCtrlTrfRxService@i:
   740                           	callstack 0
   741   000001                     PutString@string:
   742                           	callstack 0
   743   000001                     Wait@num:
   744                           	callstack 0
   745   000001                     skStrlen@str:
   746                           	callstack 0
   747   000001                     putsUSBUSART@data:
   748                           	callstack 0
   749   000001                     ___wmul@multiplier:
   750                           	callstack 0
   751   000001                     ___lwdiv@dividend:
   752                           	callstack 0
   753   000001                     memcpy@d1:
   754                           	callstack 0
   755   000001                     memset@dest:
   756                           	callstack 0
   757                           
   758                           ; 2 bytes @ 0x0
   759   000001                     	ds	1
   760   000002                     ??_USBConfigureEndpoint:
   761   000002                     USBCtrlTrfRxService@byteToRead:
   762                           	callstack 0
   763   000002                     USBCtrlTrfInHandler@lastDTS:
   764                           	callstack 0
   765   000002                     USBTransferOnePacket@data:
   766                           	callstack 0
   767                           
   768                           ; 2 bytes @ 0x1
   769   000002                     	ds	1
   770   000003                     ??_Wait:
   771   000003                     BUTTON_Enable@button:
   772                           	callstack 0
   773   000003                     skStrlen@flg:
   774                           	callstack 0
   775   000003                     LED_On@led:
   776                           	callstack 0
   777   000003                     LED_Off@led:
   778                           	callstack 0
   779   000003                     LED_Enable@led:
   780                           	callstack 0
   781   000003                     PutString01@string:
   782                           	callstack 0
   783   000003                     USBStdGetStatusHandler@p:
   784                           	callstack 0
   785   000003                     putsUSBUSART@pData:
   786                           	callstack 0
   787   000003                     ___wmul@multiplicand:
   788                           	callstack 0
   789   000003                     ___lwdiv@divisor:
   790                           	callstack 0
   791   000003                     memcpy@s1:
   792                           	callstack 0
   793   000003                     memset@c:
   794                           	callstack 0
   795                           
   796                           ; 2 bytes @ 0x2
   797   000003                     	ds	1
   798   000004                     ??_APP_LEDUpdateUSBStatus:
   799   000004                     ??_SYSTEM_Initialize:
   800   000004                     skStrlen@rtn:
   801                           	callstack 0
   802   000004                     USBTransferOnePacket@len:
   803                           	callstack 0
   804   000004                     Wait@i:
   805                           	callstack 0
   806                           
   807                           ; 2 bytes @ 0x3
   808   000004                     	ds	1
   809   000005                     ??_USBTransferOnePacket:
   810   000005                     putsUSBUSART@len:
   811                           	callstack 0
   812   000005                     PutString01@flg:
   813                           	callstack 0
   814   000005                     ___wmul@product:
   815                           	callstack 0
   816   000005                     ___lwdiv@quotient:
   817                           	callstack 0
   818   000005                     memcpy@n:
   819                           	callstack 0
   820   000005                     memset@n:
   821                           	callstack 0
   822                           
   823                           ; 2 bytes @ 0x4
   824   000005                     	ds	1
   825   000006                     SYSTEM_Initialize@state:
   826                           	callstack 0
   827                           
   828                           ; 1 bytes @ 0x5
   829   000006                     	ds	1
   830   000007                     ??_memset:
   831   000007                     ___lwdiv@counter:
   832                           	callstack 0
   833   000007                     memcpy@d:
   834                           	callstack 0
   835                           
   836                           ; 2 bytes @ 0x6
   837   000007                     	ds	1
   838   000008                     USBConfigureEndpoint@EPNum:
   839                           	callstack 0
   840   000008                     uint2string@buf:
   841                           	callstack 0
   842                           
   843                           ; 2 bytes @ 0x7
   844   000008                     	ds	1
   845   000009                     USBTransferOnePacket@ep:
   846                           	callstack 0
   847   000009                     USBConfigureEndpoint@handle:
   848                           	callstack 0
   849   000009                     memcpy@s:
   850                           	callstack 0
   851   000009                     memset@k:
   852                           	callstack 0
   853                           
   854                           ; 2 bytes @ 0x8
   855   000009                     	ds	1
   856   00000A                     uint2string@data:
   857                           	callstack 0
   858   00000A                     USBTransferOnePacket@handle:
   859                           	callstack 0
   860                           
   861                           ; 2 bytes @ 0x9
   862   00000A                     	ds	1
   863   00000B                     USBEnableEndpoint@options:
   864                           	callstack 0
   865   00000B                     memcpy@tmp:
   866                           	callstack 0
   867   00000B                     memset@s:
   868                           	callstack 0
   869                           
   870                           ; 2 bytes @ 0xA
   871   00000B                     	ds	1
   872   00000C                     uint2string@flg:
   873                           	callstack 0
   874   00000C                     CDCTxService@i:
   875                           	callstack 0
   876   00000C                     USBEnableEndpoint@p:
   877                           	callstack 0
   878   00000C                     getsUSBUSART@buffer:
   879                           	callstack 0
   880                           
   881                           ; 2 bytes @ 0xB
   882   00000C                     	ds	1
   883   00000D                     ??_uint2string:
   884   00000D                     USBDeviceInit@i:
   885                           	callstack 0
   886   00000D                     CDCTxService@byte_to_send:
   887                           	callstack 0
   888                           
   889                           ; 1 bytes @ 0xC
   890   00000D                     	ds	1
   891   00000E                     USBEnableEndpoint@ep:
   892                           	callstack 0
   893   00000E                     getsUSBUSART@len:
   894                           	callstack 0
   895                           
   896                           ; 1 bytes @ 0xD
   897   00000E                     	ds	1
   898   00000F                     USER_USB_CALLBACK_EVENT_HANDLER@event:
   899                           	callstack 0
   900                           
   901                           ; 2 bytes @ 0xE
   902   00000F                     	ds	1
   903   000010                     uint2string@sw:
   904                           	callstack 0
   905                           
   906                           ; 2 bytes @ 0xF
   907   000010                     	ds	1
   908   000011                     USER_USB_CALLBACK_EVENT_HANDLER@pdata:
   909                           	callstack 0
   910                           
   911                           ; 2 bytes @ 0x10
   912   000011                     	ds	1
   913   000012                     uint2string@i:
   914                           	callstack 0
   915                           
   916                           ; 2 bytes @ 0x11
   917   000012                     	ds	1
   918   000013                     USER_USB_CALLBACK_EVENT_HANDLER@size:
   919                           	callstack 0
   920                           
   921                           ; 2 bytes @ 0x12
   922   000013                     	ds	1
   923   000014                     uint2string@dt:
   924                           	callstack 0
   925                           
   926                           ; 2 bytes @ 0x13
   927   000014                     	ds	1
   928   000015                     ??_USER_USB_CALLBACK_EVENT_HANDLER:
   929                           
   930                           ; 1 bytes @ 0x14
   931   000015                     	ds	1
   932   000016                     PutString03@string:
   933                           	callstack 0
   934   000016                     UsbPutString03@str:
   935                           	callstack 0
   936                           
   937                           ; 2 bytes @ 0x15
   938   000016                     	ds	1
   939   000017                     ??_USBStdFeatureReqHandler:
   940   000017                     USBStdSetCfgHandler@i:
   941                           	callstack 0
   942                           
   943                           ; 1 bytes @ 0x16
   944   000017                     	ds	1
   945   000018                     PutString03@data:
   946                           	callstack 0
   947   000018                     UsbPutString03@data:
   948                           	callstack 0
   949                           
   950                           ; 2 bytes @ 0x17
   951   000018                     	ds	1
   952   000019                     USBStdFeatureReqHandler@pUEP:
   953                           	callstack 0
   954                           
   955                           ; 2 bytes @ 0x18
   956   000019                     	ds	1
   957   00001A                     UsbPutString03@flg:
   958                           	callstack 0
   959   00001A                     PutString03@flg:
   960                           	callstack 0
   961                           
   962                           ; 2 bytes @ 0x19
   963   00001A                     	ds	1
   964   00001B                     UsbPutString03@keta:
   965                           	callstack 0
   966   00001B                     USBStdFeatureReqHandler@current_ep_data:
   967                           	callstack 0
   968                           
   969                           ; 1 bytes @ 0x1A
   970   00001B                     	ds	1
   971   00001C                     PutString03@keta:
   972                           	callstack 0
   973   00001C                     USBStdFeatureReqHandler@p:
   974                           	callstack 0
   975   00001C                     UsbPutString03@string:
   976                           	callstack 0
   977                           
   978                           ; 30 bytes @ 0x1B
   979   00001C                     	ds	2
   980   00001E                     ??_USBCheckStdRequest:
   981   00001E                     PutString03@buf:
   982                           	callstack 0
   983                           
   984                           ; 20 bytes @ 0x1D
   985   00001E                     	ds	2
   986   000020                     ??_USBCtrlEPService:
   987   000020                     
   988                           ; 1 bytes @ 0x1F
   989   000020                     	ds	1
   990   000021                     USBDeviceTasks@i:
   991                           	callstack 0
   992                           
   993                           ; 1 bytes @ 0x20
   994   000021                     	ds	25
   995   00003A                     UsbPutString03@i:
   996                           	callstack 0
   997                           
   998                           ; 1 bytes @ 0x39
   999   00003A                     	ds	1
  1000   00003B                     ??_main:
  1001                           
  1002                           ; 1 bytes @ 0x3A
  1003   00003B                     	ds	1
  1004   00003C                     main@RxData:
  1005                           	callstack 0
  1006                           
  1007                           ; 1 bytes @ 0x3B
  1008   00003C                     	ds	1
  1009   00003D                     main@i:
  1010                           	callstack 0
  1011                           
  1012                           ; 1 bytes @ 0x3C
  1013   00003D                     	ds	1
  1014   00003E                     main@numBytesRead:
  1015                           	callstack 0
  1016                           
  1017                           ; 1 bytes @ 0x3D
  1018   00003E                     	ds	1
  1019                           
  1020 ;;
  1021 ;;Main: autosize = 0, tempsize = 1, incstack = 0, save=0
  1022 ;;
  1023 ;; *************** function _main *****************
  1024 ;; Defined at:
  1025 ;;		line 119 in file "main.c"
  1026 ;; Parameters:    Size  Location     Type
  1027 ;;		None
  1028 ;; Auto vars:     Size  Location     Type
  1029 ;;  numBytesRead    1   61[COMRAM] unsigned char 
  1030 ;;  i               1   60[COMRAM] unsigned char 
  1031 ;;  RxData          1   59[COMRAM] unsigned char 
  1032 ;; Return value:  Size  Location     Type
  1033 ;;                  1    wreg      void 
  1034 ;; Registers used:
  1035 ;;		wreg, fsr1l, fsr1h, fsr2l, fsr2h, status,2, status,0, tblptrl, tblptrh, tblptru, prodl, prodh, cstack
  1036 ;; Tracked objects:
  1037 ;;		On entry : 0/0
  1038 ;;		On exit  : 0/0
  1039 ;;		Unchanged: 0/0
  1040 ;; Data sizes:     COMRAM   BANK0   BANK1   BANK2
  1041 ;;      Params:         0       0       0       0
  1042 ;;      Locals:         3       0       0       0
  1043 ;;      Temps:          1       0       0       0
  1044 ;;      Totals:         4       0       0       0
  1045 ;;Total ram usage:        4 bytes
  1046 ;; Hardware stack levels required when called: 11
  1047 ;; This function calls:
  1048 ;;		_GetChar
  1049 ;;		_PutString03
  1050 ;;		_USBDeviceTasks
  1051 ;;		_UsbPutString03
  1052 ;;		_getsUSBUSART
  1053 ;;		_skUSB_ini
  1054 ;; This function is called by:
  1055 ;;		Startup code after reset
  1056 ;; This function uses a non-reentrant model
  1057 ;;
  1058                           
  1059                           	psect	text0
  1060   000AD2                     __ptext0:
  1061                           	callstack 0
  1062   000AD2                     _main:
  1063                           	callstack 20
  1064   000AD2                     
  1065                           ;main.c: 121:      BYTE numBytesRead ;;main.c: 122:      BYTE i ;;main.c: 123:      char
      +                           RxData;;main.c: 141:      OSCCON = 0b00000000 ;
  1066   000AD2  0E00               	movlw	0
  1067   000AD4  6ED3               	movwf	211,c	;volatile
  1068                           
  1069                           ;main.c: 144:      ANSEL = 0b00000000 ;
  1070   000AD6  0E00               	movlw	0
  1071   000AD8  6E7E               	movwf	126,c	;volatile
  1072                           
  1073                           ;main.c: 145:      ANSELH = 0b00000000 ;
  1074   000ADA  0E00               	movlw	0
  1075   000ADC  6E7F               	movwf	127,c	;volatile
  1076                           
  1077                           ;main.c: 149:      TRISC = 0b00000000 ;
  1078   000ADE  0E00               	movlw	0
  1079   000AE0  6E94               	movwf	148,c	;volatile
  1080                           
  1081                           ;main.c: 150:      PORTA = 0b00000000 ;
  1082   000AE2  0E00               	movlw	0
  1083   000AE4  6E80               	movwf	128,c	;volatile
  1084                           
  1085                           ;main.c: 151:      PORTB = 0b00000000 ;
  1086   000AE6  0E00               	movlw	0
  1087   000AE8  6E81               	movwf	129,c	;volatile
  1088                           
  1089                           ;main.c: 152:      PORTC = 0b00000000 ;
  1090   000AEA  0E00               	movlw	0
  1091   000AEC  6E82               	movwf	130,c	;volatile
  1092                           
  1093                           ;main.c: 162:     TRISA = 0b00000000 ;
  1094   000AEE  0E00               	movlw	0
  1095   000AF0  6E92               	movwf	146,c	;volatile
  1096                           
  1097                           ;main.c: 165:     TRISB = 0b00000000 ;
  1098   000AF2  0E00               	movlw	0
  1099   000AF4  6E93               	movwf	147,c	;volatile
  1100                           
  1101                           ;main.c: 170:     TXSTA = 0b00100100;
  1102   000AF6  0E24               	movlw	36
  1103   000AF8  6EAC               	movwf	172,c	;volatile
  1104                           
  1105                           ;main.c: 173:     RCSTA = 0b10010000;
  1106   000AFA  0E90               	movlw	144
  1107   000AFC  6EAB               	movwf	171,c	;volatile
  1108                           
  1109                           ;main.c: 177:     BAUDCON = 0b00000000;
  1110   000AFE  0E00               	movlw	0
  1111   000B00  6EB8               	movwf	184,c	;volatile
  1112                           
  1113                           ;main.c: 182:     SPBRG = 155;
  1114   000B02  0E9B               	movlw	155
  1115   000B04  6EAF               	movwf	175,c	;volatile
  1116   000B06                     
  1117                           ;main.c: 184:     skUSB_ini();
  1118   000B06  ECE2  F00A         	call	_skUSB_ini	;wreg free
  1119   000B0A                     l4965:
  1120                           
  1121                           ;main.c: 190:         USBDeviceTasks() ;
  1122   000B0A  ECB6  F001         	call	_USBDeviceTasks	;wreg free
  1123   000B0E                     
  1124                           ;main.c: 194:         numBytesRead = getsUSBUSART(USB_Out_Buffer,64) ;
  1125   000B0E  0E80               	movlw	low _USB_Out_Buffer
  1126   000B10  6E0C               	movwf	getsUSBUSART@buffer^0,c
  1127   000B12  0E01               	movlw	high _USB_Out_Buffer
  1128   000B14  6E0D               	movwf	(getsUSBUSART@buffer+1)^0,c
  1129   000B16  0E40               	movlw	64
  1130   000B18  6E0E               	movwf	getsUSBUSART@len^0,c
  1131   000B1A  EC2C  F00E         	call	_getsUSBUSART	;wreg free
  1132   000B1E  6E3E               	movwf	main@numBytesRead^0,c
  1133   000B20                     
  1134                           ;main.c: 195:         if(numBytesRead != 0) {
  1135   000B20  503E               	movf	main@numBytesRead^0,w,c
  1136   000B22  B4D8               	btfsc	status,2,c
  1137   000B24  EF96  F005         	goto	u3851
  1138   000B28  EF98  F005         	goto	u3850
  1139   000B2C                     u3851:
  1140   000B2C  EFF2  F005         	goto	l4981
  1141   000B30                     u3850:
  1142   000B30                     
  1143                           ;main.c: 197:             UsbPutString03("GetChaNumr = ",numBytesRead,1,16);
  1144   000B30  0ED9               	movlw	low STR_1
  1145   000B32  6E16               	movwf	UsbPutString03@str^0,c
  1146   000B34  0E3F               	movlw	high STR_1
  1147   000B36  6E17               	movwf	(UsbPutString03@str+1)^0,c
  1148   000B38  C03E  F018         	movff	main@numBytesRead,UsbPutString03@data
  1149   000B3C  6A19               	clrf	(UsbPutString03@data+1)^0,c
  1150   000B3E  0E01               	movlw	1
  1151   000B40  6E1A               	movwf	UsbPutString03@flg^0,c
  1152   000B42  0E10               	movlw	16
  1153   000B44  6E1B               	movwf	UsbPutString03@keta^0,c
  1154   000B46  EC8D  F00F         	call	_UsbPutString03	;wreg free
  1155                           
  1156                           ;main.c: 198:             PutString03("GetChaNumr = ", numBytesRead, 1, 16);
  1157   000B4A  0ED9               	movlw	low STR_1
  1158   000B4C  6E16               	movwf	PutString03@string^0,c
  1159   000B4E  0E3F               	movlw	high STR_1
  1160   000B50  6E17               	movwf	(PutString03@string+1)^0,c
  1161   000B52  C03E  F018         	movff	main@numBytesRead,PutString03@data
  1162   000B56  6A19               	clrf	(PutString03@data+1)^0,c
  1163   000B58  0E00               	movlw	0
  1164   000B5A  6E1B               	movwf	(PutString03@flg+1)^0,c
  1165   000B5C  0E01               	movlw	1
  1166   000B5E  6E1A               	movwf	PutString03@flg^0,c
  1167   000B60  0E00               	movlw	0
  1168   000B62  6E1D               	movwf	(PutString03@keta+1)^0,c
  1169   000B64  0E10               	movlw	16
  1170   000B66  6E1C               	movwf	PutString03@keta^0,c
  1171   000B68  ECD4  F012         	call	_PutString03	;wreg free
  1172   000B6C                     
  1173                           ;main.c: 199:             for (i=0 ; i<numBytesRead ; i++) {
  1174   000B6C  0E00               	movlw	0
  1175   000B6E  6E3D               	movwf	main@i^0,c
  1176   000B70  EFE9  F005         	goto	l4979
  1177   000B74                     l4975:
  1178                           
  1179                           ;main.c: 200:                 UsbPutString03("GetChar = ",USB_Out_Buffer[i],1,16);
  1180   000B74  0EF4               	movlw	low STR_3
  1181   000B76  6E16               	movwf	UsbPutString03@str^0,c
  1182   000B78  0E3F               	movlw	high STR_3
  1183   000B7A  6E17               	movwf	(UsbPutString03@str+1)^0,c
  1184   000B7C  0E80               	movlw	low _USB_Out_Buffer
  1185   000B7E  243D               	addwf	main@i^0,w,c
  1186   000B80  6ED9               	movwf	fsr2l,c
  1187   000B82  6ADA               	clrf	fsr2h,c
  1188   000B84  0E01               	movlw	high _USB_Out_Buffer
  1189   000B86  22DA               	addwfc	fsr2h,f,c
  1190   000B88  50DF               	movf	indf2,w,c
  1191   000B8A  6E3B               	movwf	??_main^0,c
  1192   000B8C  503B               	movf	??_main^0,w,c
  1193   000B8E  6E18               	movwf	UsbPutString03@data^0,c
  1194   000B90  6A19               	clrf	(UsbPutString03@data+1)^0,c
  1195   000B92  0E01               	movlw	1
  1196   000B94  6E1A               	movwf	UsbPutString03@flg^0,c
  1197   000B96  0E10               	movlw	16
  1198   000B98  6E1B               	movwf	UsbPutString03@keta^0,c
  1199   000B9A  EC8D  F00F         	call	_UsbPutString03	;wreg free
  1200                           
  1201                           ;main.c: 201:                 PutString03("UART-Rxdata = ", USB_Out_Buffer[i], 1, 16);
  1202   000B9E  0ECA               	movlw	low STR_4
  1203   000BA0  6E16               	movwf	PutString03@string^0,c
  1204   000BA2  0E3F               	movlw	high STR_4
  1205   000BA4  6E17               	movwf	(PutString03@string+1)^0,c
  1206   000BA6  0E80               	movlw	low _USB_Out_Buffer
  1207   000BA8  243D               	addwf	main@i^0,w,c
  1208   000BAA  6ED9               	movwf	fsr2l,c
  1209   000BAC  6ADA               	clrf	fsr2h,c
  1210   000BAE  0E01               	movlw	high _USB_Out_Buffer
  1211   000BB0  22DA               	addwfc	fsr2h,f,c
  1212   000BB2  50DF               	movf	indf2,w,c
  1213   000BB4  6E3B               	movwf	??_main^0,c
  1214   000BB6  503B               	movf	??_main^0,w,c
  1215   000BB8  6E18               	movwf	PutString03@data^0,c
  1216   000BBA  6A19               	clrf	(PutString03@data+1)^0,c
  1217   000BBC  0E00               	movlw	0
  1218   000BBE  6E1B               	movwf	(PutString03@flg+1)^0,c
  1219   000BC0  0E01               	movlw	1
  1220   000BC2  6E1A               	movwf	PutString03@flg^0,c
  1221   000BC4  0E00               	movlw	0
  1222   000BC6  6E1D               	movwf	(PutString03@keta+1)^0,c
  1223   000BC8  0E10               	movlw	16
  1224   000BCA  6E1C               	movwf	PutString03@keta^0,c
  1225   000BCC  ECD4  F012         	call	_PutString03	;wreg free
  1226   000BD0                     
  1227                           ;main.c: 202:             }
  1228   000BD0  2A3D               	incf	main@i^0,f,c
  1229   000BD2                     l4979:
  1230   000BD2  503E               	movf	main@numBytesRead^0,w,c
  1231   000BD4  5C3D               	subwf	main@i^0,w,c
  1232   000BD6  A0D8               	btfss	status,0,c
  1233   000BD8  EFF0  F005         	goto	u3861
  1234   000BDC  EFF2  F005         	goto	u3860
  1235   000BE0                     u3861:
  1236   000BE0  EFBA  F005         	goto	l4975
  1237   000BE4                     u3860:
  1238   000BE4                     l4981:
  1239                           
  1240                           ;main.c: 206:         RxData = GetChar();
  1241   000BE4  ECD9  F013         	call	_GetChar	;wreg free
  1242   000BE8  6E3C               	movwf	main@RxData^0,c
  1243   000BEA                     
  1244                           ;main.c: 208:         if(RxData > 0){
  1245   000BEA  503C               	movf	main@RxData^0,w,c
  1246   000BEC  B4D8               	btfsc	status,2,c
  1247   000BEE  EFFB  F005         	goto	u3871
  1248   000BF2  EFFD  F005         	goto	u3870
  1249   000BF6                     u3871:
  1250   000BF6  EF85  F005         	goto	l4965
  1251   000BFA                     u3870:
  1252   000BFA                     
  1253                           ;main.c: 209:             PutString03("UART-Rxdata = ", RxData, 1, 16);
  1254   000BFA  0ECA               	movlw	low STR_4
  1255   000BFC  6E16               	movwf	PutString03@string^0,c
  1256   000BFE  0E3F               	movlw	high STR_4
  1257   000C00  6E17               	movwf	(PutString03@string+1)^0,c
  1258   000C02  C03C  F018         	movff	main@RxData,PutString03@data
  1259   000C06  6A19               	clrf	(PutString03@data+1)^0,c
  1260   000C08  0E00               	movlw	0
  1261   000C0A  6E1B               	movwf	(PutString03@flg+1)^0,c
  1262   000C0C  0E01               	movlw	1
  1263   000C0E  6E1A               	movwf	PutString03@flg^0,c
  1264   000C10  0E00               	movlw	0
  1265   000C12  6E1D               	movwf	(PutString03@keta+1)^0,c
  1266   000C14  0E10               	movlw	16
  1267   000C16  6E1C               	movwf	PutString03@keta^0,c
  1268   000C18  ECD4  F012         	call	_PutString03	;wreg free
  1269   000C1C  EF85  F005         	goto	l4965
  1270   000C20  EF07  F000         	goto	start
  1271   000C24                     __end_of_main:
  1272                           	callstack 0
  1273                           
  1274 ;; *************** function _skUSB_ini *****************
  1275 ;; Defined at:
  1276 ;;		line 344 in file "main.c"
  1277 ;; Parameters:    Size  Location     Type
  1278 ;;		None
  1279 ;; Auto vars:     Size  Location     Type
  1280 ;;  numBytesRead    1    0        unsigned char 
  1281 ;; Return value:  Size  Location     Type
  1282 ;;                  1    wreg      void 
  1283 ;; Registers used:
  1284 ;;		wreg, fsr1l, fsr1h, fsr2l, fsr2h, status,2, status,0, tblptrl, tblptrh, tblptru, prodl, prodh, cstack
  1285 ;; Tracked objects:
  1286 ;;		On entry : 0/0
  1287 ;;		On exit  : 0/0
  1288 ;;		Unchanged: 0/0
  1289 ;; Data sizes:     COMRAM   BANK0   BANK1   BANK2
  1290 ;;      Params:         0       0       0       0
  1291 ;;      Locals:         0       0       0       0
  1292 ;;      Temps:          0       0       0       0
  1293 ;;      Totals:         0       0       0       0
  1294 ;;Total ram usage:        0 bytes
  1295 ;; Hardware stack levels used: 1
  1296 ;; Hardware stack levels required when called: 10
  1297 ;; This function calls:
  1298 ;;		_USBDeviceInit
  1299 ;;		_USBDeviceTasks
  1300 ;;		_UsbPutString03
  1301 ;;		_Wait
  1302 ;;		_getsUSBUSART
  1303 ;; This function is called by:
  1304 ;;		_main
  1305 ;; This function uses a non-reentrant model
  1306 ;;
  1307                           
  1308                           	psect	text1
  1309   0015C4                     __ptext1:
  1310                           	callstack 0
  1311   0015C4                     _skUSB_ini:
  1312                           	callstack 20
  1313   0015C4                     
  1314                           ;main.c: 346:     BYTE numBytesRead;;main.c: 348:     USBDeviceInit() ;
  1315   0015C4  EC5F  F007         	call	_USBDeviceInit	;wreg free
  1316                           
  1317                           ;main.c: 350:     while ( (USBDeviceState < CONFIGURED_STATE) || (UCONbits.SUSPND == 1) 
      +                          ){
  1318   0015C8  EFEE  F00A         	goto	l4879
  1319   0015CC                     l4875:
  1320                           
  1321                           ;main.c: 351:         USBDeviceTasks() ;
  1322   0015CC  ECB6  F001         	call	_USBDeviceTasks	;wreg free
  1323   0015D0                     
  1324                           ;main.c: 352:         Wait(1);
  1325   0015D0  0E00               	movlw	0
  1326   0015D2  6E02               	movwf	(Wait@num+1)^0,c
  1327   0015D4  0E01               	movlw	1
  1328   0015D6  6E01               	movwf	Wait@num^0,c
  1329   0015D8  EC19  F013         	call	_Wait	;wreg free
  1330   0015DC                     l4879:
  1331                           
  1332                           ;main.c: 350:     while ( (USBDeviceState < CONFIGURED_STATE) || (UCONbits.SUSPND == 1) 
      +                          ){
  1333   0015DC  0E1F               	movlw	31
  1334   0015DE  645B               	cpfsgt	_USBDeviceState^0,c
  1335   0015E0  EFF4  F00A         	goto	u3731
  1336   0015E4  EFF6  F00A         	goto	u3730
  1337   0015E8                     u3731:
  1338   0015E8  EFE6  F00A         	goto	l4875
  1339   0015EC                     u3730:
  1340   0015EC  B264               	btfsc	100,1,c	;volatile
  1341   0015EE  EFFB  F00A         	goto	u3741
  1342   0015F2  EFFD  F00A         	goto	u3740
  1343   0015F6                     u3741:
  1344   0015F6  EFE6  F00A         	goto	l4875
  1345   0015FA                     u3740:
  1346   0015FA                     
  1347                           ;main.c: 354:     USBDeviceTasks() ;
  1348   0015FA  ECB6  F001         	call	_USBDeviceTasks	;wreg free
  1349   0015FE  0E80               	movlw	low _USB_Out_Buffer
  1350   001600  6E0C               	movwf	getsUSBUSART@buffer^0,c
  1351   001602  0E01               	movlw	high _USB_Out_Buffer
  1352   001604  6E0D               	movwf	(getsUSBUSART@buffer+1)^0,c
  1353   001606  0E40               	movlw	64
  1354   001608  6E0E               	movwf	getsUSBUSART@len^0,c
  1355   00160A  EC2C  F00E         	call	_getsUSBUSART	;wreg free
  1356   00160E                     
  1357                           ;main.c: 359:     UsbPutString03("*********1**********", 0, 1, 16);
  1358   00160E  0E8C               	movlw	low STR_6
  1359   001610  6E16               	movwf	UsbPutString03@str^0,c
  1360   001612  0E3F               	movlw	high STR_6
  1361   001614  6E17               	movwf	(UsbPutString03@str+1)^0,c
  1362   001616  0E00               	movlw	0
  1363   001618  6E19               	movwf	(UsbPutString03@data+1)^0,c
  1364   00161A  0E00               	movlw	0
  1365   00161C  6E18               	movwf	UsbPutString03@data^0,c
  1366   00161E  0E01               	movlw	1
  1367   001620  6E1A               	movwf	UsbPutString03@flg^0,c
  1368   001622  0E10               	movlw	16
  1369   001624  6E1B               	movwf	UsbPutString03@keta^0,c
  1370   001626  EC8D  F00F         	call	_UsbPutString03	;wreg free
  1371                           
  1372                           ;main.c: 363:     while ( (USBDeviceState < CONFIGURED_STATE) || (UCONbits.SUSPND == 1) 
      +                          ){
  1373   00162A  EF1F  F00B         	goto	l4893
  1374   00162E                     l4889:
  1375                           
  1376                           ;main.c: 364:         USBDeviceTasks() ;
  1377   00162E  ECB6  F001         	call	_USBDeviceTasks	;wreg free
  1378   001632                     
  1379                           ;main.c: 365:         Wait(1);
  1380   001632  0E00               	movlw	0
  1381   001634  6E02               	movwf	(Wait@num+1)^0,c
  1382   001636  0E01               	movlw	1
  1383   001638  6E01               	movwf	Wait@num^0,c
  1384   00163A  EC19  F013         	call	_Wait	;wreg free
  1385   00163E                     l4893:
  1386                           
  1387                           ;main.c: 363:     while ( (USBDeviceState < CONFIGURED_STATE) || (UCONbits.SUSPND == 1) 
      +                          ){
  1388   00163E  0E1F               	movlw	31
  1389   001640  645B               	cpfsgt	_USBDeviceState^0,c
  1390   001642  EF25  F00B         	goto	u3751
  1391   001646  EF27  F00B         	goto	u3750
  1392   00164A                     u3751:
  1393   00164A  EF17  F00B         	goto	l4889
  1394   00164E                     u3750:
  1395   00164E  B264               	btfsc	100,1,c	;volatile
  1396   001650  EF2C  F00B         	goto	u3761
  1397   001654  EF2E  F00B         	goto	u3760
  1398   001658                     u3761:
  1399   001658  EF17  F00B         	goto	l4889
  1400   00165C                     u3760:
  1401   00165C                     
  1402                           ;main.c: 367:     USBDeviceTasks() ;
  1403   00165C  ECB6  F001         	call	_USBDeviceTasks	;wreg free
  1404                           
  1405                           ;main.c: 368:     UsbPutString03("*** UART START ****", 0, 1, 16);
  1406   001660  0EB6               	movlw	low STR_7
  1407   001662  6E16               	movwf	UsbPutString03@str^0,c
  1408   001664  0E3F               	movlw	high STR_7
  1409   001666  6E17               	movwf	(UsbPutString03@str+1)^0,c
  1410   001668  0E00               	movlw	0
  1411   00166A  6E19               	movwf	(UsbPutString03@data+1)^0,c
  1412   00166C  0E00               	movlw	0
  1413   00166E  6E18               	movwf	UsbPutString03@data^0,c
  1414   001670  0E01               	movlw	1
  1415   001672  6E1A               	movwf	UsbPutString03@flg^0,c
  1416   001674  0E10               	movlw	16
  1417   001676  6E1B               	movwf	UsbPutString03@keta^0,c
  1418   001678  EC8D  F00F         	call	_UsbPutString03	;wreg free
  1419                           
  1420                           ;main.c: 371:     while ( (USBDeviceState < CONFIGURED_STATE) || (UCONbits.SUSPND == 1) 
      +                          ){
  1421   00167C  EF48  F00B         	goto	l4903
  1422   001680                     l4899:
  1423                           
  1424                           ;main.c: 372:         USBDeviceTasks() ;
  1425   001680  ECB6  F001         	call	_USBDeviceTasks	;wreg free
  1426   001684                     
  1427                           ;main.c: 373:         Wait(1);
  1428   001684  0E00               	movlw	0
  1429   001686  6E02               	movwf	(Wait@num+1)^0,c
  1430   001688  0E01               	movlw	1
  1431   00168A  6E01               	movwf	Wait@num^0,c
  1432   00168C  EC19  F013         	call	_Wait	;wreg free
  1433   001690                     l4903:
  1434                           
  1435                           ;main.c: 371:     while ( (USBDeviceState < CONFIGURED_STATE) || (UCONbits.SUSPND == 1) 
      +                          ){
  1436   001690  0E1F               	movlw	31
  1437   001692  645B               	cpfsgt	_USBDeviceState^0,c
  1438   001694  EF4E  F00B         	goto	u3771
  1439   001698  EF50  F00B         	goto	u3770
  1440   00169C                     u3771:
  1441   00169C  EF40  F00B         	goto	l4899
  1442   0016A0                     u3770:
  1443   0016A0  B264               	btfsc	100,1,c	;volatile
  1444   0016A2  EF55  F00B         	goto	u3781
  1445   0016A6  EF57  F00B         	goto	u3780
  1446   0016AA                     u3781:
  1447   0016AA  EF40  F00B         	goto	l4899
  1448   0016AE                     u3780:
  1449   0016AE                     
  1450                           ;main.c: 376:     USBDeviceTasks() ;
  1451   0016AE  ECB6  F001         	call	_USBDeviceTasks	;wreg free
  1452                           
  1453                           ;main.c: 377:     UsbPutString03("*********2**********", 0, 1, 16);
  1454   0016B2  0EA1               	movlw	low STR_8
  1455   0016B4  6E16               	movwf	UsbPutString03@str^0,c
  1456   0016B6  0E3F               	movlw	high STR_8
  1457   0016B8  6E17               	movwf	(UsbPutString03@str+1)^0,c
  1458   0016BA  0E00               	movlw	0
  1459   0016BC  6E19               	movwf	(UsbPutString03@data+1)^0,c
  1460   0016BE  0E00               	movlw	0
  1461   0016C0  6E18               	movwf	UsbPutString03@data^0,c
  1462   0016C2  0E01               	movlw	1
  1463   0016C4  6E1A               	movwf	UsbPutString03@flg^0,c
  1464   0016C6  0E10               	movlw	16
  1465   0016C8  6E1B               	movwf	UsbPutString03@keta^0,c
  1466   0016CA  EC8D  F00F         	call	_UsbPutString03	;wreg free
  1467   0016CE  0012               	return		;funcret
  1468   0016D0                     __end_of_skUSB_ini:
  1469                           	callstack 0
  1470                           
  1471 ;; *************** function _getsUSBUSART *****************
  1472 ;; Defined at:
  1473 ;;		line 485 in file "usb_device_cdc.c"
  1474 ;; Parameters:    Size  Location     Type
  1475 ;;  buffer          2   11[COMRAM] PTR unsigned char 
  1476 ;;		 -> readBuffer(64), USB_Out_Buffer(64), 
  1477 ;;  len             1   13[COMRAM] unsigned char 
  1478 ;; Auto vars:     Size  Location     Type
  1479 ;;		None
  1480 ;; Return value:  Size  Location     Type
  1481 ;;                  1    wreg      unsigned char 
  1482 ;; Registers used:
  1483 ;;		wreg, fsr1l, fsr1h, fsr2l, fsr2h, status,2, status,0, prodl, prodh, cstack
  1484 ;; Tracked objects:
  1485 ;;		On entry : 0/0
  1486 ;;		On exit  : 0/0
  1487 ;;		Unchanged: 0/0
  1488 ;; Data sizes:     COMRAM   BANK0   BANK1   BANK2
  1489 ;;      Params:         3       0       0       0
  1490 ;;      Locals:         0       0       0       0
  1491 ;;      Temps:          1       0       0       0
  1492 ;;      Totals:         4       0       0       0
  1493 ;;Total ram usage:        4 bytes
  1494 ;; Hardware stack levels used: 1
  1495 ;; Hardware stack levels required when called: 2
  1496 ;; This function calls:
  1497 ;;		_USBTransferOnePacket
  1498 ;; This function is called by:
  1499 ;;		_main
  1500 ;;		_skUSB_ini
  1501 ;;		_ProcessUSB
  1502 ;;		_APP_DeviceCDCBasicDemoTasks
  1503 ;; This function uses a non-reentrant model
  1504 ;;
  1505                           
  1506                           	psect	text2
  1507   001C58                     __ptext2:
  1508                           	callstack 0
  1509   001C58                     _getsUSBUSART:
  1510                           	callstack 27
  1511   001C58                     
  1512                           ;usb_device_cdc.c: 485: uint8_t getsUSBUSART(uint8_t *buffer, uint8_t len);usb_device_cd
      +                          c.c: 486: {;usb_device_cdc.c: 487:     cdc_rx_len = 0;
  1513   001C58  0E00               	movlw	0
  1514   001C5A  6E54               	movwf	_cdc_rx_len^0,c
  1515   001C5C                     
  1516                           ;usb_device_cdc.c: 489:     if(!((CDCDataOutHandle != 0x0000) && ((*(volatile uint8_t*)C
      +                          DCDataOutHandle & 0x80) != 0x00)))
  1517   001C5C  504D               	movf	_CDCDataOutHandle^0,w,c
  1518   001C5E  104E               	iorwf	(_CDCDataOutHandle+1)^0,w,c
  1519   001C60  B4D8               	btfsc	status,2,c
  1520   001C62  EF35  F00E         	goto	u3641
  1521   001C66  EF37  F00E         	goto	u3640
  1522   001C6A                     u3641:
  1523   001C6A  EF42  F00E         	goto	l4807
  1524   001C6E                     u3640:
  1525   001C6E  C04D  FFD9         	movff	_CDCDataOutHandle,fsr2l
  1526   001C72  C04E  FFDA         	movff	_CDCDataOutHandle+1,fsr2h
  1527   001C76  BEDF               	btfsc	indf2,7,c
  1528   001C78  EF40  F00E         	goto	u3651
  1529   001C7C  EF42  F00E         	goto	u3650
  1530   001C80                     u3651:
  1531   001C80  EF84  F00E         	goto	l4821
  1532   001C84                     u3650:
  1533   001C84                     l4807:
  1534                           
  1535                           ;usb_device_cdc.c: 490:     {;usb_device_cdc.c: 495:         if(len > (((volatile BDT_EN
      +                          TRY*)CDCDataOutHandle)->CNT))
  1536   001C84  EE20 F001          	lfsr	2,1
  1537   001C88  504D               	movf	_CDCDataOutHandle^0,w,c
  1538   001C8A  26D9               	addwf	fsr2l,f,c
  1539   001C8C  504E               	movf	(_CDCDataOutHandle+1)^0,w,c
  1540   001C8E  22DA               	addwfc	fsr2h,f,c
  1541   001C90  500E               	movf	getsUSBUSART@len^0,w,c
  1542   001C92  5CDE               	subwf	postinc2,w,c
  1543   001C94  B0D8               	btfsc	status,0,c
  1544   001C96  EF4F  F00E         	goto	u3661
  1545   001C9A  EF51  F00E         	goto	u3660
  1546   001C9E                     u3661:
  1547   001C9E  EF59  F00E         	goto	l4811
  1548   001CA2                     u3660:
  1549   001CA2                     
  1550                           ;usb_device_cdc.c: 496:             len = (((volatile BDT_ENTRY*)CDCDataOutHandle)->CNT)
      +                          ;
  1551   001CA2  EE20 F001          	lfsr	2,1
  1552   001CA6  504D               	movf	_CDCDataOutHandle^0,w,c
  1553   001CA8  26D9               	addwf	fsr2l,f,c
  1554   001CAA  504E               	movf	(_CDCDataOutHandle+1)^0,w,c
  1555   001CAC  22DA               	addwfc	fsr2h,f,c
  1556   001CAE  50DF               	movf	indf2,w,c
  1557   001CB0  6E0E               	movwf	getsUSBUSART@len^0,c
  1558   001CB2                     l4811:
  1559                           
  1560                           ;usb_device_cdc.c: 501:         for(cdc_rx_len = 0; cdc_rx_len < len; cdc_rx_len++)
  1561   001CB2  0E00               	movlw	0
  1562   001CB4  6E54               	movwf	_cdc_rx_len^0,c
  1563   001CB6  EF6C  F00E         	goto	l4817
  1564   001CBA                     l4813:
  1565                           
  1566                           ;usb_device_cdc.c: 502:             buffer[cdc_rx_len] = cdc_data_rx[cdc_rx_len];
  1567   001CBA  0E80               	movlw	128
  1568   001CBC  2454               	addwf	_cdc_rx_len^0,w,c
  1569   001CBE  6ED9               	movwf	fsr2l,c
  1570   001CC0  6ADA               	clrf	fsr2h,c
  1571   001CC2  0E02               	movlw	2
  1572   001CC4  22DA               	addwfc	fsr2h,f,c
  1573   001CC6  5054               	movf	_cdc_rx_len^0,w,c
  1574   001CC8  240C               	addwf	getsUSBUSART@buffer^0,w,c
  1575   001CCA  6EE1               	movwf	fsr1l,c
  1576   001CCC  0E00               	movlw	0
  1577   001CCE  200D               	addwfc	(getsUSBUSART@buffer+1)^0,w,c
  1578   001CD0  6EE2               	movwf	fsr1h,c
  1579   001CD2  CFDF FFE7          	movff	indf2,indf1
  1580   001CD6  2A54               	incf	_cdc_rx_len^0,f,c
  1581   001CD8                     l4817:
  1582   001CD8  500E               	movf	getsUSBUSART@len^0,w,c
  1583   001CDA  5C54               	subwf	_cdc_rx_len^0,w,c
  1584   001CDC  A0D8               	btfss	status,0,c
  1585   001CDE  EF73  F00E         	goto	u3671
  1586   001CE2  EF75  F00E         	goto	u3670
  1587   001CE6                     u3671:
  1588   001CE6  EF5D  F00E         	goto	l4813
  1589   001CEA                     u3670:
  1590   001CEA                     
  1591                           ;usb_device_cdc.c: 508:         CDCDataOutHandle = USBTransferOnePacket(2,0,(uint8_t*)&c
      +                          dc_data_rx,sizeof(cdc_data_rx));
  1592   001CEA  0E00               	movlw	0
  1593   001CEC  6E01               	movwf	USBTransferOnePacket@dir^0,c
  1594   001CEE  0E80               	movlw	128
  1595   001CF0  6E02               	movwf	USBTransferOnePacket@data^0,c
  1596   001CF2  0E02               	movlw	2
  1597   001CF4  6E03               	movwf	(USBTransferOnePacket@data+1)^0,c
  1598   001CF6  0E40               	movlw	64
  1599   001CF8  6E04               	movwf	USBTransferOnePacket@len^0,c
  1600   001CFA  0E02               	movlw	2
  1601   001CFC  ECA4  F008         	call	_USBTransferOnePacket
  1602   001D00  C001  F04D         	movff	?_USBTransferOnePacket,_CDCDataOutHandle
  1603   001D04  C002  F04E         	movff	?_USBTransferOnePacket+1,_CDCDataOutHandle+1
  1604   001D08                     l4821:
  1605                           
  1606                           ;usb_device_cdc.c: 512:     return cdc_rx_len;
  1607   001D08  5054               	movf	_cdc_rx_len^0,w,c
  1608   001D0A  0012               	return		;funcret
  1609   001D0C                     __end_of_getsUSBUSART:
  1610                           	callstack 0
  1611                           
  1612 ;; *************** function _Wait *****************
  1613 ;; Defined at:
  1614 ;;		line 332 in file "main.c"
  1615 ;; Parameters:    Size  Location     Type
  1616 ;;  num             2    0[COMRAM] unsigned short 
  1617 ;; Auto vars:     Size  Location     Type
  1618 ;;  i               2    3[COMRAM] int 
  1619 ;; Return value:  Size  Location     Type
  1620 ;;                  1    wreg      void 
  1621 ;; Registers used:
  1622 ;;		wreg, status,2, status,0
  1623 ;; Tracked objects:
  1624 ;;		On entry : 0/0
  1625 ;;		On exit  : 0/0
  1626 ;;		Unchanged: 0/0
  1627 ;; Data sizes:     COMRAM   BANK0   BANK1   BANK2
  1628 ;;      Params:         2       0       0       0
  1629 ;;      Locals:         2       0       0       0
  1630 ;;      Temps:          1       0       0       0
  1631 ;;      Totals:         5       0       0       0
  1632 ;;Total ram usage:        5 bytes
  1633 ;; Hardware stack levels used: 1
  1634 ;; Hardware stack levels required when called: 1
  1635 ;; This function calls:
  1636 ;;		Nothing
  1637 ;; This function is called by:
  1638 ;;		_skUSB_ini
  1639 ;; This function uses a non-reentrant model
  1640 ;;
  1641                           
  1642                           	psect	text3
  1643   002632                     __ptext3:
  1644                           	callstack 0
  1645   002632                     _Wait:
  1646                           	callstack 28
  1647   002632                     
  1648                           ;main.c: 332: void Wait(uint16_t num);main.c: 333: {;main.c: 334:      int i ;;main.c: 3
      +                          36:      for (i=0 ; i < num ; i++) {
  1649   002632  0E00               	movlw	0
  1650   002634  6E05               	movwf	(Wait@i+1)^0,c
  1651   002636  0E00               	movlw	0
  1652   002638  6E04               	movwf	Wait@i^0,c
  1653   00263A  EF28  F013         	goto	l153
  1654   00263E                     l4851:
  1655                           
  1656                           ;main.c: 337:           _delay((unsigned long)((10)*(4000000/4000.0))) ;
  1657   00263E  0E0D               	movlw	13
  1658   002640  6E03               	movwf	??_Wait^0,c
  1659   002642  0EFC               	movlw	252
  1660   002644                     u4037:
  1661   002644  2EE8               	decfsz	wreg,f,c
  1662   002646  D7FE               	bra	u4037
  1663   002648  2E03               	decfsz	??_Wait^0,f,c
  1664   00264A  D7FC               	bra	u4037
  1665   00264C                     
  1666                           ;main.c: 338:      }
  1667   00264C  4A04               	infsnz	Wait@i^0,f,c
  1668   00264E  2A05               	incf	(Wait@i+1)^0,f,c
  1669   002650                     l153:
  1670   002650  5001               	movf	Wait@num^0,w,c
  1671   002652  5C04               	subwf	Wait@i^0,w,c
  1672   002654  5002               	movf	(Wait@num+1)^0,w,c
  1673   002656  5805               	subwfb	(Wait@i+1)^0,w,c
  1674   002658  A0D8               	btfss	status,0,c
  1675   00265A  EF31  F013         	goto	u3701
  1676   00265E  EF33  F013         	goto	u3700
  1677   002662                     u3701:
  1678   002662  EF1F  F013         	goto	l4851
  1679   002666                     u3700:
  1680   002666  0012               	return		;funcret
  1681   002668                     __end_of_Wait:
  1682                           	callstack 0
  1683                           
  1684 ;; *************** function _UsbPutString03 *****************
  1685 ;; Defined at:
  1686 ;;		line 430 in file "main.c"
  1687 ;; Parameters:    Size  Location     Type
  1688 ;;  str             2   21[COMRAM] PTR unsigned char 
  1689 ;;		 -> STR_8(21), STR_7(20), STR_6(21), STR_3(11), 
  1690 ;;		 -> STR_1(14), 
  1691 ;;  data            2   23[COMRAM] unsigned short 
  1692 ;;  flg             1   25[COMRAM] unsigned char 
  1693 ;;  keta            1   26[COMRAM] unsigned char 
  1694 ;; Auto vars:     Size  Location     Type
  1695 ;;  string         30   27[COMRAM] unsigned char [30]
  1696 ;;  i               1   57[COMRAM] unsigned char 
  1697 ;;  num             1    0        unsigned char 
  1698 ;; Return value:  Size  Location     Type
  1699 ;;                  1    wreg      void 
  1700 ;; Registers used:
  1701 ;;		wreg, fsr1l, fsr1h, fsr2l, fsr2h, status,2, status,0, tblptrl, tblptrh, tblptru, prodl, prodh, cstack
  1702 ;; Tracked objects:
  1703 ;;		On entry : 0/0
  1704 ;;		On exit  : 0/0
  1705 ;;		Unchanged: 0/0
  1706 ;; Data sizes:     COMRAM   BANK0   BANK1   BANK2
  1707 ;;      Params:         6       0       0       0
  1708 ;;      Locals:        31       0       0       0
  1709 ;;      Temps:          0       0       0       0
  1710 ;;      Totals:        37       0       0       0
  1711 ;;Total ram usage:       37 bytes
  1712 ;; Hardware stack levels used: 1
  1713 ;; Hardware stack levels required when called: 3
  1714 ;; This function calls:
  1715 ;;		_CDCTxService
  1716 ;;		_PutString01
  1717 ;;		_putsUSBUSART
  1718 ;;		_skStrlen
  1719 ;;		_uint2string
  1720 ;; This function is called by:
  1721 ;;		_main
  1722 ;;		_skUSB_ini
  1723 ;; This function uses a non-reentrant model
  1724 ;;
  1725                           
  1726                           	psect	text4
  1727   001F1A                     __ptext4:
  1728                           	callstack 0
  1729   001F1A                     _UsbPutString03:
  1730                           	callstack 26
  1731   001F1A                     
  1732                           ;main.c: 430: void UsbPutString03(char *str, uint16_t data, uint8_t flg, uint8_t keta);m
      +                          ain.c: 431: {;main.c: 432:     uint8_t i;;main.c: 433:     uint8_t num;;main.c: 434:    
      +                           char string[30];;main.c: 436:     i=0;
  1733   001F1A  0E00               	movlw	0
  1734   001F1C  6E3A               	movwf	UsbPutString03@i^0,c
  1735                           
  1736                           ;main.c: 437:     while( *str != (char)((void*)0) )
  1737   001F1E  EFA1  F00F         	goto	l4833
  1738   001F22                     l4827:
  1739                           
  1740                           ;main.c: 438:     {;main.c: 439:         string[i]=*str;
  1741   001F22  C016  FFF6         	movff	UsbPutString03@str,tblptrl
  1742   001F26  C017  FFF7         	movff	UsbPutString03@str+1,tblptrh
  1743   001F2A                     	if	0	;tblptru may be non-zero
  1744   001F2A                     	endif
  1745   001F2A                     	if	0	;tblptru may be non-zero
  1746   001F2A                     	endif
  1747   001F2A  0E1C               	movlw	low UsbPutString03@string
  1748   001F2C  243A               	addwf	UsbPutString03@i^0,w,c
  1749   001F2E  6ED9               	movwf	fsr2l,c
  1750   001F30  6ADA               	clrf	fsr2h,c
  1751   001F32  0E00               	movlw	high UsbPutString03@string
  1752   001F34  22DA               	addwfc	fsr2h,f,c
  1753   001F36  0008               	tblrd		*
  1754   001F38  CFF5 FFDF          	movff	tablat,indf2
  1755   001F3C                     
  1756                           ;main.c: 440:         str ++;
  1757   001F3C  4A16               	infsnz	UsbPutString03@str^0,f,c
  1758   001F3E  2A17               	incf	(UsbPutString03@str+1)^0,f,c
  1759   001F40                     
  1760                           ;main.c: 441:         i ++;
  1761   001F40  2A3A               	incf	UsbPutString03@i^0,f,c
  1762   001F42                     l4833:
  1763                           
  1764                           ;main.c: 437:     while( *str != (char)((void*)0) )
  1765   001F42  C016  FFF6         	movff	UsbPutString03@str,tblptrl
  1766   001F46  C017  FFF7         	movff	UsbPutString03@str+1,tblptrh
  1767   001F4A                     	if	0	;tblptru may be non-zero
  1768   001F4A                     	endif
  1769   001F4A                     	if	0	;tblptru may be non-zero
  1770   001F4A                     	endif
  1771   001F4A  0008               	tblrd		*
  1772   001F4C  50F5               	movf	tablat,w,c
  1773   001F4E  0900               	iorlw	0
  1774   001F50  A4D8               	btfss	status,2,c
  1775   001F52  EFAD  F00F         	goto	u3681
  1776   001F56  EFAF  F00F         	goto	u3680
  1777   001F5A                     u3681:
  1778   001F5A  EF91  F00F         	goto	l4827
  1779   001F5E                     u3680:
  1780   001F5E                     
  1781                           ;main.c: 447:     uint2string( &string[i], data, keta);
  1782   001F5E  0E1C               	movlw	low UsbPutString03@string
  1783   001F60  243A               	addwf	UsbPutString03@i^0,w,c
  1784   001F62  6E08               	movwf	uint2string@buf^0,c
  1785   001F64  6A09               	clrf	(uint2string@buf+1)^0,c
  1786   001F66  0E00               	movlw	high UsbPutString03@string
  1787   001F68  2209               	addwfc	(uint2string@buf+1)^0,f,c
  1788   001F6A  C018  F00A         	movff	UsbPutString03@data,uint2string@data
  1789   001F6E  C019  F00B         	movff	UsbPutString03@data+1,uint2string@data+1
  1790   001F72  C01B  F00C         	movff	UsbPutString03@keta,uint2string@flg
  1791   001F76  ECEB  F002         	call	_uint2string	;wreg free
  1792   001F7A  0E1C               	movlw	low UsbPutString03@string
  1793   001F7C  6E01               	movwf	skStrlen@str^0,c
  1794   001F7E  0E00               	movlw	high UsbPutString03@string
  1795   001F80  6E02               	movwf	(skStrlen@str+1)^0,c
  1796   001F82  C01A  F003         	movff	UsbPutString03@flg,skStrlen@flg
  1797   001F86  EC0A  F011         	call	_skStrlen	;wreg free
  1798   001F8A                     
  1799                           ;main.c: 453:     CDCTxService() ;
  1800   001F8A  ECE6  F003         	call	_CDCTxService	;wreg free
  1801   001F8E                     
  1802                           ;main.c: 454:     if(cdc_trf_state == 0)
  1803   001F8E  505A               	movf	_cdc_trf_state^0,w,c
  1804   001F90  A4D8               	btfss	status,2,c
  1805   001F92  EFCD  F00F         	goto	u3691
  1806   001F96  EFCF  F00F         	goto	u3690
  1807   001F9A                     u3691:
  1808   001F9A  EFE1  F00F         	goto	l185
  1809   001F9E                     u3690:
  1810   001F9E                     
  1811                           ;main.c: 455:     {;main.c: 456:         PutString01("putsUSBUSART",1);
  1812   001F9E  0EE7               	movlw	low STR_9
  1813   001FA0  6E03               	movwf	PutString01@string^0,c
  1814   001FA2  0E3F               	movlw	high STR_9
  1815   001FA4  6E04               	movwf	(PutString01@string+1)^0,c
  1816   001FA6  0E00               	movlw	0
  1817   001FA8  6E06               	movwf	(PutString01@flg+1)^0,c
  1818   001FAA  0E01               	movlw	1
  1819   001FAC  6E05               	movwf	PutString01@flg^0,c
  1820   001FAE  ECA4  F013         	call	_PutString01	;wreg free
  1821   001FB2                     
  1822                           ;main.c: 457:         putsUSBUSART(string);
  1823   001FB2  0E1C               	movlw	low UsbPutString03@string
  1824   001FB4  6E01               	movwf	putsUSBUSART@data^0,c
  1825   001FB6  0E00               	movlw	high UsbPutString03@string
  1826   001FB8  6E02               	movwf	(putsUSBUSART@data+1)^0,c
  1827   001FBA  ECD5  F010         	call	_putsUSBUSART	;wreg free
  1828   001FBE                     
  1829                           ;main.c: 458:         CDCTxService() ;
  1830   001FBE  ECE6  F003         	call	_CDCTxService	;wreg free
  1831   001FC2                     l185:
  1832   001FC2  0012               	return		;funcret
  1833   001FC4                     __end_of_UsbPutString03:
  1834                           	callstack 0
  1835                           
  1836 ;; *************** function _skStrlen *****************
  1837 ;; Defined at:
  1838 ;;		line 384 in file "main.c"
  1839 ;; Parameters:    Size  Location     Type
  1840 ;;  str             2    0[COMRAM] PTR unsigned char 
  1841 ;;		 -> UsbPutString03@string(30), 
  1842 ;;  flg             1    2[COMRAM] unsigned char 
  1843 ;; Auto vars:     Size  Location     Type
  1844 ;;  rtn             1    3[COMRAM] unsigned char 
  1845 ;;  i               1    0        unsigned char 
  1846 ;; Return value:  Size  Location     Type
  1847 ;;                  1    wreg      unsigned char 
  1848 ;; Registers used:
  1849 ;;		wreg, fsr2l, fsr2h, status,2, status,0
  1850 ;; Tracked objects:
  1851 ;;		On entry : 0/0
  1852 ;;		On exit  : 0/0
  1853 ;;		Unchanged: 0/0
  1854 ;; Data sizes:     COMRAM   BANK0   BANK1   BANK2
  1855 ;;      Params:         3       0       0       0
  1856 ;;      Locals:         1       0       0       0
  1857 ;;      Temps:          0       0       0       0
  1858 ;;      Totals:         4       0       0       0
  1859 ;;Total ram usage:        4 bytes
  1860 ;; Hardware stack levels used: 1
  1861 ;; Hardware stack levels required when called: 1
  1862 ;; This function calls:
  1863 ;;		Nothing
  1864 ;; This function is called by:
  1865 ;;		_UsbPutString03
  1866 ;;		_UsbPutString01
  1867 ;; This function uses a non-reentrant model
  1868 ;;
  1869                           
  1870                           	psect	text5
  1871   002214                     __ptext5:
  1872                           	callstack 0
  1873   002214                     _skStrlen:
  1874                           	callstack 27
  1875   002214                     
  1876                           ;main.c: 384: uint8_t skStrlen(char *str, uint8_t flg);main.c: 385: {;main.c: 386:     u
      +                          int8_t rtn;;main.c: 387:     uint8_t i;;main.c: 389:     rtn = 0;
  1877   002214  0E00               	movlw	0
  1878   002216  6E04               	movwf	skStrlen@rtn^0,c
  1879                           
  1880                           ;main.c: 390:     while( *str != (char)((void*)0) )
  1881   002218  EF11  F011         	goto	l4573
  1882   00221C                     l4571:
  1883                           
  1884                           ;main.c: 391:     {;main.c: 392:         str ++;
  1885   00221C  4A01               	infsnz	skStrlen@str^0,f,c
  1886   00221E  2A02               	incf	(skStrlen@str+1)^0,f,c
  1887                           
  1888                           ;main.c: 393:         rtn ++;
  1889   002220  2A04               	incf	skStrlen@rtn^0,f,c
  1890   002222                     l4573:
  1891                           
  1892                           ;main.c: 390:     while( *str != (char)((void*)0) )
  1893   002222  C001  FFD9         	movff	skStrlen@str,fsr2l
  1894   002226  C002  FFDA         	movff	skStrlen@str+1,fsr2h
  1895   00222A  50DF               	movf	indf2,w,c
  1896   00222C  A4D8               	btfss	status,2,c
  1897   00222E  EF1B  F011         	goto	u3251
  1898   002232  EF1D  F011         	goto	u3250
  1899   002236                     u3251:
  1900   002236  EF0E  F011         	goto	l4571
  1901   00223A                     u3250:
  1902   00223A                     
  1903                           ;main.c: 396:     if( flg == 1){
  1904   00223A  0403               	decf	skStrlen@flg^0,w,c
  1905   00223C  A4D8               	btfss	status,2,c
  1906   00223E  EF23  F011         	goto	u3261
  1907   002242  EF25  F011         	goto	u3260
  1908   002246                     u3261:
  1909   002246  EF3C  F011         	goto	l4589
  1910   00224A                     u3260:
  1911   00224A                     
  1912                           ;main.c: 397:         *str = 0x0d;
  1913   00224A  C001  FFD9         	movff	skStrlen@str,fsr2l
  1914   00224E  C002  FFDA         	movff	skStrlen@str+1,fsr2h
  1915   002252  0E0D               	movlw	13
  1916   002254  6EDF               	movwf	indf2,c
  1917   002256                     
  1918                           ;main.c: 398:         str ++;
  1919   002256  4A01               	infsnz	skStrlen@str^0,f,c
  1920   002258  2A02               	incf	(skStrlen@str+1)^0,f,c
  1921   00225A                     
  1922                           ;main.c: 399:         rtn ++;
  1923   00225A  2A04               	incf	skStrlen@rtn^0,f,c
  1924                           
  1925                           ;main.c: 400:         *str = 0x0a;
  1926   00225C  C001  FFD9         	movff	skStrlen@str,fsr2l
  1927   002260  C002  FFDA         	movff	skStrlen@str+1,fsr2h
  1928   002264  0E0A               	movlw	10
  1929   002266  6EDF               	movwf	indf2,c
  1930   002268                     
  1931                           ;main.c: 401:         str ++;
  1932   002268  4A01               	infsnz	skStrlen@str^0,f,c
  1933   00226A  2A02               	incf	(skStrlen@str+1)^0,f,c
  1934   00226C                     
  1935                           ;main.c: 402:         rtn ++;
  1936   00226C  2A04               	incf	skStrlen@rtn^0,f,c
  1937   00226E                     
  1938                           ;main.c: 403:         *str = 0x00;
  1939   00226E  C001  FFD9         	movff	skStrlen@str,fsr2l
  1940   002272  C002  FFDA         	movff	skStrlen@str+1,fsr2h
  1941   002276  6ADF               	clrf	indf2,c
  1942   002278                     l4589:
  1943                           
  1944                           ;main.c: 406:     return rtn;
  1945   002278  5004               	movf	skStrlen@rtn^0,w,c
  1946   00227A  0012               	return		;funcret
  1947   00227C                     __end_of_skStrlen:
  1948                           	callstack 0
  1949                           
  1950 ;; *************** function _putsUSBUSART *****************
  1951 ;; Defined at:
  1952 ;;		line 618 in file "usb_device_cdc.c"
  1953 ;; Parameters:    Size  Location     Type
  1954 ;;  data            2    0[COMRAM] PTR unsigned char 
  1955 ;;		 -> UsbPutString03@string(30), 
  1956 ;; Auto vars:     Size  Location     Type
  1957 ;;  pData           2    2[COMRAM] PTR unsigned char 
  1958 ;;		 -> UsbPutString03@string(30), 
  1959 ;;  len             1    4[COMRAM] unsigned char 
  1960 ;; Return value:  Size  Location     Type
  1961 ;;                  1    wreg      void 
  1962 ;; Registers used:
  1963 ;;		wreg, fsr2l, fsr2h, status,2, status,0
  1964 ;; Tracked objects:
  1965 ;;		On entry : 0/0
  1966 ;;		On exit  : 0/0
  1967 ;;		Unchanged: 0/0
  1968 ;; Data sizes:     COMRAM   BANK0   BANK1   BANK2
  1969 ;;      Params:         2       0       0       0
  1970 ;;      Locals:         3       0       0       0
  1971 ;;      Temps:          0       0       0       0
  1972 ;;      Totals:         5       0       0       0
  1973 ;;Total ram usage:        5 bytes
  1974 ;; Hardware stack levels used: 1
  1975 ;; Hardware stack levels required when called: 1
  1976 ;; This function calls:
  1977 ;;		Nothing
  1978 ;; This function is called by:
  1979 ;;		_UsbPutString03
  1980 ;;		_UsbPutString01
  1981 ;; This function uses a non-reentrant model
  1982 ;;
  1983                           
  1984                           	psect	text6
  1985   0021AA                     __ptext6:
  1986                           	callstack 0
  1987   0021AA                     _putsUSBUSART:
  1988                           	callstack 27
  1989   0021AA                     
  1990                           ;usb_device_cdc.c: 618: void putsUSBUSART(char *data);usb_device_cdc.c: 619: {;usb_devic
      +                          e_cdc.c: 620:     uint8_t len;;usb_device_cdc.c: 621:     char *pData;;usb_device_cdc.c:
      +                           640:     if(cdc_trf_state != 0)
  1991   0021AA  505A               	movf	_cdc_trf_state^0,w,c
  1992   0021AC  B4D8               	btfsc	status,2,c
  1993   0021AE  EFDB  F010         	goto	u3271
  1994   0021B2  EFDD  F010         	goto	u3270
  1995   0021B6                     u3271:
  1996   0021B6  EFDF  F010         	goto	l4597
  1997   0021BA                     u3270:
  1998   0021BA  EF09  F011         	goto	l704
  1999   0021BE                     l4597:
  2000                           
  2001                           ;usb_device_cdc.c: 649:     len = 0;
  2002   0021BE  0E00               	movlw	0
  2003   0021C0  6E05               	movwf	putsUSBUSART@len^0,c
  2004   0021C2                     
  2005                           ;usb_device_cdc.c: 650:     pData = data;
  2006   0021C2  C001  F003         	movff	putsUSBUSART@data,putsUSBUSART@pData
  2007   0021C6  C002  F004         	movff	putsUSBUSART@data+1,putsUSBUSART@pData+1
  2008   0021CA                     l4601:
  2009                           
  2010                           ;usb_device_cdc.c: 652:     {;usb_device_cdc.c: 653:         len++;
  2011   0021CA  2A05               	incf	putsUSBUSART@len^0,f,c
  2012   0021CC                     
  2013                           ;usb_device_cdc.c: 654:         if(len == 255) break;
  2014   0021CC  2805               	incf	putsUSBUSART@len^0,w,c
  2015   0021CE  A4D8               	btfss	status,2,c
  2016   0021D0  EFEC  F010         	goto	u3281
  2017   0021D4  EFEE  F010         	goto	u3280
  2018   0021D8                     u3281:
  2019   0021D8  EFF0  F010         	goto	l4607
  2020   0021DC                     u3280:
  2021   0021DC  EFFE  F010         	goto	l4609
  2022   0021E0                     l4607:
  2023                           
  2024                           ;usb_device_cdc.c: 655:     }while(*pData++);
  2025   0021E0  C003  FFD9         	movff	putsUSBUSART@pData,fsr2l
  2026   0021E4  C004  FFDA         	movff	putsUSBUSART@pData+1,fsr2h
  2027   0021E8  4A03               	infsnz	putsUSBUSART@pData^0,f,c
  2028   0021EA  2A04               	incf	(putsUSBUSART@pData+1)^0,f,c
  2029   0021EC  50DF               	movf	indf2,w,c
  2030   0021EE  A4D8               	btfss	status,2,c
  2031   0021F0  EFFC  F010         	goto	u3291
  2032   0021F4  EFFE  F010         	goto	u3290
  2033   0021F8                     u3291:
  2034   0021F8  EFE5  F010         	goto	l4601
  2035   0021FC                     u3290:
  2036   0021FC                     l4609:
  2037                           
  2038                           ;usb_device_cdc.c: 662:     { pCDCSrc.bRam = (uint8_t*)data; cdc_tx_len = len; cdc_mem_t
      +                          ype = 0x01; cdc_trf_state = 1; };
  2039   0021FC  C001  F083         	movff	putsUSBUSART@data,_pCDCSrc
  2040   002200  C002  F084         	movff	putsUSBUSART@data+1,_pCDCSrc+1
  2041   002204  C005  F053         	movff	putsUSBUSART@len,_cdc_tx_len
  2042   002208  0E01               	movlw	1
  2043   00220A  0100               	movlb	0	; () banked
  2044   00220C  6F92               	movwf	_cdc_mem_type& (0+255),b
  2045   00220E                     
  2046                           ; BSR set to: 0
  2047   00220E  0E01               	movlw	1
  2048   002210  6E5A               	movwf	_cdc_trf_state^0,c
  2049   002212                     l704:
  2050   002212  0012               	return		;funcret
  2051   002214                     __end_of_putsUSBUSART:
  2052                           	callstack 0
  2053                           
  2054 ;; *************** function _PutString01 *****************
  2055 ;; Defined at:
  2056 ;;		line 234 in file "main.c"
  2057 ;; Parameters:    Size  Location     Type
  2058 ;;  string          2    2[COMRAM] PTR unsigned char 
  2059 ;;		 -> STR_9(13), 
  2060 ;;  flg             2    4[COMRAM] unsigned short 
  2061 ;; Auto vars:     Size  Location     Type
  2062 ;;		None
  2063 ;; Return value:  Size  Location     Type
  2064 ;;                  1    wreg      void 
  2065 ;; Registers used:
  2066 ;;		wreg, fsr1l, fsr1h, status,2, status,0, tblptrl, tblptrh, tblptru, cstack
  2067 ;; Tracked objects:
  2068 ;;		On entry : 0/0
  2069 ;;		On exit  : 0/0
  2070 ;;		Unchanged: 0/0
  2071 ;; Data sizes:     COMRAM   BANK0   BANK1   BANK2
  2072 ;;      Params:         4       0       0       0
  2073 ;;      Locals:         0       0       0       0
  2074 ;;      Temps:          0       0       0       0
  2075 ;;      Totals:         4       0       0       0
  2076 ;;Total ram usage:        4 bytes
  2077 ;; Hardware stack levels used: 1
  2078 ;; Hardware stack levels required when called: 2
  2079 ;; This function calls:
  2080 ;;		_PutString
  2081 ;;		_PutStringLF
  2082 ;; This function is called by:
  2083 ;;		_UsbPutString03
  2084 ;; This function uses a non-reentrant model
  2085 ;;
  2086                           
  2087                           	psect	text7
  2088   002748                     __ptext7:
  2089                           	callstack 0
  2090   002748                     _PutString01:
  2091                           	callstack 26
  2092   002748                     
  2093                           ;main.c: 234: void PutString01(char *string,uint16_t flg);main.c: 235: {;main.c: 236:   
      +                            PutString(string);
  2094   002748  C003  F001         	movff	PutString01@string,PutString@string
  2095   00274C  C004  F002         	movff	PutString01@string+1,PutString@string+1
  2096   002750  EC9F  F010         	call	_PutString	;wreg free
  2097   002754                     
  2098                           ;main.c: 237:     if(flg == 1)
  2099   002754  0405               	decf	PutString01@flg^0,w,c
  2100   002756  1006               	iorwf	(PutString01@flg+1)^0,w,c
  2101   002758  A4D8               	btfss	status,2,c
  2102   00275A  EFB1  F013         	goto	u3031
  2103   00275E  EFB3  F013         	goto	u3030
  2104   002762                     u3031:
  2105   002762  EFB5  F013         	goto	l112
  2106   002766                     u3030:
  2107   002766                     
  2108                           ;main.c: 238:         PutStringLF();
  2109   002766  EC7C  F013         	call	_PutStringLF	;wreg free
  2110   00276A                     l112:
  2111   00276A  0012               	return		;funcret
  2112   00276C                     __end_of_PutString01:
  2113                           	callstack 0
  2114                           
  2115 ;; *************** function _CDCTxService *****************
  2116 ;; Defined at:
  2117 ;;		line 814 in file "usb_device_cdc.c"
  2118 ;; Parameters:    Size  Location     Type
  2119 ;;		None
  2120 ;; Auto vars:     Size  Location     Type
  2121 ;;  byte_to_send    1   12[COMRAM] unsigned char 
  2122 ;;  i               1   11[COMRAM] unsigned char 
  2123 ;; Return value:  Size  Location     Type
  2124 ;;                  1    wreg      void 
  2125 ;; Registers used:
  2126 ;;		wreg, fsr1l, fsr1h, fsr2l, fsr2h, status,2, status,0, prodl, prodh, cstack
  2127 ;; Tracked objects:
  2128 ;;		On entry : 0/0
  2129 ;;		On exit  : 0/0
  2130 ;;		Unchanged: 0/0
  2131 ;; Data sizes:     COMRAM   BANK0   BANK1   BANK2
  2132 ;;      Params:         0       0       0       0
  2133 ;;      Locals:         2       0       0       0
  2134 ;;      Temps:          0       0       0       0
  2135 ;;      Totals:         2       0       0       0
  2136 ;;Total ram usage:        2 bytes
  2137 ;; Hardware stack levels used: 1
  2138 ;; Hardware stack levels required when called: 2
  2139 ;; This function calls:
  2140 ;;		_USBTransferOnePacket
  2141 ;; This function is called by:
  2142 ;;		_UsbPutString03
  2143 ;;		_ProcessUSB
  2144 ;;		_UsbPutString01
  2145 ;;		_APP_DeviceCDCBasicDemoTasks
  2146 ;; This function uses a non-reentrant model
  2147 ;;
  2148                           
  2149                           	psect	text8
  2150   0007CC                     __ptext8:
  2151                           	callstack 0
  2152   0007CC                     _CDCTxService:
  2153                           	callstack 26
  2154   0007CC                     
  2155                           ;usb_device_cdc.c: 816:     uint8_t byte_to_send;;usb_device_cdc.c: 817:     uint8_t i;;
      +                          usb_device_cdc.c: 821:     {};;usb_device_cdc.c: 823:     if(((CDCDataInHandle != 0x0000
      +                          ) && ((*(volatile uint8_t*)CDCDataInHandle & 0x80) != 0x00)))
  2156   0007CC  0100               	movlb	0	; () banked
  2157   0007CE  518C               	movf	_CDCDataInHandle& (0+255),w,b
  2158   0007D0  118D               	iorwf	(_CDCDataInHandle+1)& (0+255),w,b
  2159   0007D2  B4D8               	btfsc	status,2,c
  2160   0007D4  EFEE  F003         	goto	u3101
  2161   0007D8  EFF0  F003         	goto	u3100
  2162   0007DC                     u3101:
  2163   0007DC  EFFD  F003         	goto	l4437
  2164   0007E0                     u3100:
  2165   0007E0                     
  2166                           ; BSR set to: 0
  2167   0007E0  C08C  FFD9         	movff	_CDCDataInHandle,fsr2l
  2168   0007E4  C08D  FFDA         	movff	_CDCDataInHandle+1,fsr2h
  2169   0007E8  AEDF               	btfss	indf2,7,c
  2170   0007EA  EFF9  F003         	goto	u3111
  2171   0007EE  EFFB  F003         	goto	u3110
  2172   0007F2                     u3111:
  2173   0007F2  EFFD  F003         	goto	l4437
  2174   0007F6                     u3110:
  2175   0007F6  EFAD  F004         	goto	l718
  2176   0007FA                     l4437:
  2177                           
  2178                           ; BSR set to: 0
  2179                           ;usb_device_cdc.c: 837:     if(cdc_trf_state == 3)
  2180   0007FA  0E03               	movlw	3
  2181   0007FC  185A               	xorwf	_cdc_trf_state^0,w,c
  2182   0007FE  A4D8               	btfss	status,2,c
  2183   000800  EF04  F004         	goto	u3121
  2184   000804  EF06  F004         	goto	u3120
  2185   000808                     u3121:
  2186   000808  EF08  F004         	goto	l719
  2187   00080C                     u3120:
  2188   00080C                     
  2189                           ; BSR set to: 0
  2190                           ;usb_device_cdc.c: 838:         cdc_trf_state = 0;
  2191   00080C  0E00               	movlw	0
  2192   00080E  6E5A               	movwf	_cdc_trf_state^0,c
  2193   000810                     l719:
  2194                           
  2195                           ; BSR set to: 0
  2196                           ;usb_device_cdc.c: 844:     if(cdc_trf_state == 0)
  2197   000810  505A               	movf	_cdc_trf_state^0,w,c
  2198   000812  A4D8               	btfss	status,2,c
  2199   000814  EF0E  F004         	goto	u3131
  2200   000818  EF10  F004         	goto	u3130
  2201   00081C                     u3131:
  2202   00081C  EF12  F004         	goto	l4443
  2203   000820                     u3130:
  2204   000820  EFAD  F004         	goto	l718
  2205   000824                     l4443:
  2206                           
  2207                           ; BSR set to: 0
  2208                           ;usb_device_cdc.c: 854:     if(cdc_trf_state == 2)
  2209   000824  0E02               	movlw	2
  2210   000826  185A               	xorwf	_cdc_trf_state^0,w,c
  2211   000828  A4D8               	btfss	status,2,c
  2212   00082A  EF19  F004         	goto	u3141
  2213   00082E  EF1B  F004         	goto	u3140
  2214   000832                     u3141:
  2215   000832  EF2E  F004         	goto	l4449
  2216   000836                     u3140:
  2217   000836                     
  2218                           ; BSR set to: 0
  2219                           ;usb_device_cdc.c: 855:     {;usb_device_cdc.c: 856:         CDCDataInHandle = USBTransf
      +                          erOnePacket(2,1,((void*)0),0);
  2220   000836  0E01               	movlw	1
  2221   000838  6E01               	movwf	USBTransferOnePacket@dir^0,c
  2222   00083A  0E00               	movlw	0
  2223   00083C  6E02               	movwf	USBTransferOnePacket@data^0,c
  2224   00083E  0E00               	movlw	0
  2225   000840  6E03               	movwf	(USBTransferOnePacket@data+1)^0,c
  2226   000842  0E00               	movlw	0
  2227   000844  6E04               	movwf	USBTransferOnePacket@len^0,c
  2228   000846  0E02               	movlw	2
  2229   000848  ECA4  F008         	call	_USBTransferOnePacket
  2230   00084C  C001  F08C         	movff	?_USBTransferOnePacket,_CDCDataInHandle
  2231   000850  C002  F08D         	movff	?_USBTransferOnePacket+1,_CDCDataInHandle+1
  2232   000854                     
  2233                           ;usb_device_cdc.c: 858:         cdc_trf_state = 3;
  2234   000854  0E03               	movlw	3
  2235   000856  6E5A               	movwf	_cdc_trf_state^0,c
  2236                           
  2237                           ;usb_device_cdc.c: 859:     }
  2238   000858  EFAD  F004         	goto	l718
  2239   00085C                     l4449:
  2240                           
  2241                           ; BSR set to: 0
  2242   00085C  045A               	decf	_cdc_trf_state^0,w,c
  2243   00085E  A4D8               	btfss	status,2,c
  2244   000860  EF34  F004         	goto	u3151
  2245   000864  EF36  F004         	goto	u3150
  2246   000868                     u3151:
  2247   000868  EFAD  F004         	goto	l718
  2248   00086C                     u3150:
  2249   00086C                     
  2250                           ; BSR set to: 0
  2251                           ;usb_device_cdc.c: 861:     {;usb_device_cdc.c: 866:      if(cdc_tx_len > sizeof(cdc_dat
      +                          a_tx))
  2252   00086C  0E40               	movlw	64
  2253   00086E  6453               	cpfsgt	_cdc_tx_len^0,c
  2254   000870  EF3C  F004         	goto	u3161
  2255   000874  EF3E  F004         	goto	u3160
  2256   000878                     u3161:
  2257   000878  EF42  F004         	goto	l724
  2258   00087C                     u3160:
  2259   00087C                     
  2260                           ; BSR set to: 0
  2261                           ;usb_device_cdc.c: 867:          byte_to_send = sizeof(cdc_data_tx);
  2262   00087C  0E40               	movlw	64
  2263   00087E  6E0D               	movwf	CDCTxService@byte_to_send^0,c
  2264   000880  EF44  F004         	goto	l4455
  2265   000884                     l724:
  2266                           
  2267                           ; BSR set to: 0
  2268                           ;usb_device_cdc.c: 869:          byte_to_send = cdc_tx_len;
  2269   000884  C053  F00D         	movff	_cdc_tx_len,CDCTxService@byte_to_send
  2270   000888                     l4455:
  2271                           
  2272                           ; BSR set to: 0
  2273                           ;usb_device_cdc.c: 875:      cdc_tx_len = cdc_tx_len - byte_to_send;
  2274   000888  500D               	movf	CDCTxService@byte_to_send^0,w,c
  2275   00088A  5C53               	subwf	_cdc_tx_len^0,w,c
  2276   00088C  6E53               	movwf	_cdc_tx_len^0,c
  2277                           
  2278                           ;usb_device_cdc.c: 877:         pCDCDst.bRam = (uint8_t*)&cdc_data_tx;
  2279   00088E  0E40               	movlw	64
  2280   000890  6F80               	movwf	_pCDCDst& (0+255),b
  2281   000892  0E02               	movlw	2
  2282   000894  6F81               	movwf	(_pCDCDst+1)& (0+255),b
  2283   000896                     
  2284                           ; BSR set to: 0
  2285                           ;usb_device_cdc.c: 879:         i = byte_to_send;
  2286   000896  C00D  F00C         	movff	CDCTxService@byte_to_send,CDCTxService@i
  2287   00089A                     
  2288                           ; BSR set to: 0
  2289                           ;usb_device_cdc.c: 880:         if(cdc_mem_type == 0x00)
  2290   00089A  5192               	movf	_cdc_mem_type& (0+255),w,b
  2291   00089C  A4D8               	btfss	status,2,c
  2292   00089E  EF53  F004         	goto	u3171
  2293   0008A2  EF55  F004         	goto	u3170
  2294   0008A6                     u3171:
  2295   0008A6  EF7F  F004         	goto	l4481
  2296   0008AA                     u3170:
  2297   0008AA  EF66  F004         	goto	l4471
  2298   0008AE                     l4463:
  2299                           
  2300                           ; BSR set to: 0
  2301                           ;usb_device_cdc.c: 883:             {;usb_device_cdc.c: 884:                 *pCDCDst.bR
      +                          am = *pCDCSrc.bRom;
  2302   0008AE  C083  FFD9         	movff	_pCDCSrc,fsr2l
  2303   0008B2  C084  FFDA         	movff	_pCDCSrc+1,fsr2h
  2304   0008B6  C080  FFE1         	movff	_pCDCDst,fsr1l
  2305   0008BA  C081  FFE2         	movff	_pCDCDst+1,fsr1h
  2306   0008BE  CFDF FFE7          	movff	indf2,indf1
  2307   0008C2                     
  2308                           ; BSR set to: 0
  2309                           ;usb_device_cdc.c: 885:                 pCDCDst.bRam++;
  2310   0008C2  4B80               	infsnz	_pCDCDst& (0+255),f,b
  2311   0008C4  2B81               	incf	(_pCDCDst+1)& (0+255),f,b
  2312   0008C6                     
  2313                           ; BSR set to: 0
  2314                           ;usb_device_cdc.c: 886:                 pCDCSrc.bRom++;
  2315   0008C6  4B83               	infsnz	_pCDCSrc& (0+255),f,b
  2316   0008C8  2B84               	incf	(_pCDCSrc+1)& (0+255),f,b
  2317   0008CA                     
  2318                           ; BSR set to: 0
  2319                           ;usb_device_cdc.c: 887:                 i--;
  2320   0008CA  060C               	decf	CDCTxService@i^0,f,c
  2321   0008CC                     l4471:
  2322                           
  2323                           ; BSR set to: 0
  2324                           ;usb_device_cdc.c: 882:             while(i)
  2325   0008CC  500C               	movf	CDCTxService@i^0,w,c
  2326   0008CE  A4D8               	btfss	status,2,c
  2327   0008D0  EF6C  F004         	goto	u3181
  2328   0008D4  EF6E  F004         	goto	u3180
  2329   0008D8                     u3181:
  2330   0008D8  EF57  F004         	goto	l4463
  2331   0008DC                     u3180:
  2332   0008DC  EF87  F004         	goto	l4483
  2333   0008E0                     l4473:
  2334                           
  2335                           ; BSR set to: 0
  2336                           ;usb_device_cdc.c: 893:             {;usb_device_cdc.c: 894:                 *pCDCDst.bR
      +                          am = *pCDCSrc.bRam;
  2337   0008E0  C083  FFD9         	movff	_pCDCSrc,fsr2l
  2338   0008E4  C084  FFDA         	movff	_pCDCSrc+1,fsr2h
  2339   0008E8  C080  FFE1         	movff	_pCDCDst,fsr1l
  2340   0008EC  C081  FFE2         	movff	_pCDCDst+1,fsr1h
  2341   0008F0  CFDF FFE7          	movff	indf2,indf1
  2342   0008F4                     
  2343                           ; BSR set to: 0
  2344                           ;usb_device_cdc.c: 895:                 pCDCDst.bRam++;
  2345   0008F4  4B80               	infsnz	_pCDCDst& (0+255),f,b
  2346   0008F6  2B81               	incf	(_pCDCDst+1)& (0+255),f,b
  2347   0008F8                     
  2348                           ; BSR set to: 0
  2349                           ;usb_device_cdc.c: 896:                 pCDCSrc.bRam++;
  2350   0008F8  4B83               	infsnz	_pCDCSrc& (0+255),f,b
  2351   0008FA  2B84               	incf	(_pCDCSrc+1)& (0+255),f,b
  2352   0008FC                     
  2353                           ; BSR set to: 0
  2354                           ;usb_device_cdc.c: 897:                 i--;
  2355   0008FC  060C               	decf	CDCTxService@i^0,f,c
  2356   0008FE                     l4481:
  2357                           
  2358                           ; BSR set to: 0
  2359                           ;usb_device_cdc.c: 892:             while(i)
  2360   0008FE  500C               	movf	CDCTxService@i^0,w,c
  2361   000900  A4D8               	btfss	status,2,c
  2362   000902  EF85  F004         	goto	u3191
  2363   000906  EF87  F004         	goto	u3190
  2364   00090A                     u3191:
  2365   00090A  EF70  F004         	goto	l4473
  2366   00090E                     u3190:
  2367   00090E                     l4483:
  2368                           
  2369                           ; BSR set to: 0
  2370                           ;usb_device_cdc.c: 907:         if(cdc_tx_len == 0)
  2371   00090E  5053               	movf	_cdc_tx_len^0,w,c
  2372   000910  A4D8               	btfss	status,2,c
  2373   000912  EF8D  F004         	goto	u3201
  2374   000916  EF8F  F004         	goto	u3200
  2375   00091A                     u3201:
  2376   00091A  EF9E  F004         	goto	l4491
  2377   00091E                     u3200:
  2378   00091E                     
  2379                           ; BSR set to: 0
  2380                           ;usb_device_cdc.c: 908:         {;usb_device_cdc.c: 909:             if(byte_to_send == 
      +                          64)
  2381   00091E  0E40               	movlw	64
  2382   000920  180D               	xorwf	CDCTxService@byte_to_send^0,w,c
  2383   000922  A4D8               	btfss	status,2,c
  2384   000924  EF96  F004         	goto	u3211
  2385   000928  EF98  F004         	goto	u3210
  2386   00092C                     u3211:
  2387   00092C  EF9C  F004         	goto	l4489
  2388   000930                     u3210:
  2389   000930                     
  2390                           ; BSR set to: 0
  2391                           ;usb_device_cdc.c: 910:                 cdc_trf_state = 2;
  2392   000930  0E02               	movlw	2
  2393   000932  6E5A               	movwf	_cdc_trf_state^0,c
  2394   000934  EF9E  F004         	goto	l4491
  2395   000938                     l4489:
  2396                           
  2397                           ; BSR set to: 0
  2398                           ;usb_device_cdc.c: 912:                 cdc_trf_state = 3;
  2399   000938  0E03               	movlw	3
  2400   00093A  6E5A               	movwf	_cdc_trf_state^0,c
  2401   00093C                     l4491:
  2402                           
  2403                           ; BSR set to: 0
  2404                           ;usb_device_cdc.c: 914:         CDCDataInHandle = USBTransferOnePacket(2,1,(uint8_t*)&cd
      +                          c_data_tx,byte_to_send);
  2405   00093C  0E01               	movlw	1
  2406   00093E  6E01               	movwf	USBTransferOnePacket@dir^0,c
  2407   000940  0E40               	movlw	64
  2408   000942  6E02               	movwf	USBTransferOnePacket@data^0,c
  2409   000944  0E02               	movlw	2
  2410   000946  6E03               	movwf	(USBTransferOnePacket@data+1)^0,c
  2411   000948  C00D  F004         	movff	CDCTxService@byte_to_send,USBTransferOnePacket@len
  2412   00094C  0E02               	movlw	2
  2413   00094E  ECA4  F008         	call	_USBTransferOnePacket
  2414   000952  C001  F08C         	movff	?_USBTransferOnePacket,_CDCDataInHandle
  2415   000956  C002  F08D         	movff	?_USBTransferOnePacket+1,_CDCDataInHandle+1
  2416   00095A                     l718:
  2417   00095A  0012               	return		;funcret
  2418   00095C                     __end_of_CDCTxService:
  2419                           	callstack 0
  2420                           
  2421 ;; *************** function _USBDeviceTasks *****************
  2422 ;; Defined at:
  2423 ;;		line 432 in file "usb_device.c"
  2424 ;; Parameters:    Size  Location     Type
  2425 ;;		None
  2426 ;; Auto vars:     Size  Location     Type
  2427 ;;  i               1   32[COMRAM] unsigned char 
  2428 ;; Return value:  Size  Location     Type
  2429 ;;                  1    wreg      void 
  2430 ;; Registers used:
  2431 ;;		wreg, fsr1l, fsr1h, fsr2l, fsr2h, status,2, status,0, tblptrl, tblptrh, tblptru, prodl, prodh, cstack
  2432 ;; Tracked objects:
  2433 ;;		On entry : 0/0
  2434 ;;		On exit  : 0/0
  2435 ;;		Unchanged: 0/0
  2436 ;; Data sizes:     COMRAM   BANK0   BANK1   BANK2
  2437 ;;      Params:         0       0       0       0
  2438 ;;      Locals:         1       0       0       0
  2439 ;;      Temps:          0       0       0       0
  2440 ;;      Totals:         1       0       0       0
  2441 ;;Total ram usage:        1 bytes
  2442 ;; Hardware stack levels used: 1
  2443 ;; Hardware stack levels required when called: 9
  2444 ;; This function calls:
  2445 ;;		_USBCtrlEPAllowStatusStage
  2446 ;;		_USBCtrlEPService
  2447 ;;		_USBDeviceInit
  2448 ;;		_USBIncrement1msInternalTimers
  2449 ;;		_USBStallHandler
  2450 ;;		_USBSuspend
  2451 ;;		_USBWakeFromSuspend
  2452 ;;		_USER_USB_CALLBACK_EVENT_HANDLER
  2453 ;; This function is called by:
  2454 ;;		_main
  2455 ;;		_skUSB_ini
  2456 ;; This function uses a non-reentrant model
  2457 ;;
  2458                           
  2459                           	psect	text9
  2460   00036C                     __ptext9:
  2461                           	callstack 0
  2462   00036C                     _USBDeviceTasks:
  2463                           	callstack 20
  2464   00036C                     
  2465                           ;usb_device.c: 521:     if(USBDeviceState == DETACHED_STATE)
  2466   00036C  505B               	movf	_USBDeviceState^0,w,c
  2467   00036E  A4D8               	btfss	status,2,c
  2468   000370  EFBC  F001         	goto	u3391
  2469   000374  EFBE  F001         	goto	u3390
  2470   000378                     u3391:
  2471   000378  EFD5  F001         	goto	l4701
  2472   00037C                     u3390:
  2473   00037C                     
  2474                           ;usb_device.c: 522:     {;usb_device.c: 524:         UCON = 0;
  2475   00037C  0E00               	movlw	0
  2476   00037E  6E64               	movwf	100,c	;volatile
  2477                           
  2478                           ;usb_device.c: 527:         UIE = 0;
  2479   000380  0E00               	movlw	0
  2480   000382  6E60               	movwf	96,c	;volatile
  2481                           
  2482                           ;usb_device.c: 531:         { UCFG = 0x10 | 0x00 | 0x04 | 0x02; UEIE = 0x9F; UIE = 0x39 
      +                          | 0x40 | 0x02; };
  2483   000384  0E16               	movlw	22
  2484   000386  6E61               	movwf	97,c	;volatile
  2485   000388  0E9F               	movlw	159
  2486   00038A  010F               	movlb	15	; () banked
  2487   00038C  6F5B               	movwf	91,b	;volatile
  2488   00038E  0E7B               	movlw	123
  2489   000390  6E60               	movwf	96,c	;volatile
  2490                           
  2491                           ;usb_device.c: 534:         while(!UCONbits.USBEN){UCONbits.USBEN = 1;}
  2492   000392  EFCC  F001         	goto	l380
  2493   000396                     l381:
  2494   000396  8664               	bsf	100,3,c	;volatile
  2495   000398                     l380:
  2496   000398  A664               	btfss	100,3,c	;volatile
  2497   00039A  EFD1  F001         	goto	u3401
  2498   00039E  EFD3  F001         	goto	u3400
  2499   0003A2                     u3401:
  2500   0003A2  EFCB  F001         	goto	l381
  2501   0003A6                     u3400:
  2502   0003A6                     
  2503                           ;usb_device.c: 537:         USBDeviceState = ATTACHED_STATE;
  2504   0003A6  0E01               	movlw	1
  2505   0003A8  6E5B               	movwf	_USBDeviceState^0,c
  2506   0003AA                     l4701:
  2507                           
  2508                           ;usb_device.c: 545:     if(USBDeviceState == ATTACHED_STATE)
  2509   0003AA  045B               	decf	_USBDeviceState^0,w,c
  2510   0003AC  A4D8               	btfss	status,2,c
  2511   0003AE  EFDB  F001         	goto	u3411
  2512   0003B2  EFDD  F001         	goto	u3410
  2513   0003B6                     u3411:
  2514   0003B6  EFEC  F001         	goto	l4711
  2515   0003BA                     u3410:
  2516   0003BA                     
  2517                           ;usb_device.c: 546:     {;usb_device.c: 556:         if(!UCONbits.SE0)
  2518   0003BA  BA64               	btfsc	100,5,c	;volatile
  2519   0003BC  EFE2  F001         	goto	u3421
  2520   0003C0  EFE4  F001         	goto	u3420
  2521   0003C4                     u3421:
  2522   0003C4  EFEC  F001         	goto	l4711
  2523   0003C8                     u3420:
  2524   0003C8                     
  2525                           ;usb_device.c: 557:         {;usb_device.c: 563:                 {UIR = 0;};
  2526   0003C8  0E00               	movlw	0
  2527   0003CA  6E62               	movwf	98,c	;volatile
  2528                           
  2529                           ;usb_device.c: 567:                 UIE=0;
  2530   0003CC  0E00               	movlw	0
  2531   0003CE  6E60               	movwf	96,c	;volatile
  2532   0003D0                     
  2533                           ;usb_device.c: 569:             UIEbits.URSTIE = 1;
  2534   0003D0  8060               	bsf	96,0,c	;volatile
  2535   0003D2                     
  2536                           ;usb_device.c: 570:             UIEbits.IDLEIE = 1;
  2537   0003D2  8860               	bsf	96,4,c	;volatile
  2538                           
  2539                           ;usb_device.c: 571:             USBDeviceState = POWERED_STATE;
  2540   0003D4  0E02               	movlw	2
  2541   0003D6  6E5B               	movwf	_USBDeviceState^0,c
  2542   0003D8                     l4711:
  2543                           
  2544                           ;usb_device.c: 589:     if(UIRbits.ACTVIF && UIEbits.ACTVIE)
  2545   0003D8  A462               	btfss	98,2,c	;volatile
  2546   0003DA  EFF1  F001         	goto	u3431
  2547   0003DE  EFF3  F001         	goto	u3430
  2548   0003E2                     u3431:
  2549   0003E2  EFFD  F001         	goto	l4719
  2550   0003E6                     u3430:
  2551   0003E6  A460               	btfss	96,2,c	;volatile
  2552   0003E8  EFF8  F001         	goto	u3441
  2553   0003EC  EFFA  F001         	goto	u3440
  2554   0003F0                     u3441:
  2555   0003F0  EFFD  F001         	goto	l4719
  2556   0003F4                     u3440:
  2557   0003F4                     
  2558                           ;usb_device.c: 590:     {;usb_device.c: 591:         (UIR &= 0xFB);
  2559   0003F4  9462               	bcf	98,2,c	;volatile
  2560   0003F6                     
  2561                           ;usb_device.c: 595:             USBWakeFromSuspend();
  2562   0003F6  ECF8  F012         	call	_USBWakeFromSuspend	;wreg free
  2563   0003FA                     l4719:
  2564                           
  2565                           ;usb_device.c: 602:     if(UCONbits.SUSPND==1)
  2566   0003FA  A264               	btfss	100,1,c	;volatile
  2567   0003FC  EF02  F002         	goto	u3451
  2568   000400  EF04  F002         	goto	u3450
  2569   000404                     u3451:
  2570   000404  EF07  F002         	goto	l386
  2571   000408                     u3450:
  2572   000408                     
  2573                           ;usb_device.c: 603:     {;usb_device.c: 604:         {PIR2bits.USBIF = 0;};
  2574   000408  94A1               	bcf	161,2,c	;volatile
  2575                           
  2576                           ;usb_device.c: 605:         return;
  2577   00040A  EFEA  F002         	goto	l378
  2578   00040E                     l386:
  2579                           
  2580                           ;usb_device.c: 618:     if(UIRbits.URSTIF && UIEbits.URSTIE)
  2581   00040E  A062               	btfss	98,0,c	;volatile
  2582   000410  EF0C  F002         	goto	u3461
  2583   000414  EF0E  F002         	goto	u3460
  2584   000418                     u3461:
  2585   000418  EF1A  F002         	goto	l4731
  2586   00041C                     u3460:
  2587   00041C  A060               	btfss	96,0,c	;volatile
  2588   00041E  EF13  F002         	goto	u3471
  2589   000422  EF15  F002         	goto	u3470
  2590   000426                     u3471:
  2591   000426  EF1A  F002         	goto	l4731
  2592   00042A                     u3470:
  2593   00042A                     
  2594                           ;usb_device.c: 619:     {;usb_device.c: 620:         USBDeviceInit();
  2595   00042A  EC5F  F007         	call	_USBDeviceInit	;wreg free
  2596   00042E                     
  2597                           ;usb_device.c: 626:         USBDeviceState = DEFAULT_STATE;
  2598   00042E  0E04               	movlw	4
  2599   000430  6E5B               	movwf	_USBDeviceState^0,c
  2600   000432                     
  2601                           ;usb_device.c: 636:         (UIR &= 0xFE);
  2602   000432  9062               	bcf	98,0,c	;volatile
  2603   000434                     l4731:
  2604                           
  2605                           ;usb_device.c: 642:     if(UIRbits.IDLEIF && UIEbits.IDLEIE)
  2606   000434  A862               	btfss	98,4,c	;volatile
  2607   000436  EF1F  F002         	goto	u3481
  2608   00043A  EF21  F002         	goto	u3480
  2609   00043E                     u3481:
  2610   00043E  EF2A  F002         	goto	l4737
  2611   000442                     u3480:
  2612   000442  A860               	btfss	96,4,c	;volatile
  2613   000444  EF26  F002         	goto	u3491
  2614   000448  EF28  F002         	goto	u3490
  2615   00044C                     u3491:
  2616   00044C  EF2A  F002         	goto	l4737
  2617   000450                     u3490:
  2618   000450                     
  2619                           ;usb_device.c: 643:     {;usb_device.c: 649:             USBSuspend();
  2620   000450  EC4E  F013         	call	_USBSuspend	;wreg free
  2621   000454                     l4737:
  2622                           
  2623                           ;usb_device.c: 663:     if(UIRbits.SOFIF)
  2624   000454  AC62               	btfss	98,6,c	;volatile
  2625   000456  EF2F  F002         	goto	u3501
  2626   00045A  EF31  F002         	goto	u3500
  2627   00045E                     u3501:
  2628   00045E  EF5C  F002         	goto	l4755
  2629   000462                     u3500:
  2630   000462                     
  2631                           ;usb_device.c: 664:     {;usb_device.c: 666:         if(UIEbits.SOFIE)
  2632   000462  AC60               	btfss	96,6,c	;volatile
  2633   000464  EF36  F002         	goto	u3511
  2634   000468  EF38  F002         	goto	u3510
  2635   00046C                     u3511:
  2636   00046C  EF46  F002         	goto	l4743
  2637   000470                     u3510:
  2638   000470                     
  2639                           ;usb_device.c: 667:         {;usb_device.c: 668:             USER_USB_CALLBACK_EVENT_HAN
      +                          DLER((USB_EVENT)EVENT_SOF,0,1);
  2640   000470  0E00               	movlw	0
  2641   000472  6E10               	movwf	(USER_USB_CALLBACK_EVENT_HANDLER@event+1)^0,c
  2642   000474  0E73               	movlw	115
  2643   000476  6E0F               	movwf	USER_USB_CALLBACK_EVENT_HANDLER@event^0,c
  2644   000478  0E00               	movlw	0
  2645   00047A  6E11               	movwf	USER_USB_CALLBACK_EVENT_HANDLER@pdata^0,c
  2646   00047C  0E00               	movlw	0
  2647   00047E  6E12               	movwf	(USER_USB_CALLBACK_EVENT_HANDLER@pdata+1)^0,c
  2648   000480  0E00               	movlw	0
  2649   000482  6E14               	movwf	(USER_USB_CALLBACK_EVENT_HANDLER@size+1)^0,c
  2650   000484  0E01               	movlw	1
  2651   000486  6E13               	movwf	USER_USB_CALLBACK_EVENT_HANDLER@size^0,c
  2652   000488  EC86  F00E         	call	_USER_USB_CALLBACK_EVENT_HANDLER	;wreg free
  2653   00048C                     l4743:
  2654                           
  2655                           ;usb_device.c: 670:         (UIR &= 0xBF);
  2656   00048C  9C62               	bcf	98,6,c	;volatile
  2657   00048E                     
  2658                           ;usb_device.c: 673:             USBIncrement1msInternalTimers();
  2659   00048E  EC34  F013         	call	_USBIncrement1msInternalTimers	;wreg free
  2660   000492                     
  2661                           ;usb_device.c: 690:             if(USBStatusStageTimeoutCounter != 0u)
  2662   000492  5056               	movf	_USBStatusStageTimeoutCounter^0,w,c
  2663   000494  B4D8               	btfsc	status,2,c
  2664   000496  EF4F  F002         	goto	u3521
  2665   00049A  EF51  F002         	goto	u3520
  2666   00049E                     u3521:
  2667   00049E  EF52  F002         	goto	l4751
  2668   0004A2                     u3520:
  2669   0004A2                     
  2670                           ;usb_device.c: 691:             {;usb_device.c: 692:                 USBStatusStageTimeo
      +                          utCounter--;
  2671   0004A2  0656               	decf	_USBStatusStageTimeoutCounter^0,f,c
  2672   0004A4                     l4751:
  2673                           
  2674                           ;usb_device.c: 699:             if(USBStatusStageTimeoutCounter == 0)
  2675   0004A4  5056               	movf	_USBStatusStageTimeoutCounter^0,w,c
  2676   0004A6  A4D8               	btfss	status,2,c
  2677   0004A8  EF58  F002         	goto	u3531
  2678   0004AC  EF5A  F002         	goto	u3530
  2679   0004B0                     u3531:
  2680   0004B0  EF5C  F002         	goto	l4755
  2681   0004B4                     u3530:
  2682   0004B4                     
  2683                           ;usb_device.c: 700:             {;usb_device.c: 701:                 USBCtrlEPAllowStatu
      +                          sStage();
  2684   0004B4  ECE7  F00C         	call	_USBCtrlEPAllowStatusStage	;wreg free
  2685   0004B8                     l4755:
  2686                           
  2687                           ;usb_device.c: 706:     if(UIRbits.STALLIF && UIEbits.STALLIE)
  2688   0004B8  AA62               	btfss	98,5,c	;volatile
  2689   0004BA  EF61  F002         	goto	u3541
  2690   0004BE  EF63  F002         	goto	u3540
  2691   0004C2                     u3541:
  2692   0004C2  EF6C  F002         	goto	l4761
  2693   0004C6                     u3540:
  2694   0004C6  AA60               	btfss	96,5,c	;volatile
  2695   0004C8  EF68  F002         	goto	u3551
  2696   0004CC  EF6A  F002         	goto	u3550
  2697   0004D0                     u3551:
  2698   0004D0  EF6C  F002         	goto	l4761
  2699   0004D4                     u3550:
  2700   0004D4                     
  2701                           ;usb_device.c: 707:     {;usb_device.c: 708:         USBStallHandler();
  2702   0004D4  EC70  F011         	call	_USBStallHandler	;wreg free
  2703   0004D8                     l4761:
  2704                           
  2705                           ;usb_device.c: 711:     if(UIRbits.UERRIF && UIEbits.UERRIE)
  2706   0004D8  A262               	btfss	98,1,c	;volatile
  2707   0004DA  EF71  F002         	goto	u3561
  2708   0004DE  EF73  F002         	goto	u3560
  2709   0004E2                     u3561:
  2710   0004E2  EF8A  F002         	goto	l4769
  2711   0004E6                     u3560:
  2712   0004E6  A260               	btfss	96,1,c	;volatile
  2713   0004E8  EF78  F002         	goto	u3571
  2714   0004EC  EF7A  F002         	goto	u3570
  2715   0004F0                     u3571:
  2716   0004F0  EF8A  F002         	goto	l4769
  2717   0004F4                     u3570:
  2718   0004F4                     
  2719                           ;usb_device.c: 712:     {;usb_device.c: 713:         USER_USB_CALLBACK_EVENT_HANDLER((US
      +                          B_EVENT)EVENT_BUS_ERROR,0,1);
  2720   0004F4  0E7F               	movlw	127
  2721   0004F6  6E10               	movwf	(USER_USB_CALLBACK_EVENT_HANDLER@event+1)^0,c
  2722   0004F8  680F               	setf	USER_USB_CALLBACK_EVENT_HANDLER@event^0,c
  2723   0004FA  0E00               	movlw	0
  2724   0004FC  6E11               	movwf	USER_USB_CALLBACK_EVENT_HANDLER@pdata^0,c
  2725   0004FE  0E00               	movlw	0
  2726   000500  6E12               	movwf	(USER_USB_CALLBACK_EVENT_HANDLER@pdata+1)^0,c
  2727   000502  0E00               	movlw	0
  2728   000504  6E14               	movwf	(USER_USB_CALLBACK_EVENT_HANDLER@size+1)^0,c
  2729   000506  0E01               	movlw	1
  2730   000508  6E13               	movwf	USER_USB_CALLBACK_EVENT_HANDLER@size^0,c
  2731   00050A  EC86  F00E         	call	_USER_USB_CALLBACK_EVENT_HANDLER	;wreg free
  2732   00050E                     
  2733                           ;usb_device.c: 714:         {UEIR = 0;};
  2734   00050E  0E00               	movlw	0
  2735   000510  010F               	movlb	15	; () banked
  2736   000512  6F5F               	movwf	95,b	;volatile
  2737   000514                     l4769:
  2738                           
  2739                           ;usb_device.c: 729:     if(USBDeviceState < DEFAULT_STATE)
  2740   000514  0E04               	movlw	4
  2741   000516  605B               	cpfslt	_USBDeviceState^0,c
  2742   000518  EF90  F002         	goto	u3581
  2743   00051C  EF92  F002         	goto	u3580
  2744   000520                     u3581:
  2745   000520  EF95  F002         	goto	l395
  2746   000524                     u3580:
  2747   000524                     
  2748                           ;usb_device.c: 730:     {;usb_device.c: 731:         {PIR2bits.USBIF = 0;};
  2749   000524  94A1               	bcf	161,2,c	;volatile
  2750                           
  2751                           ;usb_device.c: 732:         return;
  2752   000526  EFEA  F002         	goto	l378
  2753   00052A                     l395:
  2754                           
  2755                           ;usb_device.c: 738:     if(UIEbits.TRNIE)
  2756   00052A  A660               	btfss	96,3,c	;volatile
  2757   00052C  EF9A  F002         	goto	u3591
  2758   000530  EF9C  F002         	goto	u3590
  2759   000534                     u3591:
  2760   000534  EFE9  F002         	goto	l396
  2761   000538                     u3590:
  2762   000538                     
  2763                           ;usb_device.c: 739:     {;usb_device.c: 740:         for(i = 0; i < 4u; i++)
  2764   000538  0E00               	movlw	0
  2765   00053A  6E21               	movwf	USBDeviceTasks@i^0,c
  2766   00053C                     l397:
  2767                           
  2768                           ;usb_device.c: 741:         {;usb_device.c: 742:             if(UIRbits.TRNIF)
  2769   00053C  A662               	btfss	98,3,c	;volatile
  2770   00053E  EFA3  F002         	goto	u3601
  2771   000542  EFA5  F002         	goto	u3600
  2772   000546                     u3601:
  2773   000546  EFE9  F002         	goto	l396
  2774   00054A                     u3600:
  2775   00054A                     
  2776                           ;usb_device.c: 743:             {;usb_device.c: 745:                 USTATcopy.Val = UST
      +                          AT;
  2777   00054A  CF63 F05C          	movff	3939,_USTATcopy	;volatile
  2778   00054E                     
  2779                           ;usb_device.c: 746:                 endpoint_number = USTATcopy.endpoint_number;
  2780   00054E  305C               	rrcf	_USTATcopy^0,w,c
  2781   000550  32E8               	rrcf	wreg,f,c
  2782   000552  32E8               	rrcf	wreg,f,c
  2783   000554  0B0F               	andlw	15
  2784   000556  6E57               	movwf	_endpoint_number^0,c
  2785   000558                     
  2786                           ;usb_device.c: 748:                 (UIR &= 0xF7);
  2787   000558  9662               	bcf	98,3,c	;volatile
  2788   00055A                     
  2789                           ;usb_device.c: 753:                 if(USTATcopy.direction == 0)
  2790   00055A  B45C               	btfsc	_USTATcopy^0,2,c
  2791   00055C  EFB2  F002         	goto	u3611
  2792   000560  EFB4  F002         	goto	u3610
  2793   000564                     u3611:
  2794   000564  EFBE  F002         	goto	l4789
  2795   000568                     u3610:
  2796   000568                     
  2797                           ;usb_device.c: 754:                 {;usb_device.c: 755:                     ep_data_out
      +                          [endpoint_number].bits.ping_pong_state ^= 1;
  2798   000568  0E86               	movlw	low _ep_data_out
  2799   00056A  2457               	addwf	_endpoint_number^0,w,c
  2800   00056C  6ED9               	movwf	fsr2l,c
  2801   00056E  6ADA               	clrf	fsr2h,c
  2802   000570  0E00               	movlw	high _ep_data_out
  2803   000572  22DA               	addwfc	fsr2h,f,c
  2804   000574  0100               	movlb	0	; () banked
  2805   000576  70DF               	btg	indf2,0,c
  2806                           
  2807                           ;usb_device.c: 756:                 }
  2808   000578  EFC6  F002         	goto	l4791
  2809   00057C                     l4789:
  2810                           
  2811                           ;usb_device.c: 758:                 {;usb_device.c: 759:                     ep_data_in[
      +                          endpoint_number].bits.ping_pong_state ^= 1;
  2812   00057C  0E89               	movlw	low _ep_data_in
  2813   00057E  2457               	addwf	_endpoint_number^0,w,c
  2814   000580  6ED9               	movwf	fsr2l,c
  2815   000582  6ADA               	clrf	fsr2h,c
  2816   000584  0E00               	movlw	high _ep_data_in
  2817   000586  22DA               	addwfc	fsr2h,f,c
  2818   000588  0100               	movlb	0	; () banked
  2819   00058A  70DF               	btg	indf2,0,c
  2820   00058C                     l4791:
  2821                           
  2822                           ; BSR set to: 0
  2823                           ;usb_device.c: 765:                 if(endpoint_number == 0)
  2824   00058C  5057               	movf	_endpoint_number^0,w,c
  2825   00058E  A4D8               	btfss	status,2,c
  2826   000590  EFCC  F002         	goto	u3621
  2827   000594  EFCE  F002         	goto	u3620
  2828   000598                     u3621:
  2829   000598  EFD2  F002         	goto	l4795
  2830   00059C                     u3620:
  2831   00059C                     
  2832                           ; BSR set to: 0
  2833                           ;usb_device.c: 766:                 {;usb_device.c: 767:                     USBCtrlEPSe
      +                          rvice();
  2834   00059C  ECD0  F00D         	call	_USBCtrlEPService	;wreg free
  2835                           
  2836                           ;usb_device.c: 768:                 }
  2837   0005A0  EFE0  F002         	goto	l4797
  2838   0005A4                     l4795:
  2839                           
  2840                           ; BSR set to: 0
  2841                           ;usb_device.c: 770:                 {;usb_device.c: 771:                     USER_USB_CA
      +                          LLBACK_EVENT_HANDLER((USB_EVENT)EVENT_TRANSFER,(uint8_t*)&USTATcopy.Val,0);
  2842   0005A4  0E00               	movlw	0
  2843   0005A6  6E10               	movwf	(USER_USB_CALLBACK_EVENT_HANDLER@event+1)^0,c
  2844   0005A8  0E72               	movlw	114
  2845   0005AA  6E0F               	movwf	USER_USB_CALLBACK_EVENT_HANDLER@event^0,c
  2846   0005AC  0E5C               	movlw	low _USTATcopy
  2847   0005AE  6E11               	movwf	USER_USB_CALLBACK_EVENT_HANDLER@pdata^0,c
  2848   0005B0  0E00               	movlw	high _USTATcopy
  2849   0005B2  6E12               	movwf	(USER_USB_CALLBACK_EVENT_HANDLER@pdata+1)^0,c
  2850   0005B4  0E00               	movlw	0
  2851   0005B6  6E14               	movwf	(USER_USB_CALLBACK_EVENT_HANDLER@size+1)^0,c
  2852   0005B8  0E00               	movlw	0
  2853   0005BA  6E13               	movwf	USER_USB_CALLBACK_EVENT_HANDLER@size^0,c
  2854   0005BC  EC86  F00E         	call	_USER_USB_CALLBACK_EVENT_HANDLER	;wreg free
  2855   0005C0                     l4797:
  2856                           
  2857                           ;usb_device.c: 778:         }
  2858   0005C0  2A21               	incf	USBDeviceTasks@i^0,f,c
  2859   0005C2  0E03               	movlw	3
  2860   0005C4  6421               	cpfsgt	USBDeviceTasks@i^0,c
  2861   0005C6  EFE7  F002         	goto	u3631
  2862   0005CA  EFE9  F002         	goto	u3630
  2863   0005CE                     u3631:
  2864   0005CE  EF9E  F002         	goto	l397
  2865   0005D2                     u3630:
  2866   0005D2                     l396:
  2867                           
  2868                           ;usb_device.c: 781:     {PIR2bits.USBIF = 0;};
  2869   0005D2  94A1               	bcf	161,2,c	;volatile
  2870   0005D4                     l378:
  2871   0005D4  0012               	return		;funcret
  2872   0005D6                     __end_of_USBDeviceTasks:
  2873                           	callstack 0
  2874                           
  2875 ;; *************** function _USBWakeFromSuspend *****************
  2876 ;; Defined at:
  2877 ;;		line 2261 in file "usb_device.c"
  2878 ;; Parameters:    Size  Location     Type
  2879 ;;		None
  2880 ;; Auto vars:     Size  Location     Type
  2881 ;;		None
  2882 ;; Return value:  Size  Location     Type
  2883 ;;                  1    wreg      void 
  2884 ;; Registers used:
  2885 ;;		wreg, fsr2l, fsr2h, status,2, status,0, prodl, prodh, cstack
  2886 ;; Tracked objects:
  2887 ;;		On entry : 0/0
  2888 ;;		On exit  : 0/0
  2889 ;;		Unchanged: 0/0
  2890 ;; Data sizes:     COMRAM   BANK0   BANK1   BANK2
  2891 ;;      Params:         0       0       0       0
  2892 ;;      Locals:         0       0       0       0
  2893 ;;      Temps:          0       0       0       0
  2894 ;;      Totals:         0       0       0       0
  2895 ;;Total ram usage:        0 bytes
  2896 ;; Hardware stack levels used: 1
  2897 ;; Hardware stack levels required when called: 5
  2898 ;; This function calls:
  2899 ;;		_USER_USB_CALLBACK_EVENT_HANDLER
  2900 ;; This function is called by:
  2901 ;;		_USBDeviceTasks
  2902 ;; This function uses a non-reentrant model
  2903 ;;
  2904                           
  2905                           	psect	text10
  2906   0025F0                     __ptext10:
  2907                           	callstack 0
  2908   0025F0                     _USBWakeFromSuspend:
  2909                           	callstack 23
  2910   0025F0                     
  2911                           ;usb_device.c: 2263:     USBBusIsSuspended = 0;
  2912   0025F0  0E00               	movlw	0
  2913   0025F2  0100               	movlb	0	; () banked
  2914   0025F4  6F99               	movwf	_USBBusIsSuspended& (0+255),b
  2915   0025F6                     
  2916                           ; BSR set to: 0
  2917                           ;usb_device.c: 2269:     USER_USB_CALLBACK_EVENT_HANDLER((USB_EVENT)EVENT_RESUME,0,0);
  2918   0025F6  0E00               	movlw	0
  2919   0025F8  6E10               	movwf	(USER_USB_CALLBACK_EVENT_HANDLER@event+1)^0,c
  2920   0025FA  0E74               	movlw	116
  2921   0025FC  6E0F               	movwf	USER_USB_CALLBACK_EVENT_HANDLER@event^0,c
  2922   0025FE  0E00               	movlw	0
  2923   002600  6E11               	movwf	USER_USB_CALLBACK_EVENT_HANDLER@pdata^0,c
  2924   002602  0E00               	movlw	0
  2925   002604  6E12               	movwf	(USER_USB_CALLBACK_EVENT_HANDLER@pdata+1)^0,c
  2926   002606  0E00               	movlw	0
  2927   002608  6E14               	movwf	(USER_USB_CALLBACK_EVENT_HANDLER@size+1)^0,c
  2928   00260A  0E00               	movlw	0
  2929   00260C  6E13               	movwf	USER_USB_CALLBACK_EVENT_HANDLER@size^0,c
  2930   00260E  EC86  F00E         	call	_USER_USB_CALLBACK_EVENT_HANDLER	;wreg free
  2931   002612                     
  2932                           ;usb_device.c: 2276:         UCONbits.SUSPND = 0;
  2933   002612  9264               	bcf	100,1,c	;volatile
  2934   002614                     
  2935                           ;usb_device.c: 2281:     UIEbits.ACTVIE = 0;
  2936   002614  9460               	bcf	96,2,c	;volatile
  2937                           
  2938                           ;usb_device.c: 2299:     while(UIRbits.ACTVIF)
  2939   002616  EF0E  F013         	goto	l4627
  2940   00261A                     l4625:
  2941                           
  2942                           ;usb_device.c: 2301:     {;usb_device.c: 2302:         (UIR &= 0xFB);
  2943   00261A  9462               	bcf	98,2,c	;volatile
  2944   00261C                     l4627:
  2945                           
  2946                           ;usb_device.c: 2299:     while(UIRbits.ACTVIF)
  2947   00261C  B462               	btfsc	98,2,c	;volatile
  2948   00261E  EF13  F013         	goto	u3301
  2949   002622  EF15  F013         	goto	u3300
  2950   002626                     u3301:
  2951   002626  EF0D  F013         	goto	l4625
  2952   00262A                     u3300:
  2953   00262A                     
  2954                           ;usb_device.c: 2305:     USBTicksSinceSuspendEnd = 0;
  2955   00262A  0E00               	movlw	0
  2956   00262C  0100               	movlb	0	; () banked
  2957   00262E  6F93               	movwf	_USBTicksSinceSuspendEnd& (0+255),b
  2958   002630                     
  2959                           ; BSR set to: 0
  2960   002630  0012               	return		;funcret
  2961   002632                     __end_of_USBWakeFromSuspend:
  2962                           	callstack 0
  2963                           
  2964 ;; *************** function _USBSuspend *****************
  2965 ;; Defined at:
  2966 ;;		line 2203 in file "usb_device.c"
  2967 ;; Parameters:    Size  Location     Type
  2968 ;;		None
  2969 ;; Auto vars:     Size  Location     Type
  2970 ;;		None
  2971 ;; Return value:  Size  Location     Type
  2972 ;;                  1    wreg      void 
  2973 ;; Registers used:
  2974 ;;		wreg, fsr2l, fsr2h, status,2, status,0, prodl, prodh, cstack
  2975 ;; Tracked objects:
  2976 ;;		On entry : 0/0
  2977 ;;		On exit  : 0/0
  2978 ;;		Unchanged: 0/0
  2979 ;; Data sizes:     COMRAM   BANK0   BANK1   BANK2
  2980 ;;      Params:         0       0       0       0
  2981 ;;      Locals:         0       0       0       0
  2982 ;;      Temps:          0       0       0       0
  2983 ;;      Totals:         0       0       0       0
  2984 ;;Total ram usage:        0 bytes
  2985 ;; Hardware stack levels used: 1
  2986 ;; Hardware stack levels required when called: 5
  2987 ;; This function calls:
  2988 ;;		_USER_USB_CALLBACK_EVENT_HANDLER
  2989 ;; This function is called by:
  2990 ;;		_USBDeviceTasks
  2991 ;; This function uses a non-reentrant model
  2992 ;;
  2993                           
  2994                           	psect	text11
  2995   00269C                     __ptext11:
  2996                           	callstack 0
  2997   00269C                     _USBSuspend:
  2998                           	callstack 23
  2999   00269C                     
  3000                           ;usb_device.c: 2228:     UIEbits.ACTVIE = 1;
  3001   00269C  8460               	bsf	96,2,c	;volatile
  3002   00269E                     
  3003                           ;usb_device.c: 2229:     (UIR &= 0xEF);
  3004   00269E  9862               	bcf	98,4,c	;volatile
  3005   0026A0                     
  3006                           ;usb_device.c: 2232:         UCONbits.SUSPND = 1;
  3007   0026A0  8264               	bsf	100,1,c	;volatile
  3008   0026A2                     
  3009                           ;usb_device.c: 2235:     USBBusIsSuspended = 1;
  3010   0026A2  0E01               	movlw	1
  3011   0026A4  0100               	movlb	0	; () banked
  3012   0026A6  6F99               	movwf	_USBBusIsSuspended& (0+255),b
  3013   0026A8                     
  3014                           ; BSR set to: 0
  3015                           ;usb_device.c: 2236:     USBTicksSinceSuspendEnd = 0;
  3016   0026A8  0E00               	movlw	0
  3017   0026AA  6F93               	movwf	_USBTicksSinceSuspendEnd& (0+255),b
  3018   0026AC                     
  3019                           ; BSR set to: 0
  3020                           ;usb_device.c: 2243:     USER_USB_CALLBACK_EVENT_HANDLER((USB_EVENT)EVENT_SUSPEND,0,0);
  3021   0026AC  0E00               	movlw	0
  3022   0026AE  6E10               	movwf	(USER_USB_CALLBACK_EVENT_HANDLER@event+1)^0,c
  3023   0026B0  0E75               	movlw	117
  3024   0026B2  6E0F               	movwf	USER_USB_CALLBACK_EVENT_HANDLER@event^0,c
  3025   0026B4  0E00               	movlw	0
  3026   0026B6  6E11               	movwf	USER_USB_CALLBACK_EVENT_HANDLER@pdata^0,c
  3027   0026B8  0E00               	movlw	0
  3028   0026BA  6E12               	movwf	(USER_USB_CALLBACK_EVENT_HANDLER@pdata+1)^0,c
  3029   0026BC  0E00               	movlw	0
  3030   0026BE  6E14               	movwf	(USER_USB_CALLBACK_EVENT_HANDLER@size+1)^0,c
  3031   0026C0  0E00               	movlw	0
  3032   0026C2  6E13               	movwf	USER_USB_CALLBACK_EVENT_HANDLER@size^0,c
  3033   0026C4  EC86  F00E         	call	_USER_USB_CALLBACK_EVENT_HANDLER	;wreg free
  3034   0026C8  0012               	return		;funcret
  3035   0026CA                     __end_of_USBSuspend:
  3036                           	callstack 0
  3037                           
  3038 ;; *************** function _USBStallHandler *****************
  3039 ;; Defined at:
  3040 ;;		line 2160 in file "usb_device.c"
  3041 ;; Parameters:    Size  Location     Type
  3042 ;;		None
  3043 ;; Auto vars:     Size  Location     Type
  3044 ;;		None
  3045 ;; Return value:  Size  Location     Type
  3046 ;;                  1    wreg      void 
  3047 ;; Registers used:
  3048 ;;		wreg, fsr2l, fsr2h, status,2, status,0
  3049 ;; Tracked objects:
  3050 ;;		On entry : 0/0
  3051 ;;		On exit  : 0/0
  3052 ;;		Unchanged: 0/0
  3053 ;; Data sizes:     COMRAM   BANK0   BANK1   BANK2
  3054 ;;      Params:         0       0       0       0
  3055 ;;      Locals:         0       0       0       0
  3056 ;;      Temps:          1       0       0       0
  3057 ;;      Totals:         1       0       0       0
  3058 ;;Total ram usage:        1 bytes
  3059 ;; Hardware stack levels used: 1
  3060 ;; Hardware stack levels required when called: 1
  3061 ;; This function calls:
  3062 ;;		Nothing
  3063 ;; This function is called by:
  3064 ;;		_USBDeviceTasks
  3065 ;; This function uses a non-reentrant model
  3066 ;;
  3067                           
  3068                           	psect	text12
  3069   0022E0                     __ptext12:
  3070                           	callstack 0
  3071   0022E0                     _USBStallHandler:
  3072                           	callstack 27
  3073   0022E0                     
  3074                           ;usb_device.c: 2172:     if(UEP0bits.EPSTALL == 1)
  3075   0022E0  010F               	movlb	15	; () banked
  3076   0022E2  A153               	btfss	83,0,b	;volatile
  3077   0022E4  EF76  F011         	goto	u3331
  3078   0022E8  EF78  F011         	goto	u3330
  3079   0022EC                     u3331:
  3080   0022EC  EF9F  F011         	goto	l525
  3081   0022F0                     u3330:
  3082   0022F0                     
  3083                           ; BSR set to: 15
  3084                           ;usb_device.c: 2173:     {;usb_device.c: 2175:         if((pBDTEntryEP0OutCurrent->STAT.
      +                          Val == 0x80) && (pBDTEntryIn[0]->STAT.Val == (0x80|0x04)))
  3085   0022F0  C051  FFD9         	movff	_pBDTEntryEP0OutCurrent,fsr2l
  3086   0022F4  C052  FFDA         	movff	_pBDTEntryEP0OutCurrent+1,fsr2h
  3087   0022F8  0E80               	movlw	128
  3088   0022FA  18DE               	xorwf	postinc2,w,c
  3089   0022FC  A4D8               	btfss	status,2,c
  3090   0022FE  EF83  F011         	goto	u3341
  3091   002302  EF85  F011         	goto	u3340
  3092   002306                     u3341:
  3093   002306  EF9E  F011         	goto	l4663
  3094   00230A                     u3340:
  3095   00230A                     
  3096                           ; BSR set to: 15
  3097   00230A  C045  FFD9         	movff	_pBDTEntryIn,fsr2l
  3098   00230E  C046  FFDA         	movff	_pBDTEntryIn+1,fsr2h
  3099   002312  0E84               	movlw	132
  3100   002314  18DE               	xorwf	postinc2,w,c
  3101   002316  A4D8               	btfss	status,2,c
  3102   002318  EF90  F011         	goto	u3351
  3103   00231C  EF92  F011         	goto	u3350
  3104   002320                     u3351:
  3105   002320  EF9E  F011         	goto	l4663
  3106   002324                     u3350:
  3107   002324                     
  3108                           ; BSR set to: 15
  3109                           ;usb_device.c: 2176:         {;usb_device.c: 2178:             pBDTEntryEP0OutCurrent->S
      +                          TAT.Val = 0x00|(0x08 & 0x08)|0x04;
  3110   002324  C051  FFD9         	movff	_pBDTEntryEP0OutCurrent,fsr2l
  3111   002328  C052  FFDA         	movff	_pBDTEntryEP0OutCurrent+1,fsr2h
  3112   00232C  0E0C               	movlw	12
  3113   00232E  6EDF               	movwf	indf2,c
  3114   002330                     
  3115                           ; BSR set to: 15
  3116                           ;usb_device.c: 2179:             pBDTEntryEP0OutCurrent->STAT.Val |= 0x80;
  3117   002330  C051  FFD9         	movff	_pBDTEntryEP0OutCurrent,fsr2l
  3118   002334  C052  FFDA         	movff	_pBDTEntryEP0OutCurrent+1,fsr2h
  3119   002338  0E00               	movlw	0
  3120   00233A  8EDB               	bsf	plusw2,7,c
  3121   00233C                     l4663:
  3122                           
  3123                           ; BSR set to: 15
  3124                           ;usb_device.c: 2181:         UEP0bits.EPSTALL = 0;
  3125   00233C  9153               	bcf	83,0,b	;volatile
  3126   00233E                     l525:
  3127                           
  3128                           ; BSR set to: 15
  3129                           ;usb_device.c: 2184:     (UIR &= 0xDF);
  3130   00233E  9A62               	bcf	98,5,c	;volatile
  3131   002340                     
  3132                           ; BSR set to: 15
  3133   002340  0012               	return		;funcret
  3134   002342                     __end_of_USBStallHandler:
  3135                           	callstack 0
  3136                           
  3137 ;; *************** function _USBIncrement1msInternalTimers *****************
  3138 ;; Defined at:
  3139 ;;		line 2949 in file "usb_device.c"
  3140 ;; Parameters:    Size  Location     Type
  3141 ;;		None
  3142 ;; Auto vars:     Size  Location     Type
  3143 ;;		None
  3144 ;; Return value:  Size  Location     Type
  3145 ;;                  1    wreg      void 
  3146 ;; Registers used:
  3147 ;;		wreg, status,2, status,0
  3148 ;; Tracked objects:
  3149 ;;		On entry : 0/0
  3150 ;;		On exit  : 0/0
  3151 ;;		Unchanged: 0/0
  3152 ;; Data sizes:     COMRAM   BANK0   BANK1   BANK2
  3153 ;;      Params:         0       0       0       0
  3154 ;;      Locals:         0       0       0       0
  3155 ;;      Temps:          0       0       0       0
  3156 ;;      Totals:         0       0       0       0
  3157 ;;Total ram usage:        0 bytes
  3158 ;; Hardware stack levels used: 1
  3159 ;; Hardware stack levels required when called: 1
  3160 ;; This function calls:
  3161 ;;		Nothing
  3162 ;; This function is called by:
  3163 ;;		_USBDeviceTasks
  3164 ;; This function uses a non-reentrant model
  3165 ;;
  3166                           
  3167                           	psect	text13
  3168   002668                     __ptext13:
  3169                           	callstack 0
  3170   002668                     _USBIncrement1msInternalTimers:
  3171                           	callstack 27
  3172   002668                     
  3173                           ;usb_device.c: 2957:     USB1msTickCount++;
  3174   002668  0E01               	movlw	1
  3175   00266A  0100               	movlb	0	; () banked
  3176   00266C  277C               	addwf	_USB1msTickCount& (0+255),f,b
  3177   00266E  0E00               	movlw	0
  3178   002670  237D               	addwfc	(_USB1msTickCount+1)& (0+255),f,b
  3179   002672  237E               	addwfc	(_USB1msTickCount+2)& (0+255),f,b
  3180   002674  237F               	addwfc	(_USB1msTickCount+3)& (0+255),f,b
  3181   002676                     
  3182                           ; BSR set to: 0
  3183                           ;usb_device.c: 2958:     if(USBBusIsSuspended == 0)
  3184   002676  5199               	movf	_USBBusIsSuspended& (0+255),w,b
  3185   002678  A4D8               	btfss	status,2,c
  3186   00267A  EF41  F013         	goto	u3311
  3187   00267E  EF43  F013         	goto	u3310
  3188   002682                     u3311:
  3189   002682  EF4D  F013         	goto	l617
  3190   002686                     u3310:
  3191   002686                     
  3192                           ; BSR set to: 0
  3193                           ;usb_device.c: 2959:     {;usb_device.c: 2960:         USBTicksSinceSuspendEnd++;
  3194   002686  2B93               	incf	_USBTicksSinceSuspendEnd& (0+255),f,b
  3195   002688                     
  3196                           ; BSR set to: 0
  3197                           ;usb_device.c: 2962:         if(USBTicksSinceSuspendEnd == 0)
  3198   002688  5193               	movf	_USBTicksSinceSuspendEnd& (0+255),w,b
  3199   00268A  A4D8               	btfss	status,2,c
  3200   00268C  EF4A  F013         	goto	u3321
  3201   002690  EF4C  F013         	goto	u3320
  3202   002694                     u3321:
  3203   002694  EF4D  F013         	goto	l617
  3204   002698                     u3320:
  3205   002698                     
  3206                           ; BSR set to: 0
  3207                           ;usb_device.c: 2963:         {;usb_device.c: 2964:             USBTicksSinceSuspendEnd =
      +                           255;
  3208   002698  6993               	setf	_USBTicksSinceSuspendEnd& (0+255),b
  3209   00269A                     l617:
  3210                           
  3211                           ; BSR set to: 0
  3212   00269A  0012               	return		;funcret
  3213   00269C                     __end_of_USBIncrement1msInternalTimers:
  3214                           	callstack 0
  3215                           
  3216 ;; *************** function _USBDeviceInit *****************
  3217 ;; Defined at:
  3218 ;;		line 281 in file "usb_device.c"
  3219 ;; Parameters:    Size  Location     Type
  3220 ;;		None
  3221 ;; Auto vars:     Size  Location     Type
  3222 ;;  i               1   12[COMRAM] unsigned char 
  3223 ;; Return value:  Size  Location     Type
  3224 ;;                  1    wreg      void 
  3225 ;; Registers used:
  3226 ;;		wreg, fsr2l, fsr2h, status,2, status,0, prodl, prodh, cstack
  3227 ;; Tracked objects:
  3228 ;;		On entry : 0/0
  3229 ;;		On exit  : 0/0
  3230 ;;		Unchanged: 0/0
  3231 ;; Data sizes:     COMRAM   BANK0   BANK1   BANK2
  3232 ;;      Params:         0       0       0       0
  3233 ;;      Locals:         1       0       0       0
  3234 ;;      Temps:          0       0       0       0
  3235 ;;      Totals:         1       0       0       0
  3236 ;;Total ram usage:        1 bytes
  3237 ;; Hardware stack levels used: 1
  3238 ;; Hardware stack levels required when called: 2
  3239 ;; This function calls:
  3240 ;;		_memset
  3241 ;; This function is called by:
  3242 ;;		_skUSB_ini
  3243 ;;		_USBDeviceTasks
  3244 ;; This function uses a non-reentrant model
  3245 ;;
  3246                           
  3247                           	psect	text14
  3248   000EBE                     __ptext14:
  3249                           	callstack 0
  3250   000EBE                     _USBDeviceInit:
  3251                           	callstack 26
  3252   000EBE                     
  3253                           ;usb_device.c: 283:     uint8_t i;;usb_device.c: 285:     {PIE2bits.USBIE = 0;};
  3254   000EBE  94A0               	bcf	160,2,c	;volatile
  3255   000EC0                     
  3256                           ;usb_device.c: 292:     {UEIR = 0;};
  3257   000EC0  0E00               	movlw	0
  3258   000EC2  010F               	movlb	15	; () banked
  3259   000EC4  6F5F               	movwf	95,b	;volatile
  3260                           
  3261                           ;usb_device.c: 295:     {UIR = 0;};
  3262   000EC6  0E00               	movlw	0
  3263   000EC8  6E62               	movwf	98,c	;volatile
  3264                           
  3265                           ;usb_device.c: 298:     UEP0 = 0;
  3266   000ECA  0E00               	movlw	0
  3267   000ECC  6F53               	movwf	83,b	;volatile
  3268   000ECE                     
  3269                           ; BSR set to: 15
  3270                           ;usb_device.c: 300:     memset((void*)&UEP1,0x00,(2));;
  3271   000ECE  0E54               	movlw	84
  3272   000ED0  6E01               	movwf	memset@dest^0,c
  3273   000ED2  0E0F               	movlw	15
  3274   000ED4  6E02               	movwf	(memset@dest+1)^0,c
  3275   000ED6  0E00               	movlw	0
  3276   000ED8  6E04               	movwf	(memset@c+1)^0,c
  3277   000EDA  0E00               	movlw	0
  3278   000EDC  6E03               	movwf	memset@c^0,c
  3279   000EDE  0E00               	movlw	0
  3280   000EE0  6E06               	movwf	(memset@n+1)^0,c
  3281   000EE2  0E02               	movlw	2
  3282   000EE4  6E05               	movwf	memset@n^0,c
  3283   000EE6  ECAE  F004         	call	_memset	;wreg free
  3284   000EEA                     
  3285                           ;usb_device.c: 302:     { UCFG = 0x10 | 0x00 | 0x04 | 0x02; UEIE = 0x9F; UIE = 0x39 | 0x
      +                          40 | 0x02; };
  3286   000EEA  0E16               	movlw	22
  3287   000EEC  6E61               	movwf	97,c	;volatile
  3288   000EEE  0E9F               	movlw	159
  3289   000EF0  010F               	movlb	15	; () banked
  3290   000EF2  6F5B               	movwf	91,b	;volatile
  3291   000EF4                     
  3292                           ; BSR set to: 15
  3293   000EF4  0E7B               	movlw	123
  3294   000EF6  6E60               	movwf	96,c	;volatile
  3295   000EF8                     
  3296                           ; BSR set to: 15
  3297                           ;usb_device.c: 311:     for(i = 0; i < (sizeof(BDT)/sizeof(BDT_ENTRY)); i++)
  3298   000EF8  0E00               	movlw	0
  3299   000EFA  6E0D               	movwf	USBDeviceInit@i^0,c
  3300   000EFC                     l4511:
  3301                           
  3302                           ;usb_device.c: 312:     {;usb_device.c: 313:         BDT[i].Val = 0x00;
  3303   000EFC  500D               	movf	USBDeviceInit@i^0,w,c
  3304   000EFE  0D04               	mullw	4
  3305   000F00  0E00               	movlw	0
  3306   000F02  24F3               	addwf	243,w,c
  3307   000F04  6ED9               	movwf	fsr2l,c
  3308   000F06  0E02               	movlw	2
  3309   000F08  20F4               	addwfc	prodh,w,c
  3310   000F0A  6EDA               	movwf	fsr2h,c
  3311   000F0C  6ADE               	clrf	postinc2,c
  3312   000F0E  6ADE               	clrf	postinc2,c
  3313   000F10  6ADE               	clrf	postinc2,c
  3314   000F12  6ADD               	clrf	postdec2,c
  3315   000F14                     
  3316                           ;usb_device.c: 314:     }
  3317   000F14  2A0D               	incf	USBDeviceInit@i^0,f,c
  3318   000F16  0E0B               	movlw	11
  3319   000F18  640D               	cpfsgt	USBDeviceInit@i^0,c
  3320   000F1A  EF91  F007         	goto	u3221
  3321   000F1E  EF93  F007         	goto	u3220
  3322   000F22                     u3221:
  3323   000F22  EF7E  F007         	goto	l4511
  3324   000F26                     u3220:
  3325   000F26                     
  3326                           ;usb_device.c: 317:     UCONbits.PPBRST = 1;
  3327   000F26  8C64               	bsf	100,6,c	;volatile
  3328   000F28                     
  3329                           ;usb_device.c: 320:     UADDR = 0x00;
  3330   000F28  0E00               	movlw	0
  3331   000F2A  010F               	movlb	15	; () banked
  3332   000F2C  6F5C               	movwf	92,b	;volatile
  3333   000F2E                     
  3334                           ; BSR set to: 15
  3335                           ;usb_device.c: 323:     UCONbits.PKTDIS = 0;
  3336   000F2E  9864               	bcf	100,4,c	;volatile
  3337   000F30                     
  3338                           ; BSR set to: 15
  3339                           ;usb_device.c: 326:     UCONbits.PPBRST = 0;
  3340   000F30  9C64               	bcf	100,6,c	;volatile
  3341   000F32                     l4523:
  3342                           
  3343                           ;usb_device.c: 330:     {;usb_device.c: 331:         (UIR &= 0xF7);
  3344   000F32  9662               	bcf	98,3,c	;volatile
  3345   000F34                     
  3346                           ;usb_device.c: 333:         inPipes[0].info.Val = 0;
  3347   000F34  0E00               	movlw	0
  3348   000F36  6E42               	movwf	(_inPipes+3)^0,c
  3349   000F38                     
  3350                           ;usb_device.c: 334:         outPipes[0].info.Val = 0;
  3351   000F38  0E00               	movlw	0
  3352   000F3A  0100               	movlb	0	; () banked
  3353   000F3C  6F6D               	movwf	(_outPipes+3)& (0+255),b
  3354   000F3E                     
  3355                           ; BSR set to: 0
  3356                           ;usb_device.c: 335:         outPipes[0].wCount.Val = 0;
  3357   000F3E  0E00               	movlw	0
  3358   000F40  6F6F               	movwf	(_outPipes+5)& (0+255),b
  3359   000F42  0E00               	movlw	0
  3360   000F44  6F6E               	movwf	(_outPipes+4)& (0+255),b
  3361   000F46                     
  3362                           ; BSR set to: 0
  3363                           ;usb_device.c: 336:     }while(UIRbits.TRNIF == 1);
  3364   000F46  B662               	btfsc	98,3,c	;volatile
  3365   000F48  EFA8  F007         	goto	u3231
  3366   000F4C  EFAA  F007         	goto	u3230
  3367   000F50                     u3231:
  3368   000F50  EF99  F007         	goto	l4523
  3369   000F54                     u3230:
  3370   000F54                     
  3371                           ; BSR set to: 0
  3372                           ;usb_device.c: 340:     USBStatusStageEnabledFlag1 = 1;
  3373   000F54  0E01               	movlw	1
  3374   000F56  6F97               	movwf	_USBStatusStageEnabledFlag1& (0+255),b	;volatile
  3375                           
  3376                           ;usb_device.c: 341:     USBStatusStageEnabledFlag2 = 1;
  3377   000F58  0E01               	movlw	1
  3378   000F5A  6F96               	movwf	_USBStatusStageEnabledFlag2& (0+255),b	;volatile
  3379                           
  3380                           ;usb_device.c: 343:     USBDeferINDataStagePackets = 0;
  3381   000F5C  0E00               	movlw	0
  3382   000F5E  6F95               	movwf	_USBDeferINDataStagePackets& (0+255),b	;volatile
  3383                           
  3384                           ;usb_device.c: 344:     USBDeferOUTDataStagePackets = 0;
  3385   000F60  0E00               	movlw	0
  3386   000F62  6F94               	movwf	_USBDeferOUTDataStagePackets& (0+255),b	;volatile
  3387                           
  3388                           ;usb_device.c: 345:     USBBusIsSuspended = 0;
  3389   000F64  0E00               	movlw	0
  3390   000F66  6F99               	movwf	_USBBusIsSuspended& (0+255),b
  3391                           
  3392                           ;usb_device.c: 349:     for(i = 0; i < (uint8_t)(2 +1u); i++)
  3393   000F68  0E00               	movlw	0
  3394   000F6A  6E0D               	movwf	USBDeviceInit@i^0,c
  3395   000F6C                     l4539:
  3396                           
  3397                           ;usb_device.c: 350:     {;usb_device.c: 351:         pBDTEntryIn[i] = 0u;
  3398   000F6C  500D               	movf	USBDeviceInit@i^0,w,c
  3399   000F6E  0D02               	mullw	2
  3400   000F70  0E45               	movlw	low _pBDTEntryIn
  3401   000F72  24F3               	addwf	243,w,c
  3402   000F74  6ED9               	movwf	fsr2l,c
  3403   000F76  0E00               	movlw	high _pBDTEntryIn
  3404   000F78  20F4               	addwfc	prodh,w,c
  3405   000F7A  6EDA               	movwf	fsr2h,c
  3406   000F7C  6ADE               	clrf	postinc2,c
  3407   000F7E  6ADD               	clrf	postdec2,c
  3408                           
  3409                           ;usb_device.c: 352:         pBDTEntryOut[i] = 0u;
  3410   000F80  500D               	movf	USBDeviceInit@i^0,w,c
  3411   000F82  0D02               	mullw	2
  3412   000F84  0E72               	movlw	low _pBDTEntryOut
  3413   000F86  24F3               	addwf	243,w,c
  3414   000F88  6ED9               	movwf	fsr2l,c
  3415   000F8A  0E00               	movlw	high _pBDTEntryOut
  3416   000F8C  20F4               	addwfc	prodh,w,c
  3417   000F8E  6EDA               	movwf	fsr2h,c
  3418   000F90  6ADE               	clrf	postinc2,c
  3419   000F92  6ADD               	clrf	postdec2,c
  3420   000F94                     
  3421                           ;usb_device.c: 353:         ep_data_in[i].Val = 0u;
  3422   000F94  0E89               	movlw	low _ep_data_in
  3423   000F96  240D               	addwf	USBDeviceInit@i^0,w,c
  3424   000F98  6ED9               	movwf	fsr2l,c
  3425   000F9A  6ADA               	clrf	fsr2h,c
  3426   000F9C  0E00               	movlw	high _ep_data_in
  3427   000F9E  22DA               	addwfc	fsr2h,f,c
  3428   000FA0  6ADF               	clrf	indf2,c
  3429   000FA2                     
  3430                           ;usb_device.c: 354:         ep_data_out[i].Val = 0u;
  3431   000FA2  0E86               	movlw	low _ep_data_out
  3432   000FA4  240D               	addwf	USBDeviceInit@i^0,w,c
  3433   000FA6  6ED9               	movwf	fsr2l,c
  3434   000FA8  6ADA               	clrf	fsr2h,c
  3435   000FAA  0E00               	movlw	high _ep_data_out
  3436   000FAC  22DA               	addwfc	fsr2h,f,c
  3437   000FAE  6ADF               	clrf	indf2,c
  3438   000FB0                     
  3439                           ;usb_device.c: 355:     }
  3440   000FB0  2A0D               	incf	USBDeviceInit@i^0,f,c
  3441   000FB2  0E02               	movlw	2
  3442   000FB4  640D               	cpfsgt	USBDeviceInit@i^0,c
  3443   000FB6  EFDF  F007         	goto	u3241
  3444   000FBA  EFE1  F007         	goto	u3240
  3445   000FBE                     u3241:
  3446   000FBE  EFB6  F007         	goto	l4539
  3447   000FC2                     u3240:
  3448   000FC2                     
  3449                           ;usb_device.c: 358:     pBDTEntryIn[0] = (volatile BDT_ENTRY*)&BDT[2];
  3450   000FC2  0E08               	movlw	8
  3451   000FC4  6E45               	movwf	_pBDTEntryIn^0,c
  3452   000FC6  0E02               	movlw	2
  3453   000FC8  6E46               	movwf	(_pBDTEntryIn+1)^0,c
  3454   000FCA                     
  3455                           ;usb_device.c: 360:     UEP0 = 0x06|0x10;
  3456   000FCA  0E16               	movlw	22
  3457   000FCC  010F               	movlb	15	; () banked
  3458   000FCE  6F53               	movwf	83,b	;volatile
  3459   000FD0                     
  3460                           ; BSR set to: 15
  3461                           ;usb_device.c: 362:     BDT[0].ADR = ((uint16_t)(&SetupPkt));
  3462   000FD0  0E02               	movlw	2
  3463   000FD2  0102               	movlb	2	; () banked
  3464   000FD4  6F03               	movwf	3,b	;volatile
  3465   000FD6  0E30               	movlw	48
  3466   000FD8  6F02               	movwf	2,b	;volatile
  3467   000FDA                     
  3468                           ; BSR set to: 2
  3469                           ;usb_device.c: 363:     BDT[0].CNT = 8;
  3470   000FDA  0E08               	movlw	8
  3471   000FDC  6F01               	movwf	1,b	;volatile
  3472   000FDE                     
  3473                           ; BSR set to: 2
  3474                           ;usb_device.c: 364:     BDT[0].STAT.Val = 0x00|0x04;
  3475   000FDE  0E04               	movlw	4
  3476   000FE0  6F00               	movwf	0,b	;volatile
  3477   000FE2                     
  3478                           ; BSR set to: 2
  3479                           ;usb_device.c: 365:     BDT[0].STAT.Val |= 0x80;
  3480   000FE2  8F00               	bsf	0,7,b	;volatile
  3481   000FE4                     
  3482                           ; BSR set to: 2
  3483                           ;usb_device.c: 368:     USBActiveConfiguration = 0;
  3484   000FE4  0E00               	movlw	0
  3485   000FE6  6E5D               	movwf	_USBActiveConfiguration^0,c
  3486   000FE8                     
  3487                           ; BSR set to: 2
  3488                           ;usb_device.c: 370:     USB1msTickCount = 0;
  3489   000FE8  0E00               	movlw	0
  3490   000FEA  0100               	movlb	0	; () banked
  3491   000FEC  6F7C               	movwf	_USB1msTickCount& (0+255),b
  3492   000FEE  0E00               	movlw	0
  3493   000FF0  6F7D               	movwf	(_USB1msTickCount+1)& (0+255),b
  3494   000FF2  0E00               	movlw	0
  3495   000FF4  6F7E               	movwf	(_USB1msTickCount+2)& (0+255),b
  3496   000FF6  0E00               	movlw	0
  3497   000FF8  6F7F               	movwf	(_USB1msTickCount+3)& (0+255),b
  3498   000FFA                     
  3499                           ; BSR set to: 0
  3500                           ;usb_device.c: 371:     USBTicksSinceSuspendEnd = 0;
  3501   000FFA  0E00               	movlw	0
  3502   000FFC  6F93               	movwf	_USBTicksSinceSuspendEnd& (0+255),b
  3503   000FFE                     
  3504                           ; BSR set to: 0
  3505                           ;usb_device.c: 374:     USBDeviceState = DETACHED_STATE;
  3506   000FFE  0E00               	movlw	0
  3507   001000  6E5B               	movwf	_USBDeviceState^0,c
  3508   001002                     
  3509                           ; BSR set to: 0
  3510   001002  0012               	return		;funcret
  3511   001004                     __end_of_USBDeviceInit:
  3512                           	callstack 0
  3513                           
  3514 ;; *************** function _USBCtrlEPService *****************
  3515 ;; Defined at:
  3516 ;;		line 2330 in file "usb_device.c"
  3517 ;; Parameters:    Size  Location     Type
  3518 ;;		None
  3519 ;; Auto vars:     Size  Location     Type
  3520 ;;		None
  3521 ;; Return value:  Size  Location     Type
  3522 ;;                  1    wreg      void 
  3523 ;; Registers used:
  3524 ;;		wreg, fsr1l, fsr1h, fsr2l, fsr2h, status,2, status,0, tblptrl, tblptrh, tblptru, prodl, prodh, cstack
  3525 ;; Tracked objects:
  3526 ;;		On entry : 0/0
  3527 ;;		On exit  : 0/0
  3528 ;;		Unchanged: 0/0
  3529 ;; Data sizes:     COMRAM   BANK0   BANK1   BANK2
  3530 ;;      Params:         0       0       0       0
  3531 ;;      Locals:         0       0       0       0
  3532 ;;      Temps:          1       0       0       0
  3533 ;;      Totals:         1       0       0       0
  3534 ;;Total ram usage:        1 bytes
  3535 ;; Hardware stack levels used: 1
  3536 ;; Hardware stack levels required when called: 8
  3537 ;; This function calls:
  3538 ;;		_USBCtrlTrfInHandler
  3539 ;;		_USBCtrlTrfOutHandler
  3540 ;;		_USBCtrlTrfSetupHandler
  3541 ;;		_memcpy
  3542 ;; This function is called by:
  3543 ;;		_USBDeviceTasks
  3544 ;; This function uses a non-reentrant model
  3545 ;;
  3546                           
  3547                           	psect	text15
  3548   001BA0                     __ptext15:
  3549                           	callstack 0
  3550   001BA0                     _USBCtrlEPService:
  3551                           	callstack 20
  3552   001BA0                     
  3553                           ;usb_device.c: 2336:         USBStatusStageTimeoutCounter = (uint8_t)45;
  3554   001BA0  0E2D               	movlw	45
  3555   001BA2  6E56               	movwf	_USBStatusStageTimeoutCounter^0,c
  3556   001BA4                     
  3557                           ;usb_device.c: 2340:     if((USTATcopy.Val & ~0x02) == 0x00)
  3558   001BA4  C05C  F020         	movff	_USTATcopy,??_USBCtrlEPService
  3559   001BA8  0EFD               	movlw	253
  3560   001BAA  1620               	andwf	??_USBCtrlEPService^0,f,c
  3561   001BAC  A4D8               	btfss	status,2,c
  3562   001BAE  EFDB  F00D         	goto	u3361
  3563   001BB2  EFDD  F00D         	goto	u3360
  3564   001BB6                     u3361:
  3565   001BB6  EF1F  F00E         	goto	l4683
  3566   001BBA                     u3360:
  3567   001BBA                     
  3568                           ;usb_device.c: 2341:     {;usb_device.c: 2344:             pBDTEntryEP0OutCurrent = (vol
      +                          atile BDT_ENTRY*)&BDT[(USTATcopy.Val & 0x7E)>>1];
  3569   001BBA  C05C  F020         	movff	_USTATcopy,??_USBCtrlEPService
  3570   001BBE  90D8               	bcf	status,0,c
  3571   001BC0  3220               	rrcf	??_USBCtrlEPService^0,f,c
  3572   001BC2  0E3F               	movlw	63
  3573   001BC4  1620               	andwf	??_USBCtrlEPService^0,f,c
  3574   001BC6  5020               	movf	??_USBCtrlEPService^0,w,c
  3575   001BC8  0D04               	mullw	4
  3576   001BCA  0E00               	movlw	0
  3577   001BCC  24F3               	addwf	243,w,c
  3578   001BCE  6E51               	movwf	_pBDTEntryEP0OutCurrent^0,c
  3579   001BD0  0E02               	movlw	2
  3580   001BD2  20F4               	addwfc	prodh,w,c
  3581   001BD4  6E52               	movwf	(_pBDTEntryEP0OutCurrent+1)^0,c
  3582   001BD6                     
  3583                           ;usb_device.c: 2352:         pBDTEntryEP0OutNext = pBDTEntryEP0OutCurrent;
  3584   001BD6  C051  F04F         	movff	_pBDTEntryEP0OutCurrent,_pBDTEntryEP0OutNext
  3585   001BDA  C052  F050         	movff	_pBDTEntryEP0OutCurrent+1,_pBDTEntryEP0OutNext+1
  3586   001BDE                     
  3587                           ;usb_device.c: 2354:         pBDTEntryEP0OutNext = (volatile BDT_ENTRY*)(((uint16_t)pBDT
      +                          EntryEP0OutNext) ^ 0x0004);
  3588   001BDE  0E04               	movlw	4
  3589   001BE0  184F               	xorwf	_pBDTEntryEP0OutNext^0,w,c
  3590   001BE2  6E4F               	movwf	_pBDTEntryEP0OutNext^0,c
  3591   001BE4  5050               	movf	(_pBDTEntryEP0OutNext+1)^0,w,c
  3592   001BE6  6E50               	movwf	(_pBDTEntryEP0OutNext+1)^0,c
  3593   001BE8                     
  3594                           ;usb_device.c: 2357:         if(pBDTEntryEP0OutCurrent->STAT.PID == 0xD)
  3595   001BE8  C051  FFD9         	movff	_pBDTEntryEP0OutCurrent,fsr2l
  3596   001BEC  C052  FFDA         	movff	_pBDTEntryEP0OutCurrent+1,fsr2h
  3597   001BF0  30DF               	rrcf	223,w,c
  3598   001BF2  32E8               	rrcf	wreg,f,c
  3599   001BF4  0B0F               	andlw	15
  3600   001BF6  0A0D               	xorlw	13
  3601   001BF8  A4D8               	btfss	status,2,c
  3602   001BFA  EF01  F00E         	goto	u3371
  3603   001BFE  EF03  F00E         	goto	u3370
  3604   001C02                     u3371:
  3605   001C02  EF1B  F00E         	goto	l4681
  3606   001C06                     u3370:
  3607   001C06                     
  3608                           ;usb_device.c: 2358:         {;usb_device.c: 2363:             memcpy((uint8_t*)&SetupPk
      +                          t, (uint8_t*)((void *)(pBDTEntryEP0OutCurrent->ADR)), 8);
  3609   001C06  0E30               	movlw	48
  3610   001C08  6E01               	movwf	memcpy@d1^0,c
  3611   001C0A  0E02               	movlw	2
  3612   001C0C  6E02               	movwf	(memcpy@d1+1)^0,c
  3613   001C0E  EE20 F002          	lfsr	2,2
  3614   001C12  5051               	movf	_pBDTEntryEP0OutCurrent^0,w,c
  3615   001C14  26D9               	addwf	fsr2l,f,c
  3616   001C16  5052               	movf	(_pBDTEntryEP0OutCurrent+1)^0,w,c
  3617   001C18  22DA               	addwfc	fsr2h,f,c
  3618   001C1A  CFDE F003          	movff	postinc2,memcpy@s1
  3619   001C1E  CFDD F004          	movff	postdec2,memcpy@s1+1
  3620   001C22  0E00               	movlw	0
  3621   001C24  6E06               	movwf	(memcpy@n+1)^0,c
  3622   001C26  0E08               	movlw	8
  3623   001C28  6E05               	movwf	memcpy@n^0,c
  3624   001C2A  EC61  F012         	call	_memcpy	;wreg free
  3625   001C2E                     
  3626                           ;usb_device.c: 2366:             USBCtrlTrfSetupHandler();
  3627   001C2E  ECE2  F00F         	call	_USBCtrlTrfSetupHandler	;wreg free
  3628                           
  3629                           ;usb_device.c: 2367:         }
  3630   001C32  EF2B  F00E         	goto	l544
  3631   001C36                     l4681:
  3632                           
  3633                           ;usb_device.c: 2369:         {;usb_device.c: 2371:             USBCtrlTrfOutHandler();
  3634   001C36  EC2A  F010         	call	_USBCtrlTrfOutHandler	;wreg free
  3635   001C3A  EF2B  F00E         	goto	l544
  3636   001C3E                     l4683:
  3637   001C3E  505C               	movf	_USTATcopy^0,w,c
  3638   001C40  0BFD               	andlw	253
  3639   001C42  0A04               	xorlw	4
  3640   001C44  A4D8               	btfss	status,2,c
  3641   001C46  EF27  F00E         	goto	u3381
  3642   001C4A  EF29  F00E         	goto	u3380
  3643   001C4E                     u3381:
  3644   001C4E  EF2B  F00E         	goto	l544
  3645   001C52                     u3380:
  3646   001C52                     
  3647                           ;usb_device.c: 2375:     {;usb_device.c: 2378:         USBCtrlTrfInHandler();
  3648   001C52  EC68  F00B         	call	_USBCtrlTrfInHandler	;wreg free
  3649   001C56                     l544:
  3650   001C56  0012               	return		;funcret
  3651   001C58                     __end_of_USBCtrlEPService:
  3652                           	callstack 0
  3653                           
  3654 ;; *************** function _memcpy *****************
  3655 ;; Defined at:
  3656 ;;		line 4 in file "C:\Program Files\Microchip\xc8\v2.41\pic\sources\c99\common\memcpy.c"
  3657 ;; Parameters:    Size  Location     Type
  3658 ;;  d1              2    0[COMRAM] PTR void 
  3659 ;;		 -> SetupPkt(8), 
  3660 ;;  s1              2    2[COMRAM] PTR const void 
  3661 ;;		 -> CtrlTrfData(8), RAM(767), SetupPkt(8), 
  3662 ;;  n               2    4[COMRAM] unsigned int 
  3663 ;; Auto vars:     Size  Location     Type
  3664 ;;  s               2    8[COMRAM] PTR const unsigned char 
  3665 ;;		 -> CtrlTrfData(8), RAM(767), SetupPkt(8), 
  3666 ;;  d               2    6[COMRAM] PTR unsigned char 
  3667 ;;		 -> SetupPkt(8), 
  3668 ;;  tmp             1   10[COMRAM] unsigned char 
  3669 ;; Return value:  Size  Location     Type
  3670 ;;                  2    0[COMRAM] PTR void 
  3671 ;; Registers used:
  3672 ;;		wreg, fsr2l, fsr2h, status,2, status,0
  3673 ;; Tracked objects:
  3674 ;;		On entry : 0/0
  3675 ;;		On exit  : 0/0
  3676 ;;		Unchanged: 0/0
  3677 ;; Data sizes:     COMRAM   BANK0   BANK1   BANK2
  3678 ;;      Params:         6       0       0       0
  3679 ;;      Locals:         5       0       0       0
  3680 ;;      Temps:          0       0       0       0
  3681 ;;      Totals:        11       0       0       0
  3682 ;;Total ram usage:       11 bytes
  3683 ;; Hardware stack levels used: 1
  3684 ;; Hardware stack levels required when called: 1
  3685 ;; This function calls:
  3686 ;;		Nothing
  3687 ;; This function is called by:
  3688 ;;		_USBCtrlEPService
  3689 ;; This function uses a non-reentrant model
  3690 ;;
  3691                           
  3692                           	psect	text16
  3693   0024C2                     __ptext16:
  3694                           	callstack 0
  3695   0024C2                     _memcpy:
  3696                           	callstack 26
  3697   0024C2  C003  F009         	movff	memcpy@s1,memcpy@s
  3698   0024C6  C004  F00A         	movff	memcpy@s1+1,memcpy@s+1
  3699   0024CA  C001  F007         	movff	memcpy@d1,memcpy@d
  3700   0024CE  C002  F008         	movff	memcpy@d1+1,memcpy@d+1
  3701   0024D2  EF7B  F012         	goto	l4255
  3702   0024D6                     l4247:
  3703   0024D6  C009  FFD9         	movff	memcpy@s,fsr2l
  3704   0024DA  C00A  FFDA         	movff	memcpy@s+1,fsr2h
  3705   0024DE  50DF               	movf	indf2,w,c
  3706   0024E0  6E0B               	movwf	memcpy@tmp^0,c
  3707   0024E2  4A09               	infsnz	memcpy@s^0,f,c
  3708   0024E4  2A0A               	incf	(memcpy@s+1)^0,f,c
  3709   0024E6  C007  FFD9         	movff	memcpy@d,fsr2l
  3710   0024EA  C008  FFDA         	movff	memcpy@d+1,fsr2h
  3711   0024EE  C00B  FFDF         	movff	memcpy@tmp,indf2
  3712   0024F2  4A07               	infsnz	memcpy@d^0,f,c
  3713   0024F4  2A08               	incf	(memcpy@d+1)^0,f,c
  3714   0024F6                     l4255:
  3715   0024F6  0605               	decf	memcpy@n^0,f,c
  3716   0024F8  A0D8               	btfss	status,0,c
  3717   0024FA  0606               	decf	(memcpy@n+1)^0,f,c
  3718   0024FC  2805               	incf	memcpy@n^0,w,c
  3719   0024FE  E106               	bnz	u2911
  3720   002500  2806               	incf	(memcpy@n+1)^0,w,c
  3721   002502  A4D8               	btfss	status,2,c
  3722   002504  EF86  F012         	goto	u2911
  3723   002508  EF88  F012         	goto	u2910
  3724   00250C                     u2911:
  3725   00250C  EF6B  F012         	goto	l4247
  3726   002510                     u2910:
  3727   002510  0012               	return		;funcret
  3728   002512                     __end_of_memcpy:
  3729                           	callstack 0
  3730                           
  3731 ;; *************** function _USBCtrlTrfSetupHandler *****************
  3732 ;; Defined at:
  3733 ;;		line 2423 in file "usb_device.c"
  3734 ;; Parameters:    Size  Location     Type
  3735 ;;		None
  3736 ;; Auto vars:     Size  Location     Type
  3737 ;;		None
  3738 ;; Return value:  Size  Location     Type
  3739 ;;                  1    wreg      void 
  3740 ;; Registers used:
  3741 ;;		wreg, fsr1l, fsr1h, fsr2l, fsr2h, status,2, status,0, tblptrl, tblptrh, tblptru, prodl, prodh, cstack
  3742 ;; Tracked objects:
  3743 ;;		On entry : 0/0
  3744 ;;		On exit  : 0/0
  3745 ;;		Unchanged: 0/0
  3746 ;; Data sizes:     COMRAM   BANK0   BANK1   BANK2
  3747 ;;      Params:         0       0       0       0
  3748 ;;      Locals:         0       0       0       0
  3749 ;;      Temps:          0       0       0       0
  3750 ;;      Totals:         0       0       0       0
  3751 ;;Total ram usage:        0 bytes
  3752 ;; Hardware stack levels used: 1
  3753 ;; Hardware stack levels required when called: 7
  3754 ;; This function calls:
  3755 ;;		_USBCheckStdRequest
  3756 ;;		_USBCtrlEPServiceComplete
  3757 ;;		_USER_USB_CALLBACK_EVENT_HANDLER
  3758 ;; This function is called by:
  3759 ;;		_USBCtrlEPService
  3760 ;; This function uses a non-reentrant model
  3761 ;;
  3762                           
  3763                           	psect	text17
  3764   001FC4                     __ptext17:
  3765                           	callstack 0
  3766   001FC4                     _USBCtrlTrfSetupHandler:
  3767                           	callstack 20
  3768   001FC4                     
  3769                           ;usb_device.c: 2428:     shortPacketStatus = 0;
  3770   001FC4  0E00               	movlw	0
  3771   001FC6  6E59               	movwf	_shortPacketStatus^0,c
  3772                           
  3773                           ;usb_device.c: 2429:     USBDeferStatusStagePacket = 0;
  3774   001FC8  0E00               	movlw	0
  3775   001FCA  6E55               	movwf	_USBDeferStatusStagePacket^0,c	;volatile
  3776                           
  3777                           ;usb_device.c: 2430:     USBDeferINDataStagePackets = 0;
  3778   001FCC  0E00               	movlw	0
  3779   001FCE  0100               	movlb	0	; () banked
  3780   001FD0  6F95               	movwf	_USBDeferINDataStagePackets& (0+255),b	;volatile
  3781                           
  3782                           ;usb_device.c: 2431:     USBDeferOUTDataStagePackets = 0;
  3783   001FD2  0E00               	movlw	0
  3784   001FD4  6F94               	movwf	_USBDeferOUTDataStagePackets& (0+255),b	;volatile
  3785                           
  3786                           ;usb_device.c: 2432:     BothEP0OutUOWNsSet = 0;
  3787   001FD6  0E00               	movlw	0
  3788   001FD8  6F98               	movwf	_BothEP0OutUOWNsSet& (0+255),b
  3789                           
  3790                           ;usb_device.c: 2433:     controlTransferState = 0;
  3791   001FDA  0E00               	movlw	0
  3792   001FDC  6E58               	movwf	_controlTransferState^0,c
  3793   001FDE                     
  3794                           ; BSR set to: 0
  3795                           ;usb_device.c: 2442:     pBDTEntryIn[0]->STAT.Val &= ~(0x80);
  3796   001FDE  C045  FFD9         	movff	_pBDTEntryIn,fsr2l
  3797   001FE2  C046  FFDA         	movff	_pBDTEntryIn+1,fsr2h
  3798   001FE6  0E7F               	movlw	127
  3799   001FE8  16DF               	andwf	indf2,f,c
  3800   001FEA                     
  3801                           ; BSR set to: 0
  3802                           ;usb_device.c: 2444:     pBDTEntryIn[0] = (volatile BDT_ENTRY*)(((uint16_t)pBDTEntryIn[0
      +                          ]) ^ 0x0004);
  3803   001FEA  0E04               	movlw	4
  3804   001FEC  1845               	xorwf	_pBDTEntryIn^0,w,c
  3805   001FEE  6E45               	movwf	_pBDTEntryIn^0,c
  3806   001FF0  5046               	movf	(_pBDTEntryIn+1)^0,w,c
  3807   001FF2  6E46               	movwf	(_pBDTEntryIn+1)^0,c
  3808   001FF4                     
  3809                           ; BSR set to: 0
  3810                           ;usb_device.c: 2445:     pBDTEntryIn[0]->STAT.Val &= ~(0x80);
  3811   001FF4  C045  FFD9         	movff	_pBDTEntryIn,fsr2l
  3812   001FF8  C046  FFDA         	movff	_pBDTEntryIn+1,fsr2h
  3813   001FFC  0E7F               	movlw	127
  3814   001FFE  16DF               	andwf	indf2,f,c
  3815   002000                     
  3816                           ; BSR set to: 0
  3817                           ;usb_device.c: 2446:     pBDTEntryIn[0] = (volatile BDT_ENTRY*)(((uint16_t)pBDTEntryIn[0
      +                          ]) ^ 0x0004);
  3818   002000  0E04               	movlw	4
  3819   002002  1845               	xorwf	_pBDTEntryIn^0,w,c
  3820   002004  6E45               	movwf	_pBDTEntryIn^0,c
  3821   002006  5046               	movf	(_pBDTEntryIn+1)^0,w,c
  3822   002008  6E46               	movwf	(_pBDTEntryIn+1)^0,c
  3823   00200A                     
  3824                           ; BSR set to: 0
  3825                           ;usb_device.c: 2447:     pBDTEntryEP0OutNext->STAT.Val &= ~(0x80);
  3826   00200A  C04F  FFD9         	movff	_pBDTEntryEP0OutNext,fsr2l
  3827   00200E  C050  FFDA         	movff	_pBDTEntryEP0OutNext+1,fsr2h
  3828   002012  0E7F               	movlw	127
  3829   002014  16DF               	andwf	indf2,f,c
  3830   002016                     
  3831                           ; BSR set to: 0
  3832                           ;usb_device.c: 2449:     inPipes[0].info.Val = 0;
  3833   002016  0E00               	movlw	0
  3834   002018  6E42               	movwf	(_inPipes+3)^0,c
  3835   00201A                     
  3836                           ; BSR set to: 0
  3837                           ;usb_device.c: 2450:     inPipes[0].wCount.Val = 0;
  3838   00201A  0E00               	movlw	0
  3839   00201C  6E44               	movwf	(_inPipes+5)^0,c
  3840   00201E  0E00               	movlw	0
  3841   002020  6E43               	movwf	(_inPipes+4)^0,c
  3842   002022                     
  3843                           ; BSR set to: 0
  3844                           ;usb_device.c: 2451:     outPipes[0].info.Val = 0;
  3845   002022  0E00               	movlw	0
  3846   002024  6F6D               	movwf	(_outPipes+3)& (0+255),b
  3847   002026                     
  3848                           ; BSR set to: 0
  3849                           ;usb_device.c: 2452:     outPipes[0].wCount.Val = 0;
  3850   002026  0E00               	movlw	0
  3851   002028  6F6F               	movwf	(_outPipes+5)& (0+255),b
  3852   00202A  0E00               	movlw	0
  3853   00202C  6F6E               	movwf	(_outPipes+4)& (0+255),b
  3854   00202E                     
  3855                           ; BSR set to: 0
  3856                           ;usb_device.c: 2458:     USBCheckStdRequest();
  3857   00202E  ECD0  F009         	call	_USBCheckStdRequest	;wreg free
  3858   002032                     
  3859                           ;usb_device.c: 2459:     USER_USB_CALLBACK_EVENT_HANDLER((USB_EVENT)EVENT_EP0_REQUEST,0,
      +                          0);
  3860   002032  0E00               	movlw	0
  3861   002034  6E10               	movwf	(USER_USB_CALLBACK_EVENT_HANDLER@event+1)^0,c
  3862   002036  0E03               	movlw	3
  3863   002038  6E0F               	movwf	USER_USB_CALLBACK_EVENT_HANDLER@event^0,c
  3864   00203A  0E00               	movlw	0
  3865   00203C  6E11               	movwf	USER_USB_CALLBACK_EVENT_HANDLER@pdata^0,c
  3866   00203E  0E00               	movlw	0
  3867   002040  6E12               	movwf	(USER_USB_CALLBACK_EVENT_HANDLER@pdata+1)^0,c
  3868   002042  0E00               	movlw	0
  3869   002044  6E14               	movwf	(USER_USB_CALLBACK_EVENT_HANDLER@size+1)^0,c
  3870   002046  0E00               	movlw	0
  3871   002048  6E13               	movwf	USER_USB_CALLBACK_EVENT_HANDLER@size^0,c
  3872   00204A  EC86  F00E         	call	_USER_USB_CALLBACK_EVENT_HANDLER	;wreg free
  3873   00204E                     
  3874                           ;usb_device.c: 2472:     USBCtrlEPServiceComplete();
  3875   00204E  ECBA  F006         	call	_USBCtrlEPServiceComplete	;wreg free
  3876   002052  0012               	return		;funcret
  3877   002054                     __end_of_USBCtrlTrfSetupHandler:
  3878                           	callstack 0
  3879                           
  3880 ;; *************** function _USBCtrlEPServiceComplete *****************
  3881 ;; Defined at:
  3882 ;;		line 1571 in file "usb_device.c"
  3883 ;; Parameters:    Size  Location     Type
  3884 ;;		None
  3885 ;; Auto vars:     Size  Location     Type
  3886 ;;		None
  3887 ;; Return value:  Size  Location     Type
  3888 ;;                  1    wreg      void 
  3889 ;; Registers used:
  3890 ;;		wreg, fsr1l, fsr1h, fsr2l, fsr2h, status,2, status,0, tblptrl, tblptrh, tblptru, cstack
  3891 ;; Tracked objects:
  3892 ;;		On entry : 0/0
  3893 ;;		On exit  : 0/0
  3894 ;;		Unchanged: 0/0
  3895 ;; Data sizes:     COMRAM   BANK0   BANK1   BANK2
  3896 ;;      Params:         0       0       0       0
  3897 ;;      Locals:         0       0       0       0
  3898 ;;      Temps:          0       0       0       0
  3899 ;;      Totals:         0       0       0       0
  3900 ;;Total ram usage:        0 bytes
  3901 ;; Hardware stack levels used: 1
  3902 ;; Hardware stack levels required when called: 3
  3903 ;; This function calls:
  3904 ;;		_USBCtrlEPAllowDataStage
  3905 ;;		_USBCtrlEPAllowStatusStage
  3906 ;; This function is called by:
  3907 ;;		_USBCtrlTrfSetupHandler
  3908 ;; This function uses a non-reentrant model
  3909 ;;
  3910                           
  3911                           	psect	text18
  3912   000D74                     __ptext18:
  3913                           	callstack 0
  3914   000D74                     _USBCtrlEPServiceComplete:
  3915                           	callstack 23
  3916   000D74                     
  3917                           ;usb_device.c: 1577:     UCONbits.PKTDIS = 0;
  3918   000D74  9864               	bcf	100,4,c	;volatile
  3919                           
  3920                           ;usb_device.c: 1583:     if(inPipes[0].info.bits.busy == 0)
  3921   000D76  BE42               	btfsc	(_inPipes+3)^0,7,c
  3922   000D78  EFC0  F006         	goto	u2721
  3923   000D7C  EFC2  F006         	goto	u2720
  3924   000D80                     u2721:
  3925   000D80  EF09  F007         	goto	l448
  3926   000D84                     u2720:
  3927   000D84                     
  3928                           ;usb_device.c: 1584:     {;usb_device.c: 1585:         if(outPipes[0].info.bits.busy == 
      +                          1)
  3929   000D84  0100               	movlb	0	; () banked
  3930   000D86  AF6D               	btfss	(_outPipes+3)& (0+255),7,b
  3931   000D88  EFC8  F006         	goto	u2731
  3932   000D8C  EFCA  F006         	goto	u2730
  3933   000D90                     u2731:
  3934   000D90  EFDD  F006         	goto	l4099
  3935   000D94                     u2730:
  3936   000D94                     
  3937                           ; BSR set to: 0
  3938                           ;usb_device.c: 1586:         {;usb_device.c: 1587:             controlTransferState = 2;
  3939   000D94  0E02               	movlw	2
  3940   000D96  6E58               	movwf	_controlTransferState^0,c
  3941                           
  3942                           ;usb_device.c: 1598:             if(USBDeferOUTDataStagePackets == 0)
  3943   000D98  5194               	movf	_USBDeferOUTDataStagePackets& (0+255),w,b	;volatile
  3944   000D9A  A4D8               	btfss	status,2,c
  3945   000D9C  EFD2  F006         	goto	u2741
  3946   000DA0  EFD4  F006         	goto	u2740
  3947   000DA4                     u2741:
  3948   000DA4  EFD6  F006         	goto	l4095
  3949   000DA8                     u2740:
  3950   000DA8                     
  3951                           ; BSR set to: 0
  3952                           ;usb_device.c: 1599:             {;usb_device.c: 1600:                 USBCtrlEPAllowDat
      +                          aStage();
  3953   000DA8  EC36  F00F         	call	_USBCtrlEPAllowDataStage	;wreg free
  3954   000DAC                     l4095:
  3955                           
  3956                           ;usb_device.c: 1605:             USBStatusStageEnabledFlag2 = 0;
  3957   000DAC  0E00               	movlw	0
  3958   000DAE  0100               	movlb	0	; () banked
  3959   000DB0  6F96               	movwf	_USBStatusStageEnabledFlag2& (0+255),b	;volatile
  3960   000DB2                     
  3961                           ; BSR set to: 0
  3962                           ;usb_device.c: 1606:             USBStatusStageEnabledFlag1 = 0;
  3963   000DB2  0E00               	movlw	0
  3964   000DB4  6F97               	movwf	_USBStatusStageEnabledFlag1& (0+255),b	;volatile
  3965                           
  3966                           ;usb_device.c: 1607:         }
  3967   000DB6  EF5E  F007         	goto	l458
  3968   000DBA                     l4099:
  3969                           
  3970                           ; BSR set to: 0
  3971                           ;usb_device.c: 1609:         {;usb_device.c: 1614:             pBDTEntryEP0OutNext->CNT 
      +                          = 8;
  3972   000DBA  EE20 F001          	lfsr	2,1
  3973   000DBE  504F               	movf	_pBDTEntryEP0OutNext^0,w,c
  3974   000DC0  26D9               	addwf	fsr2l,f,c
  3975   000DC2  5050               	movf	(_pBDTEntryEP0OutNext+1)^0,w,c
  3976   000DC4  22DA               	addwfc	fsr2h,f,c
  3977   000DC6  0E08               	movlw	8
  3978   000DC8  6EDF               	movwf	indf2,c
  3979                           
  3980                           ;usb_device.c: 1615:             pBDTEntryEP0OutNext->ADR = ((uint16_t)(&SetupPkt));
  3981   000DCA  EE20 F002          	lfsr	2,2
  3982   000DCE  504F               	movf	_pBDTEntryEP0OutNext^0,w,c
  3983   000DD0  26D9               	addwf	fsr2l,f,c
  3984   000DD2  5050               	movf	(_pBDTEntryEP0OutNext+1)^0,w,c
  3985   000DD4  22DA               	addwfc	fsr2h,f,c
  3986   000DD6  0E30               	movlw	48
  3987   000DD8  6EDE               	movwf	postinc2,c
  3988   000DDA  0E02               	movlw	2
  3989   000DDC  6EDD               	movwf	postdec2,c
  3990   000DDE                     
  3991                           ; BSR set to: 0
  3992                           ;usb_device.c: 1616:             pBDTEntryEP0OutNext->STAT.Val = 0x00|(0x08 & 0x08)|0x04
      +                          ;
  3993   000DDE  C04F  FFD9         	movff	_pBDTEntryEP0OutNext,fsr2l
  3994   000DE2  C050  FFDA         	movff	_pBDTEntryEP0OutNext+1,fsr2h
  3995   000DE6  0E0C               	movlw	12
  3996   000DE8  6EDF               	movwf	indf2,c
  3997   000DEA                     
  3998                           ; BSR set to: 0
  3999                           ;usb_device.c: 1617:             pBDTEntryEP0OutNext->STAT.Val |= 0x80;
  4000   000DEA  C04F  FFD9         	movff	_pBDTEntryEP0OutNext,fsr2l
  4001   000DEE  C050  FFDA         	movff	_pBDTEntryEP0OutNext+1,fsr2h
  4002   000DF2  0E00               	movlw	0
  4003   000DF4  8EDB               	bsf	plusw2,7,c
  4004                           
  4005                           ;usb_device.c: 1618:             pBDTEntryIn[0]->STAT.Val = 0x04;
  4006   000DF6  C045  FFD9         	movff	_pBDTEntryIn,fsr2l
  4007   000DFA  C046  FFDA         	movff	_pBDTEntryIn+1,fsr2h
  4008   000DFE  0E04               	movlw	4
  4009   000E00  6EDF               	movwf	indf2,c
  4010   000E02                     
  4011                           ; BSR set to: 0
  4012                           ;usb_device.c: 1619:             pBDTEntryIn[0]->STAT.Val |= 0x80;
  4013   000E02  C045  FFD9         	movff	_pBDTEntryIn,fsr2l
  4014   000E06  C046  FFDA         	movff	_pBDTEntryIn+1,fsr2h
  4015   000E0A  0E00               	movlw	0
  4016   000E0C  8EDB               	bsf	plusw2,7,c
  4017   000E0E  EF5E  F007         	goto	l458
  4018   000E12                     l448:
  4019                           
  4020                           ;usb_device.c: 1623:     {;usb_device.c: 1624:   if(SetupPkt.DataDir == (0x80>>7))
  4021   000E12  0102               	movlb	2	; () banked
  4022   000E14  AF30               	btfss	48,7,b	;volatile
  4023   000E16  EF0F  F007         	goto	u2751
  4024   000E1A  EF11  F007         	goto	u2750
  4025   000E1E                     u2751:
  4026   000E1E  EF2F  F007         	goto	l4119
  4027   000E22                     u2750:
  4028   000E22                     
  4029                           ; BSR set to: 2
  4030                           ;usb_device.c: 1625:   {;usb_device.c: 1626:    controlTransferState = 1;
  4031   000E22  0E01               	movlw	1
  4032   000E24  6E58               	movwf	_controlTransferState^0,c
  4033                           
  4034                           ;usb_device.c: 1640:    if(USBDeferINDataStagePackets == 0)
  4035   000E26  0100               	movlb	0	; () banked
  4036   000E28  5195               	movf	_USBDeferINDataStagePackets& (0+255),w,b	;volatile
  4037   000E2A  A4D8               	btfss	status,2,c
  4038   000E2C  EF1A  F007         	goto	u2761
  4039   000E30  EF1C  F007         	goto	u2760
  4040   000E34                     u2761:
  4041   000E34  EF1E  F007         	goto	l4111
  4042   000E38                     u2760:
  4043   000E38                     
  4044                           ; BSR set to: 0
  4045                           ;usb_device.c: 1641:             {;usb_device.c: 1642:                 USBCtrlEPAllowDat
      +                          aStage();
  4046   000E38  EC36  F00F         	call	_USBCtrlEPAllowDataStage	;wreg free
  4047   000E3C                     l4111:
  4048                           
  4049                           ;usb_device.c: 1665:             USBStatusStageEnabledFlag2 = 0;
  4050   000E3C  0E00               	movlw	0
  4051   000E3E  0100               	movlb	0	; () banked
  4052   000E40  6F96               	movwf	_USBStatusStageEnabledFlag2& (0+255),b	;volatile
  4053   000E42                     
  4054                           ; BSR set to: 0
  4055                           ;usb_device.c: 1666:             USBStatusStageEnabledFlag1 = 0;
  4056   000E42  0E00               	movlw	0
  4057   000E44  6F97               	movwf	_USBStatusStageEnabledFlag1& (0+255),b	;volatile
  4058   000E46                     
  4059                           ; BSR set to: 0
  4060                           ;usb_device.c: 1667:             if(USBDeferStatusStagePacket == 0)
  4061   000E46  5055               	movf	_USBDeferStatusStagePacket^0,w,c	;volatile
  4062   000E48  A4D8               	btfss	status,2,c
  4063   000E4A  EF29  F007         	goto	u2771
  4064   000E4E  EF2B  F007         	goto	u2770
  4065   000E52                     u2771:
  4066   000E52  EF5E  F007         	goto	l458
  4067   000E56                     u2770:
  4068   000E56                     l4117:
  4069                           
  4070                           ; BSR set to: 0
  4071                           ;usb_device.c: 1668:             {;usb_device.c: 1669:                 USBCtrlEPAllowSta
      +                          tusStage();
  4072   000E56  ECE7  F00C         	call	_USBCtrlEPAllowStatusStage	;wreg free
  4073   000E5A  EF5E  F007         	goto	l458
  4074   000E5E                     l4119:
  4075                           
  4076                           ; BSR set to: 2
  4077                           ;usb_device.c: 1673:   {;usb_device.c: 1684:    controlTransferState = 2;
  4078   000E5E  0E02               	movlw	2
  4079   000E60  6E58               	movwf	_controlTransferState^0,c
  4080   000E62                     
  4081                           ; BSR set to: 2
  4082                           ;usb_device.c: 1687:    pBDTEntryEP0OutNext->CNT = 8;
  4083   000E62  EE20 F001          	lfsr	2,1
  4084   000E66  504F               	movf	_pBDTEntryEP0OutNext^0,w,c
  4085   000E68  26D9               	addwf	fsr2l,f,c
  4086   000E6A  5050               	movf	(_pBDTEntryEP0OutNext+1)^0,w,c
  4087   000E6C  22DA               	addwfc	fsr2h,f,c
  4088   000E6E  0E08               	movlw	8
  4089   000E70  6EDF               	movwf	indf2,c
  4090   000E72                     
  4091                           ; BSR set to: 2
  4092                           ;usb_device.c: 1688:    pBDTEntryEP0OutNext->ADR = ((uint16_t)(&SetupPkt));
  4093   000E72  EE20 F002          	lfsr	2,2
  4094   000E76  504F               	movf	_pBDTEntryEP0OutNext^0,w,c
  4095   000E78  26D9               	addwf	fsr2l,f,c
  4096   000E7A  5050               	movf	(_pBDTEntryEP0OutNext+1)^0,w,c
  4097   000E7C  22DA               	addwfc	fsr2h,f,c
  4098   000E7E  0E30               	movlw	48
  4099   000E80  6EDE               	movwf	postinc2,c
  4100   000E82  0E02               	movlw	2
  4101   000E84  6EDD               	movwf	postdec2,c
  4102   000E86                     
  4103                           ; BSR set to: 2
  4104                           ;usb_device.c: 1689:    pBDTEntryEP0OutNext->STAT.Val = 0x04;
  4105   000E86  C04F  FFD9         	movff	_pBDTEntryEP0OutNext,fsr2l
  4106   000E8A  C050  FFDA         	movff	_pBDTEntryEP0OutNext+1,fsr2h
  4107   000E8E  0E04               	movlw	4
  4108   000E90  6EDF               	movwf	indf2,c
  4109   000E92                     
  4110                           ; BSR set to: 2
  4111                           ;usb_device.c: 1690:             pBDTEntryEP0OutNext->STAT.Val |= 0x80;
  4112   000E92  C04F  FFD9         	movff	_pBDTEntryEP0OutNext,fsr2l
  4113   000E96  C050  FFDA         	movff	_pBDTEntryEP0OutNext+1,fsr2h
  4114   000E9A  0E00               	movlw	0
  4115   000E9C  8EDB               	bsf	plusw2,7,c
  4116   000E9E                     
  4117                           ; BSR set to: 2
  4118                           ;usb_device.c: 1693:             USBStatusStageEnabledFlag2 = 0;
  4119   000E9E  0E00               	movlw	0
  4120   000EA0  0100               	movlb	0	; () banked
  4121   000EA2  6F96               	movwf	_USBStatusStageEnabledFlag2& (0+255),b	;volatile
  4122   000EA4                     
  4123                           ; BSR set to: 0
  4124                           ;usb_device.c: 1694:             USBStatusStageEnabledFlag1 = 0;
  4125   000EA4  0E00               	movlw	0
  4126   000EA6  6F97               	movwf	_USBStatusStageEnabledFlag1& (0+255),b	;volatile
  4127   000EA8                     
  4128                           ; BSR set to: 0
  4129                           ;usb_device.c: 1695:    if(USBDeferStatusStagePacket == 0)
  4130   000EA8  5055               	movf	_USBDeferStatusStagePacket^0,w,c	;volatile
  4131   000EAA  A4D8               	btfss	status,2,c
  4132   000EAC  EF5A  F007         	goto	u2781
  4133   000EB0  EF5C  F007         	goto	u2780
  4134   000EB4                     u2781:
  4135   000EB4  EF5E  F007         	goto	l458
  4136   000EB8                     u2780:
  4137   000EB8  EF2B  F007         	goto	l4117
  4138   000EBC                     l458:
  4139   000EBC  0012               	return		;funcret
  4140   000EBE                     __end_of_USBCtrlEPServiceComplete:
  4141                           	callstack 0
  4142                           
  4143 ;; *************** function _USBCtrlEPAllowDataStage *****************
  4144 ;; Defined at:
  4145 ;;		line 1443 in file "usb_device.c"
  4146 ;; Parameters:    Size  Location     Type
  4147 ;;		None
  4148 ;; Auto vars:     Size  Location     Type
  4149 ;;		None
  4150 ;; Return value:  Size  Location     Type
  4151 ;;                  1    wreg      void 
  4152 ;; Registers used:
  4153 ;;		wreg, fsr1l, fsr1h, fsr2l, fsr2h, status,2, status,0, tblptrl, tblptrh, tblptru, cstack
  4154 ;; Tracked objects:
  4155 ;;		On entry : 0/0
  4156 ;;		On exit  : 0/0
  4157 ;;		Unchanged: 0/0
  4158 ;; Data sizes:     COMRAM   BANK0   BANK1   BANK2
  4159 ;;      Params:         0       0       0       0
  4160 ;;      Locals:         0       0       0       0
  4161 ;;      Temps:          0       0       0       0
  4162 ;;      Totals:         0       0       0       0
  4163 ;;Total ram usage:        0 bytes
  4164 ;; Hardware stack levels used: 1
  4165 ;; Hardware stack levels required when called: 2
  4166 ;; This function calls:
  4167 ;;		_USBCtrlTrfTxService
  4168 ;; This function is called by:
  4169 ;;		_USBCtrlEPServiceComplete
  4170 ;; This function uses a non-reentrant model
  4171 ;;
  4172                           
  4173                           	psect	text19
  4174   001E6C                     __ptext19:
  4175                           	callstack 0
  4176   001E6C                     _USBCtrlEPAllowDataStage:
  4177                           	callstack 23
  4178   001E6C                     
  4179                           ;usb_device.c: 1445:     USBDeferINDataStagePackets = 0;
  4180   001E6C  0E00               	movlw	0
  4181   001E6E  0100               	movlb	0	; () banked
  4182   001E70  6F95               	movwf	_USBDeferINDataStagePackets& (0+255),b	;volatile
  4183                           
  4184                           ;usb_device.c: 1446:     USBDeferOUTDataStagePackets = 0;
  4185   001E72  0E00               	movlw	0
  4186   001E74  6F94               	movwf	_USBDeferOUTDataStagePackets& (0+255),b	;volatile
  4187   001E76                     
  4188                           ; BSR set to: 0
  4189                           ;usb_device.c: 1448:     if(controlTransferState == 2)
  4190   001E76  0E02               	movlw	2
  4191   001E78  1858               	xorwf	_controlTransferState^0,w,c
  4192   001E7A  A4D8               	btfss	status,2,c
  4193   001E7C  EF42  F00F         	goto	u2381
  4194   001E80  EF44  F00F         	goto	u2380
  4195   001E84                     u2381:
  4196   001E84  EF64  F00F         	goto	l3877
  4197   001E88                     u2380:
  4198   001E88                     
  4199                           ; BSR set to: 0
  4200                           ;usb_device.c: 1449:     {;usb_device.c: 1451:         pBDTEntryEP0OutNext->CNT = 8;
  4201   001E88  EE20 F001          	lfsr	2,1
  4202   001E8C  504F               	movf	_pBDTEntryEP0OutNext^0,w,c
  4203   001E8E  26D9               	addwf	fsr2l,f,c
  4204   001E90  5050               	movf	(_pBDTEntryEP0OutNext+1)^0,w,c
  4205   001E92  22DA               	addwfc	fsr2h,f,c
  4206   001E94  0E08               	movlw	8
  4207   001E96  6EDF               	movwf	indf2,c
  4208                           
  4209                           ;usb_device.c: 1452:         pBDTEntryEP0OutNext->ADR = ((uint16_t)(&CtrlTrfData));
  4210   001E98  EE20 F002          	lfsr	2,2
  4211   001E9C  504F               	movf	_pBDTEntryEP0OutNext^0,w,c
  4212   001E9E  26D9               	addwf	fsr2l,f,c
  4213   001EA0  5050               	movf	(_pBDTEntryEP0OutNext+1)^0,w,c
  4214   001EA2  22DA               	addwfc	fsr2h,f,c
  4215   001EA4  0E38               	movlw	56
  4216   001EA6  6EDE               	movwf	postinc2,c
  4217   001EA8  0E02               	movlw	2
  4218   001EAA  6EDD               	movwf	postdec2,c
  4219   001EAC                     
  4220                           ; BSR set to: 0
  4221                           ;usb_device.c: 1453:         pBDTEntryEP0OutNext->STAT.Val = 0x40|(0x08 & 0x08);
  4222   001EAC  C04F  FFD9         	movff	_pBDTEntryEP0OutNext,fsr2l
  4223   001EB0  C050  FFDA         	movff	_pBDTEntryEP0OutNext+1,fsr2h
  4224   001EB4  0E48               	movlw	72
  4225   001EB6  6EDF               	movwf	indf2,c
  4226   001EB8                     
  4227                           ; BSR set to: 0
  4228                           ;usb_device.c: 1454:         pBDTEntryEP0OutNext->STAT.Val |= 0x80;
  4229   001EB8  C04F  FFD9         	movff	_pBDTEntryEP0OutNext,fsr2l
  4230   001EBC  C050  FFDA         	movff	_pBDTEntryEP0OutNext+1,fsr2h
  4231   001EC0  0E00               	movlw	0
  4232   001EC2  8EDB               	bsf	plusw2,7,c
  4233                           
  4234                           ;usb_device.c: 1455:     }
  4235   001EC4  EF8C  F00F         	goto	l440
  4236   001EC8                     l3877:
  4237                           
  4238                           ; BSR set to: 0
  4239                           ;usb_device.c: 1457:     {;usb_device.c: 1460:   if(SetupPkt.wLength < inPipes[0].wCount
      +                          .Val)
  4240   001EC8  5043               	movf	(_inPipes+4)^0,w,c
  4241   001ECA  0102               	movlb	2	; () banked
  4242   001ECC  5D36               	subwf	54,w,b	;volatile
  4243   001ECE  5044               	movf	(_inPipes+5)^0,w,c
  4244   001ED0  5937               	subwfb	55,w,b	;volatile
  4245   001ED2  B0D8               	btfsc	status,0,c
  4246   001ED4  EF6E  F00F         	goto	u2391
  4247   001ED8  EF70  F00F         	goto	u2390
  4248   001EDC                     u2391:
  4249   001EDC  EF74  F00F         	goto	l3881
  4250   001EE0                     u2390:
  4251   001EE0                     
  4252                           ; BSR set to: 2
  4253                           ;usb_device.c: 1461:   {;usb_device.c: 1462:    inPipes[0].wCount.Val = SetupPkt.wLength
      +                          ;
  4254   001EE0  C236 F043          	movff	566,_inPipes+4	;volatile
  4255   001EE4  C237 F044          	movff	567,_inPipes+5	;volatile
  4256   001EE8                     l3881:
  4257                           
  4258                           ; BSR set to: 2
  4259                           ;usb_device.c: 1464:   USBCtrlTrfTxService();
  4260   001EE8  EC5A  F00A         	call	_USBCtrlTrfTxService	;wreg free
  4261   001EEC                     
  4262                           ;usb_device.c: 1469:   pBDTEntryIn[0]->ADR = ((uint16_t)(&CtrlTrfData));
  4263   001EEC  EE20 F002          	lfsr	2,2
  4264   001EF0  5045               	movf	_pBDTEntryIn^0,w,c
  4265   001EF2  26D9               	addwf	fsr2l,f,c
  4266   001EF4  5046               	movf	(_pBDTEntryIn+1)^0,w,c
  4267   001EF6  22DA               	addwfc	fsr2h,f,c
  4268   001EF8  0E38               	movlw	56
  4269   001EFA  6EDE               	movwf	postinc2,c
  4270   001EFC  0E02               	movlw	2
  4271   001EFE  6EDD               	movwf	postdec2,c
  4272   001F00                     
  4273                           ;usb_device.c: 1470:   pBDTEntryIn[0]->STAT.Val = 0x40|(0x08 & 0x08);
  4274   001F00  C045  FFD9         	movff	_pBDTEntryIn,fsr2l
  4275   001F04  C046  FFDA         	movff	_pBDTEntryIn+1,fsr2h
  4276   001F08  0E48               	movlw	72
  4277   001F0A  6EDF               	movwf	indf2,c
  4278   001F0C                     
  4279                           ;usb_device.c: 1471:         pBDTEntryIn[0]->STAT.Val |= 0x80;
  4280   001F0C  C045  FFD9         	movff	_pBDTEntryIn,fsr2l
  4281   001F10  C046  FFDA         	movff	_pBDTEntryIn+1,fsr2h
  4282   001F14  0E00               	movlw	0
  4283   001F16  8EDB               	bsf	plusw2,7,c
  4284   001F18                     l440:
  4285   001F18  0012               	return		;funcret
  4286   001F1A                     __end_of_USBCtrlEPAllowDataStage:
  4287                           	callstack 0
  4288                           
  4289 ;; *************** function _USBCheckStdRequest *****************
  4290 ;; Defined at:
  4291 ;;		line 2644 in file "usb_device.c"
  4292 ;; Parameters:    Size  Location     Type
  4293 ;;		None
  4294 ;; Auto vars:     Size  Location     Type
  4295 ;;		None
  4296 ;; Return value:  Size  Location     Type
  4297 ;;                  1    wreg      void 
  4298 ;; Registers used:
  4299 ;;		wreg, fsr1l, fsr1h, fsr2l, fsr2h, status,2, status,0, tblptrl, tblptrh, tblptru, prodl, prodh, cstack
  4300 ;; Tracked objects:
  4301 ;;		On entry : 0/0
  4302 ;;		On exit  : 0/0
  4303 ;;		Unchanged: 0/0
  4304 ;; Data sizes:     COMRAM   BANK0   BANK1   BANK2
  4305 ;;      Params:         0       0       0       0
  4306 ;;      Locals:         0       0       0       0
  4307 ;;      Temps:          2       0       0       0
  4308 ;;      Totals:         2       0       0       0
  4309 ;;Total ram usage:        2 bytes
  4310 ;; Hardware stack levels used: 1
  4311 ;; Hardware stack levels required when called: 6
  4312 ;; This function calls:
  4313 ;;		_USBStdFeatureReqHandler
  4314 ;;		_USBStdGetDscHandler
  4315 ;;		_USBStdGetStatusHandler
  4316 ;;		_USBStdSetCfgHandler
  4317 ;;		_USER_USB_CALLBACK_EVENT_HANDLER
  4318 ;; This function is called by:
  4319 ;;		_USBCtrlTrfSetupHandler
  4320 ;; This function uses a non-reentrant model
  4321 ;;
  4322                           
  4323                           	psect	text20
  4324   0013A0                     __ptext20:
  4325                           	callstack 0
  4326   0013A0                     _USBCheckStdRequest:
  4327                           	callstack 20
  4328   0013A0                     
  4329                           ;usb_device.c: 2646:     if(SetupPkt.RequestType != (0x00>>5)) return;
  4330   0013A0  0102               	movlb	2	; () banked
  4331   0013A2  3930               	swapf	48,w,b	;volatile
  4332   0013A4  32E8               	rrcf	wreg,f,c
  4333   0013A6  0B03               	andlw	3
  4334   0013A8  0900               	iorlw	0
  4335   0013AA  B4D8               	btfsc	status,2,c
  4336   0013AC  EFDA  F009         	goto	u2841
  4337   0013B0  EFDC  F009         	goto	u2840
  4338   0013B4                     u2841:
  4339   0013B4  EF20  F00A         	goto	l4217
  4340   0013B8                     u2840:
  4341   0013B8  EF59  F00A         	goto	l572
  4342   0013BC                     l574:
  4343                           
  4344                           ; BSR set to: 2
  4345                           ;usb_device.c: 2651:             inPipes[0].info.bits.busy = 1;
  4346   0013BC  8E42               	bsf	(_inPipes+3)^0,7,c
  4347   0013BE                     
  4348                           ; BSR set to: 2
  4349                           ;usb_device.c: 2652:             USBDeviceState = ADR_PENDING_STATE;
  4350   0013BE  0E08               	movlw	8
  4351   0013C0  6E5B               	movwf	_USBDeviceState^0,c
  4352                           
  4353                           ;usb_device.c: 2654:             break;
  4354   0013C2  EF59  F00A         	goto	l572
  4355   0013C6                     l4187:
  4356                           
  4357                           ; BSR set to: 2
  4358                           ;usb_device.c: 2656:             USBStdGetDscHandler();
  4359   0013C6  EC12  F006         	call	_USBStdGetDscHandler	;wreg free
  4360                           
  4361                           ;usb_device.c: 2657:             break;
  4362   0013CA  EF59  F00A         	goto	l572
  4363   0013CE                     l4189:
  4364                           
  4365                           ; BSR set to: 2
  4366                           ;usb_device.c: 2659:             USBStdSetCfgHandler();
  4367   0013CE  EC5F  F00D         	call	_USBStdSetCfgHandler	;wreg free
  4368                           
  4369                           ;usb_device.c: 2660:             break;
  4370   0013D2  EF59  F00A         	goto	l572
  4371   0013D6                     l4191:
  4372                           
  4373                           ; BSR set to: 2
  4374                           ;usb_device.c: 2662:             inPipes[0].pSrc.bRam = (uint8_t*)&USBActiveConfiguratio
      +                          n;
  4375   0013D6  0E5D               	movlw	low _USBActiveConfiguration
  4376   0013D8  6E3F               	movwf	_inPipes^0,c
  4377   0013DA  0E00               	movlw	high _USBActiveConfiguration
  4378   0013DC  6E40               	movwf	(_inPipes+1)^0,c
  4379   0013DE                     l4193:
  4380                           
  4381                           ; BSR set to: 2
  4382                           ;usb_device.c: 2663:             inPipes[0].info.bits.ctrl_trf_mem = 0x01;
  4383   0013DE  8042               	bsf	(_inPipes+3)^0,0,c
  4384   0013E0                     
  4385                           ; BSR set to: 2
  4386                           ;usb_device.c: 2664:             inPipes[0].wCount.v[0] = 1;
  4387   0013E0  0E01               	movlw	1
  4388   0013E2  6E43               	movwf	(_inPipes+4)^0,c
  4389   0013E4                     
  4390                           ; BSR set to: 2
  4391                           ;usb_device.c: 2665:             inPipes[0].info.bits.busy = 1;
  4392   0013E4  8E42               	bsf	(_inPipes+3)^0,7,c
  4393                           
  4394                           ;usb_device.c: 2666:             break;
  4395   0013E6  EF59  F00A         	goto	l572
  4396   0013EA                     l4199:
  4397                           
  4398                           ; BSR set to: 2
  4399                           ;usb_device.c: 2668:             USBStdGetStatusHandler();
  4400   0013EA  EC43  F009         	call	_USBStdGetStatusHandler	;wreg free
  4401                           
  4402                           ;usb_device.c: 2669:             break;
  4403   0013EE  EF59  F00A         	goto	l572
  4404   0013F2                     l4201:
  4405                           
  4406                           ; BSR set to: 2
  4407                           ;usb_device.c: 2672:             USBStdFeatureReqHandler();
  4408   0013F2  EC09  F000         	call	_USBStdFeatureReqHandler	;wreg free
  4409                           
  4410                           ;usb_device.c: 2673:             break;
  4411   0013F6  EF59  F00A         	goto	l572
  4412   0013FA                     l4203:
  4413                           
  4414                           ; BSR set to: 2
  4415                           ;usb_device.c: 2675:             inPipes[0].pSrc.bRam = (uint8_t*)&USBAlternateInterface
      +                          [SetupPkt.bIntfID];
  4416   0013FA  0EAA               	movlw	low _USBAlternateInterface
  4417   0013FC  2534               	addwf	52,w,b	;volatile
  4418   0013FE  6E3F               	movwf	_inPipes^0,c
  4419   001400  6A40               	clrf	(_inPipes+1)^0,c
  4420   001402  0E00               	movlw	high _USBAlternateInterface
  4421   001404  2240               	addwfc	(_inPipes+1)^0,f,c
  4422   001406  EFEF  F009         	goto	l4193
  4423   00140A                     l583:
  4424                           
  4425                           ; BSR set to: 2
  4426                           ;usb_device.c: 2681:             inPipes[0].info.bits.busy = 1;
  4427   00140A  8E42               	bsf	(_inPipes+3)^0,7,c
  4428   00140C                     
  4429                           ; BSR set to: 2
  4430                           ;usb_device.c: 2682:             USBAlternateInterface[SetupPkt.bIntfID] = SetupPkt.bAlt
      +                          ID;
  4431   00140C  0EAA               	movlw	low _USBAlternateInterface
  4432   00140E  2534               	addwf	52,w,b	;volatile
  4433   001410  6ED9               	movwf	fsr2l,c
  4434   001412  6ADA               	clrf	fsr2h,c
  4435   001414  0E00               	movlw	high _USBAlternateInterface
  4436   001416  22DA               	addwfc	fsr2h,f,c
  4437   001418  C232 FFDF          	movff	562,indf2	;volatile
  4438                           
  4439                           ;usb_device.c: 2683:             break;
  4440   00141C  EF59  F00A         	goto	l572
  4441   001420                     l4213:
  4442                           
  4443                           ; BSR set to: 2
  4444                           ;usb_device.c: 2685:             USER_USB_CALLBACK_EVENT_HANDLER((USB_EVENT)EVENT_SET_DE
      +                          SCRIPTOR,0,0);
  4445   001420  0E00               	movlw	0
  4446   001422  6E10               	movwf	(USER_USB_CALLBACK_EVENT_HANDLER@event+1)^0,c
  4447   001424  0E02               	movlw	2
  4448   001426  6E0F               	movwf	USER_USB_CALLBACK_EVENT_HANDLER@event^0,c
  4449   001428  0E00               	movlw	0
  4450   00142A  6E11               	movwf	USER_USB_CALLBACK_EVENT_HANDLER@pdata^0,c
  4451   00142C  0E00               	movlw	0
  4452   00142E  6E12               	movwf	(USER_USB_CALLBACK_EVENT_HANDLER@pdata+1)^0,c
  4453   001430  0E00               	movlw	0
  4454   001432  6E14               	movwf	(USER_USB_CALLBACK_EVENT_HANDLER@size+1)^0,c
  4455   001434  0E00               	movlw	0
  4456   001436  6E13               	movwf	USER_USB_CALLBACK_EVENT_HANDLER@size^0,c
  4457   001438  EC86  F00E         	call	_USER_USB_CALLBACK_EVENT_HANDLER	;wreg free
  4458                           
  4459                           ;usb_device.c: 2686:             break;
  4460   00143C  EF59  F00A         	goto	l572
  4461   001440                     l4217:
  4462                           
  4463                           ; BSR set to: 2
  4464   001440  5131               	movf	49,w,b	;volatile
  4465   001442  6E1E               	movwf	??_USBCheckStdRequest^0,c
  4466   001444  6A1F               	clrf	(??_USBCheckStdRequest+1)^0,c
  4467                           
  4468                           ; Switch on 2 bytes has been partitioned into a top level switch of size 1, and 1 sub-sw
      +                          itches
  4469                           ; Switch size 1, requested type "simple"
  4470                           ; Number of cases is 1, Range of values is 0 to 0
  4471                           ; switch strategies available:
  4472                           ; Name         Instructions Cycles
  4473                           ; simple_byte            4     3 (average)
  4474                           ;	Chosen strategy is simple_byte
  4475   001446  501F               	movf	(??_USBCheckStdRequest+1)^0,w,c
  4476   001448  0A00               	xorlw	0	; case 0
  4477   00144A  B4D8               	btfsc	status,2,c
  4478   00144C  EF2A  F00A         	goto	l5381
  4479   001450  EF59  F00A         	goto	l572
  4480   001454                     l5381:
  4481                           
  4482                           ; BSR set to: 2
  4483                           ; Switch size 1, requested type "simple"
  4484                           ; Number of cases is 11, Range of values is 0 to 12
  4485                           ; switch strategies available:
  4486                           ; Name         Instructions Cycles
  4487                           ; simple_byte           34    18 (average)
  4488                           ;	Chosen strategy is simple_byte
  4489   001454  501E               	movf	??_USBCheckStdRequest^0,w,c
  4490   001456  0A00               	xorlw	0	; case 0
  4491   001458  B4D8               	btfsc	status,2,c
  4492   00145A  EFF5  F009         	goto	l4199
  4493   00145E  0A01               	xorlw	1	; case 1
  4494   001460  B4D8               	btfsc	status,2,c
  4495   001462  EFF9  F009         	goto	l4201
  4496   001466  0A02               	xorlw	2	; case 3
  4497   001468  B4D8               	btfsc	status,2,c
  4498   00146A  EFF9  F009         	goto	l4201
  4499   00146E  0A06               	xorlw	6	; case 5
  4500   001470  B4D8               	btfsc	status,2,c
  4501   001472  EFDE  F009         	goto	l574
  4502   001476  0A03               	xorlw	3	; case 6
  4503   001478  B4D8               	btfsc	status,2,c
  4504   00147A  EFE3  F009         	goto	l4187
  4505   00147E  0A01               	xorlw	1	; case 7
  4506   001480  B4D8               	btfsc	status,2,c
  4507   001482  EF10  F00A         	goto	l4213
  4508   001486  0A0F               	xorlw	15	; case 8
  4509   001488  B4D8               	btfsc	status,2,c
  4510   00148A  EFEB  F009         	goto	l4191
  4511   00148E  0A01               	xorlw	1	; case 9
  4512   001490  B4D8               	btfsc	status,2,c
  4513   001492  EFE7  F009         	goto	l4189
  4514   001496  0A03               	xorlw	3	; case 10
  4515   001498  B4D8               	btfsc	status,2,c
  4516   00149A  EFFD  F009         	goto	l4203
  4517   00149E  0A01               	xorlw	1	; case 11
  4518   0014A0  B4D8               	btfsc	status,2,c
  4519   0014A2  EF05  F00A         	goto	l583
  4520   0014A6  0A07               	xorlw	7	; case 12
  4521   0014A8  B4D8               	btfsc	status,2,c
  4522   0014AA  EF59  F00A         	goto	l572
  4523   0014AE  EF59  F00A         	goto	l572
  4524   0014B2                     l572:
  4525   0014B2  0012               	return		;funcret
  4526   0014B4                     __end_of_USBCheckStdRequest:
  4527                           	callstack 0
  4528                           
  4529 ;; *************** function _USBStdSetCfgHandler *****************
  4530 ;; Defined at:
  4531 ;;		line 1923 in file "usb_device.c"
  4532 ;; Parameters:    Size  Location     Type
  4533 ;;		None
  4534 ;; Auto vars:     Size  Location     Type
  4535 ;;  i               1   22[COMRAM] unsigned char 
  4536 ;; Return value:  Size  Location     Type
  4537 ;;                  1    wreg      void 
  4538 ;; Registers used:
  4539 ;;		wreg, fsr2l, fsr2h, status,2, status,0, prodl, prodh, cstack
  4540 ;; Tracked objects:
  4541 ;;		On entry : 0/0
  4542 ;;		On exit  : 0/0
  4543 ;;		Unchanged: 0/0
  4544 ;; Data sizes:     COMRAM   BANK0   BANK1   BANK2
  4545 ;;      Params:         0       0       0       0
  4546 ;;      Locals:         1       0       0       0
  4547 ;;      Temps:          0       0       0       0
  4548 ;;      Totals:         1       0       0       0
  4549 ;;Total ram usage:        1 bytes
  4550 ;; Hardware stack levels used: 1
  4551 ;; Hardware stack levels required when called: 5
  4552 ;; This function calls:
  4553 ;;		_USER_USB_CALLBACK_EVENT_HANDLER
  4554 ;;		_memset
  4555 ;; This function is called by:
  4556 ;;		_USBCheckStdRequest
  4557 ;; This function uses a non-reentrant model
  4558 ;;
  4559                           
  4560                           	psect	text21
  4561   001ABE                     __ptext21:
  4562                           	callstack 0
  4563   001ABE                     _USBStdSetCfgHandler:
  4564                           	callstack 20
  4565   001ABE                     
  4566                           ;usb_device.c: 1925:     uint8_t i;;usb_device.c: 1928:     inPipes[0].info.bits.busy = 
      +                          1;
  4567   001ABE  8E42               	bsf	(_inPipes+3)^0,7,c
  4568   001AC0                     
  4569                           ;usb_device.c: 1931:     memset((void*)&UEP1,0x00,(2));;
  4570   001AC0  0E54               	movlw	84
  4571   001AC2  6E01               	movwf	memset@dest^0,c
  4572   001AC4  0E0F               	movlw	15
  4573   001AC6  6E02               	movwf	(memset@dest+1)^0,c
  4574   001AC8  0E00               	movlw	0
  4575   001ACA  6E04               	movwf	(memset@c+1)^0,c
  4576   001ACC  0E00               	movlw	0
  4577   001ACE  6E03               	movwf	memset@c^0,c
  4578   001AD0  0E00               	movlw	0
  4579   001AD2  6E06               	movwf	(memset@n+1)^0,c
  4580   001AD4  0E02               	movlw	2
  4581   001AD6  6E05               	movwf	memset@n^0,c
  4582   001AD8  ECAE  F004         	call	_memset	;wreg free
  4583                           
  4584                           ;usb_device.c: 1934:     memset((void*)&BDT[0], 0x00, sizeof(BDT));
  4585   001ADC  0E00               	movlw	0
  4586   001ADE  6E01               	movwf	memset@dest^0,c
  4587   001AE0  0E02               	movlw	2
  4588   001AE2  6E02               	movwf	(memset@dest+1)^0,c
  4589   001AE4  0E00               	movlw	0
  4590   001AE6  6E04               	movwf	(memset@c+1)^0,c
  4591   001AE8  0E00               	movlw	0
  4592   001AEA  6E03               	movwf	memset@c^0,c
  4593   001AEC  0E00               	movlw	0
  4594   001AEE  6E06               	movwf	(memset@n+1)^0,c
  4595   001AF0  0E30               	movlw	48
  4596   001AF2  6E05               	movwf	memset@n^0,c
  4597   001AF4  ECAE  F004         	call	_memset	;wreg free
  4598   001AF8                     
  4599                           ;usb_device.c: 1937:     UCONbits.PPBRST = 1;
  4600   001AF8  8C64               	bsf	100,6,c	;volatile
  4601   001AFA                     
  4602                           ;usb_device.c: 1942:  for(i = 0; i < (uint8_t)(2 +1u); i++)
  4603   001AFA  0E00               	movlw	0
  4604   001AFC  6E17               	movwf	USBStdSetCfgHandler@i^0,c
  4605   001AFE                     l3901:
  4606                           
  4607                           ;usb_device.c: 1943:  {;usb_device.c: 1944:   ep_data_in[i].Val = 0u;
  4608   001AFE  0E89               	movlw	low _ep_data_in
  4609   001B00  2417               	addwf	USBStdSetCfgHandler@i^0,w,c
  4610   001B02  6ED9               	movwf	fsr2l,c
  4611   001B04  6ADA               	clrf	fsr2h,c
  4612   001B06  0E00               	movlw	high _ep_data_in
  4613   001B08  22DA               	addwfc	fsr2h,f,c
  4614   001B0A  6ADF               	clrf	indf2,c
  4615                           
  4616                           ;usb_device.c: 1945:         ep_data_out[i].Val = 0u;
  4617   001B0C  0E86               	movlw	low _ep_data_out
  4618   001B0E  2417               	addwf	USBStdSetCfgHandler@i^0,w,c
  4619   001B10  6ED9               	movwf	fsr2l,c
  4620   001B12  6ADA               	clrf	fsr2h,c
  4621   001B14  0E00               	movlw	high _ep_data_out
  4622   001B16  22DA               	addwfc	fsr2h,f,c
  4623   001B18  6ADF               	clrf	indf2,c
  4624   001B1A                     
  4625                           ;usb_device.c: 1946:  }
  4626   001B1A  2A17               	incf	USBStdSetCfgHandler@i^0,f,c
  4627   001B1C  0E02               	movlw	2
  4628   001B1E  6417               	cpfsgt	USBStdSetCfgHandler@i^0,c
  4629   001B20  EF94  F00D         	goto	u2401
  4630   001B24  EF96  F00D         	goto	u2400
  4631   001B28                     u2401:
  4632   001B28  EF7F  F00D         	goto	l3901
  4633   001B2C                     u2400:
  4634   001B2C                     
  4635                           ;usb_device.c: 1949:     memset((void*)&USBAlternateInterface,0x00,2);
  4636   001B2C  0EAA               	movlw	low _USBAlternateInterface
  4637   001B2E  6E01               	movwf	memset@dest^0,c
  4638   001B30  0E00               	movlw	high _USBAlternateInterface
  4639   001B32  6E02               	movwf	(memset@dest+1)^0,c
  4640   001B34  0E00               	movlw	0
  4641   001B36  6E04               	movwf	(memset@c+1)^0,c
  4642   001B38  0E00               	movlw	0
  4643   001B3A  6E03               	movwf	memset@c^0,c
  4644   001B3C  0E00               	movlw	0
  4645   001B3E  6E06               	movwf	(memset@n+1)^0,c
  4646   001B40  0E02               	movlw	2
  4647   001B42  6E05               	movwf	memset@n^0,c
  4648   001B44  ECAE  F004         	call	_memset	;wreg free
  4649   001B48                     
  4650                           ;usb_device.c: 1952:     UCONbits.PPBRST = 0;
  4651   001B48  9C64               	bcf	100,6,c	;volatile
  4652   001B4A                     
  4653                           ;usb_device.c: 1954:     pBDTEntryIn[0] = (volatile BDT_ENTRY*)&BDT[2];
  4654   001B4A  0E08               	movlw	8
  4655   001B4C  6E45               	movwf	_pBDTEntryIn^0,c
  4656   001B4E  0E02               	movlw	2
  4657   001B50  6E46               	movwf	(_pBDTEntryIn+1)^0,c
  4658   001B52                     
  4659                           ;usb_device.c: 1957:     pBDTEntryEP0OutCurrent = (volatile BDT_ENTRY*)&BDT[0];
  4660   001B52  0E00               	movlw	0
  4661   001B54  6E51               	movwf	_pBDTEntryEP0OutCurrent^0,c
  4662   001B56  0E02               	movlw	2
  4663   001B58  6E52               	movwf	(_pBDTEntryEP0OutCurrent+1)^0,c
  4664   001B5A                     
  4665                           ;usb_device.c: 1958:     pBDTEntryEP0OutNext = pBDTEntryEP0OutCurrent;
  4666   001B5A  C051  F04F         	movff	_pBDTEntryEP0OutCurrent,_pBDTEntryEP0OutNext
  4667   001B5E  C052  F050         	movff	_pBDTEntryEP0OutCurrent+1,_pBDTEntryEP0OutNext+1
  4668   001B62                     
  4669                           ;usb_device.c: 1961:     USBActiveConfiguration = SetupPkt.bConfigurationValue;
  4670   001B62  C232 F05D          	movff	562,_USBActiveConfiguration	;volatile
  4671   001B66                     
  4672                           ;usb_device.c: 1964:     if(USBActiveConfiguration == 0)
  4673   001B66  505D               	movf	_USBActiveConfiguration^0,w,c
  4674   001B68  A4D8               	btfss	status,2,c
  4675   001B6A  EFB9  F00D         	goto	u2411
  4676   001B6E  EFBB  F00D         	goto	u2410
  4677   001B72                     u2411:
  4678   001B72  EFBF  F00D         	goto	l3923
  4679   001B76                     u2410:
  4680   001B76                     
  4681                           ;usb_device.c: 1965:     {;usb_device.c: 1967:         USBDeviceState = ADDRESS_STATE;
  4682   001B76  0E10               	movlw	16
  4683   001B78  6E5B               	movwf	_USBDeviceState^0,c
  4684                           
  4685                           ;usb_device.c: 1968:     }
  4686   001B7A  EFCF  F00D         	goto	l493
  4687   001B7E                     l3923:
  4688                           
  4689                           ;usb_device.c: 1970:     {;usb_device.c: 1972:         USER_USB_CALLBACK_EVENT_HANDLER((
      +                          USB_EVENT)EVENT_CONFIGURED,(void*)&USBActiveConfiguration,1);
  4690   001B7E  0E00               	movlw	0
  4691   001B80  6E10               	movwf	(USER_USB_CALLBACK_EVENT_HANDLER@event+1)^0,c
  4692   001B82  0E01               	movlw	1
  4693   001B84  6E0F               	movwf	USER_USB_CALLBACK_EVENT_HANDLER@event^0,c
  4694   001B86  0E5D               	movlw	low _USBActiveConfiguration
  4695   001B88  6E11               	movwf	USER_USB_CALLBACK_EVENT_HANDLER@pdata^0,c
  4696   001B8A  0E00               	movlw	high _USBActiveConfiguration
  4697   001B8C  6E12               	movwf	(USER_USB_CALLBACK_EVENT_HANDLER@pdata+1)^0,c
  4698   001B8E  0E00               	movlw	0
  4699   001B90  6E14               	movwf	(USER_USB_CALLBACK_EVENT_HANDLER@size+1)^0,c
  4700   001B92  0E01               	movlw	1
  4701   001B94  6E13               	movwf	USER_USB_CALLBACK_EVENT_HANDLER@size^0,c
  4702   001B96  EC86  F00E         	call	_USER_USB_CALLBACK_EVENT_HANDLER	;wreg free
  4703   001B9A                     
  4704                           ;usb_device.c: 1977:         USBDeviceState = CONFIGURED_STATE;
  4705   001B9A  0E20               	movlw	32
  4706   001B9C  6E5B               	movwf	_USBDeviceState^0,c
  4707   001B9E                     l493:
  4708   001B9E  0012               	return		;funcret
  4709   001BA0                     __end_of_USBStdSetCfgHandler:
  4710                           	callstack 0
  4711                           
  4712 ;; *************** function _memset *****************
  4713 ;; Defined at:
  4714 ;;		line 4 in file "C:\Program Files\Microchip\xc8\v2.41\pic\sources\c99\common\memset.c"
  4715 ;; Parameters:    Size  Location     Type
  4716 ;;  dest            2    0[COMRAM] PTR void 
  4717 ;;		 -> USBAlternateInterface(2), BDT(48), UEP1(1), 
  4718 ;;  c               2    2[COMRAM] int 
  4719 ;;  n               2    4[COMRAM] unsigned int 
  4720 ;; Auto vars:     Size  Location     Type
  4721 ;;  s               2   10[COMRAM] PTR unsigned char 
  4722 ;;		 -> USBAlternateInterface(2), BDT(48), UEP1(1), 
  4723 ;;  k               2    8[COMRAM] unsigned int 
  4724 ;; Return value:  Size  Location     Type
  4725 ;;                  2    0[COMRAM] PTR void 
  4726 ;; Registers used:
  4727 ;;		wreg, fsr2l, fsr2h, status,2, status,0
  4728 ;; Tracked objects:
  4729 ;;		On entry : 0/0
  4730 ;;		On exit  : 0/0
  4731 ;;		Unchanged: 0/0
  4732 ;; Data sizes:     COMRAM   BANK0   BANK1   BANK2
  4733 ;;      Params:         6       0       0       0
  4734 ;;      Locals:         4       0       0       0
  4735 ;;      Temps:          2       0       0       0
  4736 ;;      Totals:        12       0       0       0
  4737 ;;Total ram usage:       12 bytes
  4738 ;; Hardware stack levels used: 1
  4739 ;; Hardware stack levels required when called: 1
  4740 ;; This function calls:
  4741 ;;		Nothing
  4742 ;; This function is called by:
  4743 ;;		_USBDeviceInit
  4744 ;;		_USBStdSetCfgHandler
  4745 ;; This function uses a non-reentrant model
  4746 ;;
  4747                           
  4748                           	psect	text22
  4749   00095C                     __ptext22:
  4750                           	callstack 0
  4751   00095C                     _memset:
  4752                           	callstack 26
  4753   00095C  C001  F00B         	movff	memset@dest,memset@s
  4754   000960  C002  F00C         	movff	memset@dest+1,memset@s+1
  4755   000964  5005               	movf	memset@n^0,w,c
  4756   000966  1006               	iorwf	(memset@n+1)^0,w,c
  4757   000968  A4D8               	btfss	status,2,c
  4758   00096A  EFB9  F004         	goto	u2211
  4759   00096E  EFBB  F004         	goto	u2210
  4760   000972                     u2211:
  4761   000972  EFBD  F004         	goto	l3735
  4762   000976                     u2210:
  4763   000976  EF68  F005         	goto	l1575
  4764   00097A                     l3735:
  4765   00097A  C00B  FFD9         	movff	memset@s,fsr2l
  4766   00097E  C00C  FFDA         	movff	memset@s+1,fsr2h
  4767   000982  C003  FFDF         	movff	memset@c,indf2
  4768   000986  5005               	movf	memset@n^0,w,c
  4769   000988  240B               	addwf	memset@s^0,w,c
  4770   00098A  6E07               	movwf	??_memset^0,c
  4771   00098C  5006               	movf	(memset@n+1)^0,w,c
  4772   00098E  200C               	addwfc	(memset@s+1)^0,w,c
  4773   000990  6E08               	movwf	(??_memset+1)^0,c
  4774   000992  0EFF               	movlw	255
  4775   000994  2407               	addwf	??_memset^0,w,c
  4776   000996  6ED9               	movwf	fsr2l,c
  4777   000998  0EFF               	movlw	255
  4778   00099A  2008               	addwfc	(??_memset+1)^0,w,c
  4779   00099C  6EDA               	movwf	fsr2h,c
  4780   00099E  C003  FFDF         	movff	memset@c,indf2
  4781   0009A2  5006               	movf	(memset@n+1)^0,w,c
  4782   0009A4  E107               	bnz	u2221
  4783   0009A6  0E03               	movlw	3
  4784   0009A8  5C05               	subwf	memset@n^0,w,c
  4785   0009AA  B0D8               	btfsc	status,0,c
  4786   0009AC  EFDA  F004         	goto	u2221
  4787   0009B0  EFDC  F004         	goto	u2220
  4788   0009B4                     u2221:
  4789   0009B4  EFDE  F004         	goto	l3741
  4790   0009B8                     u2220:
  4791   0009B8  EF68  F005         	goto	l1575
  4792   0009BC                     l3741:
  4793   0009BC  EE20 F001          	lfsr	2,1
  4794   0009C0  500B               	movf	memset@s^0,w,c
  4795   0009C2  26D9               	addwf	fsr2l,f,c
  4796   0009C4  500C               	movf	(memset@s+1)^0,w,c
  4797   0009C6  22DA               	addwfc	fsr2h,f,c
  4798   0009C8  C003  FFDF         	movff	memset@c,indf2
  4799   0009CC  EE20 F002          	lfsr	2,2
  4800   0009D0  500B               	movf	memset@s^0,w,c
  4801   0009D2  26D9               	addwf	fsr2l,f,c
  4802   0009D4  500C               	movf	(memset@s+1)^0,w,c
  4803   0009D6  22DA               	addwfc	fsr2h,f,c
  4804   0009D8  C003  FFDF         	movff	memset@c,indf2
  4805   0009DC  5005               	movf	memset@n^0,w,c
  4806   0009DE  240B               	addwf	memset@s^0,w,c
  4807   0009E0  6E07               	movwf	??_memset^0,c
  4808   0009E2  5006               	movf	(memset@n+1)^0,w,c
  4809   0009E4  200C               	addwfc	(memset@s+1)^0,w,c
  4810   0009E6  6E08               	movwf	(??_memset+1)^0,c
  4811   0009E8  0EFE               	movlw	254
  4812   0009EA  2407               	addwf	??_memset^0,w,c
  4813   0009EC  6ED9               	movwf	fsr2l,c
  4814   0009EE  0EFF               	movlw	255
  4815   0009F0  2008               	addwfc	(??_memset+1)^0,w,c
  4816   0009F2  6EDA               	movwf	fsr2h,c
  4817   0009F4  C003  FFDF         	movff	memset@c,indf2
  4818   0009F8  5005               	movf	memset@n^0,w,c
  4819   0009FA  240B               	addwf	memset@s^0,w,c
  4820   0009FC  6E07               	movwf	??_memset^0,c
  4821   0009FE  5006               	movf	(memset@n+1)^0,w,c
  4822   000A00  200C               	addwfc	(memset@s+1)^0,w,c
  4823   000A02  6E08               	movwf	(??_memset+1)^0,c
  4824   000A04  0EFD               	movlw	253
  4825   000A06  2407               	addwf	??_memset^0,w,c
  4826   000A08  6ED9               	movwf	fsr2l,c
  4827   000A0A  0EFF               	movlw	255
  4828   000A0C  2008               	addwfc	(??_memset+1)^0,w,c
  4829   000A0E  6EDA               	movwf	fsr2h,c
  4830   000A10  C003  FFDF         	movff	memset@c,indf2
  4831   000A14  5006               	movf	(memset@n+1)^0,w,c
  4832   000A16  E107               	bnz	u2231
  4833   000A18  0E07               	movlw	7
  4834   000A1A  5C05               	subwf	memset@n^0,w,c
  4835   000A1C  B0D8               	btfsc	status,0,c
  4836   000A1E  EF13  F005         	goto	u2231
  4837   000A22  EF15  F005         	goto	u2230
  4838   000A26                     u2231:
  4839   000A26  EF17  F005         	goto	l3747
  4840   000A2A                     u2230:
  4841   000A2A  EF68  F005         	goto	l1575
  4842   000A2E                     l3747:
  4843   000A2E  EE20 F003          	lfsr	2,3
  4844   000A32  500B               	movf	memset@s^0,w,c
  4845   000A34  26D9               	addwf	fsr2l,f,c
  4846   000A36  500C               	movf	(memset@s+1)^0,w,c
  4847   000A38  22DA               	addwfc	fsr2h,f,c
  4848   000A3A  C003  FFDF         	movff	memset@c,indf2
  4849   000A3E  5005               	movf	memset@n^0,w,c
  4850   000A40  240B               	addwf	memset@s^0,w,c
  4851   000A42  6E07               	movwf	??_memset^0,c
  4852   000A44  5006               	movf	(memset@n+1)^0,w,c
  4853   000A46  200C               	addwfc	(memset@s+1)^0,w,c
  4854   000A48  6E08               	movwf	(??_memset+1)^0,c
  4855   000A4A  0EFC               	movlw	252
  4856   000A4C  2407               	addwf	??_memset^0,w,c
  4857   000A4E  6ED9               	movwf	fsr2l,c
  4858   000A50  0EFF               	movlw	255
  4859   000A52  2008               	addwfc	(??_memset+1)^0,w,c
  4860   000A54  6EDA               	movwf	fsr2h,c
  4861   000A56  C003  FFDF         	movff	memset@c,indf2
  4862   000A5A  5006               	movf	(memset@n+1)^0,w,c
  4863   000A5C  E107               	bnz	u2241
  4864   000A5E  0E09               	movlw	9
  4865   000A60  5C05               	subwf	memset@n^0,w,c
  4866   000A62  B0D8               	btfsc	status,0,c
  4867   000A64  EF36  F005         	goto	u2241
  4868   000A68  EF38  F005         	goto	u2240
  4869   000A6C                     u2241:
  4870   000A6C  EF3A  F005         	goto	l3753
  4871   000A70                     u2240:
  4872   000A70  EF68  F005         	goto	l1575
  4873   000A74                     l3753:
  4874   000A74  C00B  F007         	movff	memset@s,??_memset
  4875   000A78  C00C  F008         	movff	memset@s+1,??_memset+1
  4876   000A7C  1E07               	comf	??_memset^0,f,c
  4877   000A7E  1E08               	comf	(??_memset+1)^0,f,c
  4878   000A80  4A07               	infsnz	??_memset^0,f,c
  4879   000A82  2A08               	incf	(??_memset+1)^0,f,c
  4880   000A84  0E03               	movlw	3
  4881   000A86  1407               	andwf	??_memset^0,w,c
  4882   000A88  6E09               	movwf	memset@k^0,c
  4883   000A8A  6A0A               	clrf	(memset@k+1)^0,c
  4884   000A8C  5009               	movf	memset@k^0,w,c
  4885   000A8E  260B               	addwf	memset@s^0,f,c
  4886   000A90  500A               	movf	(memset@k+1)^0,w,c
  4887   000A92  220C               	addwfc	(memset@s+1)^0,f,c
  4888   000A94  5009               	movf	memset@k^0,w,c
  4889   000A96  5E05               	subwf	memset@n^0,f,c
  4890   000A98  500A               	movf	(memset@k+1)^0,w,c
  4891   000A9A  5A06               	subwfb	(memset@n+1)^0,f,c
  4892   000A9C  0EFC               	movlw	252
  4893   000A9E  1605               	andwf	memset@n^0,f,c
  4894   000AA0  0EFF               	movlw	255
  4895   000AA2  1606               	andwf	(memset@n+1)^0,f,c
  4896   000AA4  EF5F  F005         	goto	l3761
  4897   000AA8                     l3755:
  4898   000AA8  C00B  FFD9         	movff	memset@s,fsr2l
  4899   000AAC  C00C  FFDA         	movff	memset@s+1,fsr2h
  4900   000AB0  C003  FFDF         	movff	memset@c,indf2
  4901   000AB4  0605               	decf	memset@n^0,f,c
  4902   000AB6  A0D8               	btfss	status,0,c
  4903   000AB8  0606               	decf	(memset@n+1)^0,f,c
  4904   000ABA  4A0B               	infsnz	memset@s^0,f,c
  4905   000ABC  2A0C               	incf	(memset@s+1)^0,f,c
  4906   000ABE                     l3761:
  4907   000ABE  5005               	movf	memset@n^0,w,c
  4908   000AC0  1006               	iorwf	(memset@n+1)^0,w,c
  4909   000AC2  A4D8               	btfss	status,2,c
  4910   000AC4  EF66  F005         	goto	u2251
  4911   000AC8  EF68  F005         	goto	u2250
  4912   000ACC                     u2251:
  4913   000ACC  EF54  F005         	goto	l3755
  4914   000AD0                     u2250:
  4915   000AD0                     l1575:
  4916   000AD0  0012               	return		;funcret
  4917   000AD2                     __end_of_memset:
  4918                           	callstack 0
  4919                           
  4920 ;; *************** function _USBStdGetStatusHandler *****************
  4921 ;; Defined at:
  4922 ;;		line 2084 in file "usb_device.c"
  4923 ;; Parameters:    Size  Location     Type
  4924 ;;		None
  4925 ;; Auto vars:     Size  Location     Type
  4926 ;;  p               2    2[COMRAM] PTR struct __BDT
  4927 ;;		 -> RAM(767), BDT(48), NULL(0), 
  4928 ;; Return value:  Size  Location     Type
  4929 ;;                  1    wreg      void 
  4930 ;; Registers used:
  4931 ;;		wreg, fsr2l, fsr2h, status,2, status,0, prodl, prodh
  4932 ;; Tracked objects:
  4933 ;;		On entry : 0/0
  4934 ;;		On exit  : 0/0
  4935 ;;		Unchanged: 0/0
  4936 ;; Data sizes:     COMRAM   BANK0   BANK1   BANK2
  4937 ;;      Params:         0       0       0       0
  4938 ;;      Locals:         2       0       0       0
  4939 ;;      Temps:          2       0       0       0
  4940 ;;      Totals:         4       0       0       0
  4941 ;;Total ram usage:        4 bytes
  4942 ;; Hardware stack levels used: 1
  4943 ;; Hardware stack levels required when called: 1
  4944 ;; This function calls:
  4945 ;;		Nothing
  4946 ;; This function is called by:
  4947 ;;		_USBCheckStdRequest
  4948 ;; This function uses a non-reentrant model
  4949 ;;
  4950                           
  4951                           	psect	text23
  4952   001286                     __ptext23:
  4953                           	callstack 0
  4954   001286                     _USBStdGetStatusHandler:
  4955                           	callstack 24
  4956   001286                     
  4957                           ;usb_device.c: 2086:     CtrlTrfData[0] = 0;
  4958   001286  0E00               	movlw	0
  4959   001288  0102               	movlb	2	; () banked
  4960   00128A  6F38               	movwf	56,b	;volatile
  4961                           
  4962                           ;usb_device.c: 2087:     CtrlTrfData[1] = 0;
  4963   00128C  0E00               	movlw	0
  4964   00128E  6F39               	movwf	57,b	;volatile
  4965                           
  4966                           ;usb_device.c: 2089:     switch(SetupPkt.Recipient)
  4967   001290  EFA7  F009         	goto	l3989
  4968   001294                     l511:
  4969                           
  4970                           ; BSR set to: 2
  4971                           ;usb_device.c: 2092:             inPipes[0].info.bits.busy = 1;
  4972   001294  8E42               	bsf	(_inPipes+3)^0,7,c
  4973   001296                     
  4974                           ; BSR set to: 2
  4975                           ;usb_device.c: 2102:             if(RemoteWakeup == 1)
  4976   001296  0100               	movlb	0	; () banked
  4977   001298  059A               	decf	_RemoteWakeup& (0+255),w,b
  4978   00129A  A4D8               	btfss	status,2,c
  4979   00129C  EF52  F009         	goto	u2481
  4980   0012A0  EF54  F009         	goto	u2480
  4981   0012A4                     u2481:
  4982   0012A4  EFC1  F009         	goto	l514
  4983   0012A8                     u2480:
  4984   0012A8                     
  4985                           ; BSR set to: 0
  4986                           ;usb_device.c: 2103:             {;usb_device.c: 2104:                 CtrlTrfData[0]|=0
      +                          x02;
  4987   0012A8  0102               	movlb	2	; () banked
  4988   0012AA  8338               	bsf	56,1,b	;volatile
  4989   0012AC  EFC1  F009         	goto	l514
  4990   0012B0                     l515:
  4991                           
  4992                           ; BSR set to: 2
  4993                           ;usb_device.c: 2108:             inPipes[0].info.bits.busy = 1;
  4994   0012B0  8E42               	bsf	(_inPipes+3)^0,7,c
  4995                           
  4996                           ;usb_device.c: 2109:             break;
  4997   0012B2  EFC1  F009         	goto	l514
  4998   0012B6                     l516:
  4999                           
  5000                           ; BSR set to: 2
  5001                           ;usb_device.c: 2111:             inPipes[0].info.bits.busy = 1;
  5002   0012B6  8E42               	bsf	(_inPipes+3)^0,7,c
  5003   0012B8                     
  5004                           ; BSR set to: 2
  5005                           ;usb_device.c: 2115:             if(SetupPkt.EPNum != 0)
  5006   0012B8  5134               	movf	52,w,b	;volatile
  5007   0012BA  0B0F               	andlw	15
  5008   0012BC  0900               	iorlw	0
  5009   0012BE  B4D8               	btfsc	status,2,c
  5010   0012C0  EF64  F009         	goto	u2491
  5011   0012C4  EF66  F009         	goto	u2490
  5012   0012C8                     u2491:
  5013   0012C8  EFC1  F009         	goto	l514
  5014   0012CC                     u2490:
  5015   0012CC                     
  5016                           ; BSR set to: 2
  5017                           ;usb_device.c: 2116:             {;usb_device.c: 2117:                 BDT_ENTRY *p;;usb
      +                          _device.c: 2119:                 if(SetupPkt.EPDir == 0)
  5018   0012CC  BF34               	btfsc	52,7,b	;volatile
  5019   0012CE  EF6B  F009         	goto	u2501
  5020   0012D2  EF6D  F009         	goto	u2500
  5021   0012D6                     u2501:
  5022   0012D6  EF7E  F009         	goto	l3979
  5023   0012DA                     u2500:
  5024   0012DA                     
  5025                           ; BSR set to: 2
  5026                           ;usb_device.c: 2120:                 {;usb_device.c: 2121:                     p = (BDT_
      +                          ENTRY*)pBDTEntryOut[SetupPkt.EPNum];
  5027   0012DA  5134               	movf	52,w,b	;volatile
  5028   0012DC  0B0F               	andlw	15
  5029   0012DE  6E01               	movwf	??_USBStdGetStatusHandler^0,c
  5030   0012E0  5001               	movf	??_USBStdGetStatusHandler^0,w,c
  5031   0012E2  0D02               	mullw	2
  5032   0012E4  0E72               	movlw	low _pBDTEntryOut
  5033   0012E6  24F3               	addwf	243,w,c
  5034   0012E8  6ED9               	movwf	fsr2l,c
  5035   0012EA  0E00               	movlw	high _pBDTEntryOut
  5036   0012EC  20F4               	addwfc	prodh,w,c
  5037   0012EE  6EDA               	movwf	fsr2h,c
  5038   0012F0  CFDE F003          	movff	postinc2,USBStdGetStatusHandler@p
  5039   0012F4  CFDD F004          	movff	postdec2,USBStdGetStatusHandler@p+1
  5040                           
  5041                           ;usb_device.c: 2122:                 }
  5042   0012F8  EF8D  F009         	goto	l3981
  5043   0012FC                     l3979:
  5044                           
  5045                           ; BSR set to: 2
  5046                           ;usb_device.c: 2124:                 {;usb_device.c: 2125:                     p = (BDT_
      +                          ENTRY*)pBDTEntryIn[SetupPkt.EPNum];
  5047   0012FC  5134               	movf	52,w,b	;volatile
  5048   0012FE  0B0F               	andlw	15
  5049   001300  6E01               	movwf	??_USBStdGetStatusHandler^0,c
  5050   001302  5001               	movf	??_USBStdGetStatusHandler^0,w,c
  5051   001304  0D02               	mullw	2
  5052   001306  0E45               	movlw	low _pBDTEntryIn
  5053   001308  24F3               	addwf	243,w,c
  5054   00130A  6ED9               	movwf	fsr2l,c
  5055   00130C  0E00               	movlw	high _pBDTEntryIn
  5056   00130E  20F4               	addwfc	prodh,w,c
  5057   001310  6EDA               	movwf	fsr2h,c
  5058   001312  CFDE F003          	movff	postinc2,USBStdGetStatusHandler@p
  5059   001316  CFDD F004          	movff	postdec2,USBStdGetStatusHandler@p+1
  5060   00131A                     l3981:
  5061                           
  5062                           ; BSR set to: 2
  5063                           ;usb_device.c: 2128:                 if((p->STAT.UOWN == 1) && (p->STAT.BSTALL == 1))
  5064   00131A  C003  FFD9         	movff	USBStdGetStatusHandler@p,fsr2l
  5065   00131E  C004  FFDA         	movff	USBStdGetStatusHandler@p+1,fsr2h
  5066   001322  AEDF               	btfss	indf2,7,c
  5067   001324  EF96  F009         	goto	u2511
  5068   001328  EF98  F009         	goto	u2510
  5069   00132C                     u2511:
  5070   00132C  EFC1  F009         	goto	l514
  5071   001330                     u2510:
  5072   001330                     
  5073                           ; BSR set to: 2
  5074   001330  C003  FFD9         	movff	USBStdGetStatusHandler@p,fsr2l
  5075   001334  C004  FFDA         	movff	USBStdGetStatusHandler@p+1,fsr2h
  5076   001338  A4DF               	btfss	indf2,2,c
  5077   00133A  EFA1  F009         	goto	u2521
  5078   00133E  EFA3  F009         	goto	u2520
  5079   001342                     u2521:
  5080   001342  EFC1  F009         	goto	l514
  5081   001346                     u2520:
  5082   001346                     
  5083                           ; BSR set to: 2
  5084                           ;usb_device.c: 2129:                 {;usb_device.c: 2130:                     CtrlTrfDa
      +                          ta[0]=0x01;
  5085   001346  0E01               	movlw	1
  5086   001348  6F38               	movwf	56,b	;volatile
  5087   00134A  EFC1  F009         	goto	l514
  5088   00134E                     l3989:
  5089                           
  5090                           ; BSR set to: 2
  5091   00134E  5130               	movf	48,w,b	;volatile
  5092   001350  0B1F               	andlw	31
  5093   001352  6E01               	movwf	??_USBStdGetStatusHandler^0,c
  5094   001354  6A02               	clrf	(??_USBStdGetStatusHandler+1)^0,c
  5095                           
  5096                           ; Switch on 2 bytes has been partitioned into a top level switch of size 1, and 1 sub-sw
      +                          itches
  5097                           ; Switch size 1, requested type "simple"
  5098                           ; Number of cases is 1, Range of values is 0 to 0
  5099                           ; switch strategies available:
  5100                           ; Name         Instructions Cycles
  5101                           ; simple_byte            4     3 (average)
  5102                           ;	Chosen strategy is simple_byte
  5103   001356  5002               	movf	(??_USBStdGetStatusHandler+1)^0,w,c
  5104   001358  0A00               	xorlw	0	; case 0
  5105   00135A  B4D8               	btfsc	status,2,c
  5106   00135C  EFB2  F009         	goto	l5383
  5107   001360  EFC1  F009         	goto	l514
  5108   001364                     l5383:
  5109                           
  5110                           ; BSR set to: 2
  5111                           ; Switch size 1, requested type "simple"
  5112                           ; Number of cases is 3, Range of values is 0 to 2
  5113                           ; switch strategies available:
  5114                           ; Name         Instructions Cycles
  5115                           ; simple_byte           10     6 (average)
  5116                           ;	Chosen strategy is simple_byte
  5117   001364  5001               	movf	??_USBStdGetStatusHandler^0,w,c
  5118   001366  0A00               	xorlw	0	; case 0
  5119   001368  B4D8               	btfsc	status,2,c
  5120   00136A  EF4A  F009         	goto	l511
  5121   00136E  0A01               	xorlw	1	; case 1
  5122   001370  B4D8               	btfsc	status,2,c
  5123   001372  EF58  F009         	goto	l515
  5124   001376  0A03               	xorlw	3	; case 2
  5125   001378  B4D8               	btfsc	status,2,c
  5126   00137A  EF5B  F009         	goto	l516
  5127   00137E  EFC1  F009         	goto	l514
  5128   001382                     l514:
  5129                           
  5130                           ;usb_device.c: 2136:     if(inPipes[0].info.bits.busy == 1)
  5131   001382  AE42               	btfss	(_inPipes+3)^0,7,c
  5132   001384  EFC6  F009         	goto	u2531
  5133   001388  EFC8  F009         	goto	u2530
  5134   00138C                     u2531:
  5135   00138C  EFCF  F009         	goto	l522
  5136   001390                     u2530:
  5137   001390                     
  5138                           ;usb_device.c: 2137:     {;usb_device.c: 2138:         inPipes[0].pSrc.bRam = (uint8_t*)
      +                          &CtrlTrfData;
  5139   001390  0E38               	movlw	56
  5140   001392  6E3F               	movwf	_inPipes^0,c
  5141   001394  0E02               	movlw	2
  5142   001396  6E40               	movwf	(_inPipes+1)^0,c
  5143   001398                     
  5144                           ;usb_device.c: 2139:         inPipes[0].info.bits.ctrl_trf_mem = 0x01;
  5145   001398  8042               	bsf	(_inPipes+3)^0,0,c
  5146   00139A                     
  5147                           ;usb_device.c: 2140:         inPipes[0].wCount.v[0] = 2;
  5148   00139A  0E02               	movlw	2
  5149   00139C  6E43               	movwf	(_inPipes+4)^0,c
  5150   00139E                     l522:
  5151   00139E  0012               	return		;funcret
  5152   0013A0                     __end_of_USBStdGetStatusHandler:
  5153                           	callstack 0
  5154                           
  5155 ;; *************** function _USBStdGetDscHandler *****************
  5156 ;; Defined at:
  5157 ;;		line 1998 in file "usb_device.c"
  5158 ;; Parameters:    Size  Location     Type
  5159 ;;		None
  5160 ;; Auto vars:     Size  Location     Type
  5161 ;;		None
  5162 ;; Return value:  Size  Location     Type
  5163 ;;                  1    wreg      void 
  5164 ;; Registers used:
  5165 ;;		wreg, fsr1l, fsr1h, status,2, status,0, tblptrl, tblptrh, tblptru, prodl, prodh
  5166 ;; Tracked objects:
  5167 ;;		On entry : 0/0
  5168 ;;		On exit  : 0/0
  5169 ;;		Unchanged: 0/0
  5170 ;; Data sizes:     COMRAM   BANK0   BANK1   BANK2
  5171 ;;      Params:         0       0       0       0
  5172 ;;      Locals:         0       0       0       0
  5173 ;;      Temps:          2       0       0       0
  5174 ;;      Totals:         2       0       0       0
  5175 ;;Total ram usage:        2 bytes
  5176 ;; Hardware stack levels used: 1
  5177 ;; Hardware stack levels required when called: 1
  5178 ;; This function calls:
  5179 ;;		Nothing
  5180 ;; This function is called by:
  5181 ;;		_USBCheckStdRequest
  5182 ;; This function uses a non-reentrant model
  5183 ;;
  5184                           
  5185                           	psect	text24
  5186   000C24                     __ptext24:
  5187                           	callstack 0
  5188   000C24                     _USBStdGetDscHandler:
  5189                           	callstack 24
  5190   000C24                     
  5191                           ;usb_device.c: 2000:     if(SetupPkt.bmRequestType == 0x80)
  5192   000C24  0E80               	movlw	128
  5193   000C26  0102               	movlb	2	; () banked
  5194   000C28  1930               	xorwf	48,w,b	;volatile
  5195   000C2A  A4D8               	btfss	status,2,c
  5196   000C2C  EF1A  F006         	goto	u2421
  5197   000C30  EF1C  F006         	goto	u2420
  5198   000C34                     u2421:
  5199   000C34  EFB9  F006         	goto	l507
  5200   000C38                     u2420:
  5201   000C38                     
  5202                           ; BSR set to: 2
  5203                           ;usb_device.c: 2001:     {;usb_device.c: 2002:         inPipes[0].info.Val = 0x00 | 0x80
      +                           | 0x40;
  5204   000C38  0EC0               	movlw	192
  5205   000C3A  6E42               	movwf	(_inPipes+3)^0,c
  5206                           
  5207                           ;usb_device.c: 2004:         switch(SetupPkt.bDescriptorType)
  5208   000C3C  EFA0  F006         	goto	l3957
  5209   000C40                     l3931:
  5210                           
  5211                           ; BSR set to: 2
  5212                           ;usb_device.c: 2010:                     inPipes[0].pSrc.bRom = (const uint8_t*)&device_
      +                          dsc;
  5213   000C40  0E76               	movlw	low _device_dsc
  5214   000C42  6E3F               	movwf	_inPipes^0,c
  5215   000C44  0E3F               	movlw	high _device_dsc
  5216   000C46  6E40               	movwf	(_inPipes+1)^0,c
  5217   000C48                     
  5218                           ; BSR set to: 2
  5219                           ;usb_device.c: 2012:                 inPipes[0].wCount.Val = sizeof(device_dsc);
  5220   000C48  0E00               	movlw	0
  5221   000C4A  6E44               	movwf	(_inPipes+5)^0,c
  5222   000C4C  0E12               	movlw	18
  5223   000C4E  6E43               	movwf	(_inPipes+4)^0,c
  5224                           
  5225                           ;usb_device.c: 2013:                 break;
  5226   000C50  EFB9  F006         	goto	l507
  5227   000C54                     l3935:
  5228                           
  5229                           ; BSR set to: 2
  5230                           ;usb_device.c: 2018:                 if(SetupPkt.bDscIndex < 1)
  5231   000C54  5132               	movf	50,w,b	;volatile
  5232   000C56  A4D8               	btfss	status,2,c
  5233   000C58  EF30  F006         	goto	u2431
  5234   000C5C  EF32  F006         	goto	u2430
  5235   000C60                     u2431:
  5236   000C60  EF70  F006         	goto	l3943
  5237   000C64                     u2430:
  5238   000C64                     
  5239                           ; BSR set to: 2
  5240                           ;usb_device.c: 2019:                 {;usb_device.c: 2023:                         inPip
      +                          es[0].pSrc.bRom = *(USB_CD_Ptr+SetupPkt.bDscIndex);
  5241   000C64  5132               	movf	50,w,b	;volatile
  5242   000C66  0D02               	mullw	2
  5243   000C68  0EC9               	movlw	low _USB_CD_Ptr
  5244   000C6A  24F3               	addwf	243,w,c
  5245   000C6C  6EF6               	movwf	tblptrl,c
  5246   000C6E  0E3E               	movlw	high _USB_CD_Ptr
  5247   000C70  20F4               	addwfc	244,w,c
  5248   000C72  6EF7               	movwf	tblptrh,c
  5249   000C74                     	if	0	;There are less than 3 active tblptr bytes
  5250   000C74                     	endif
  5251   000C74  0009               	tblrd		*+
  5252   000C76  CFF5 F03F          	movff	tablat,_inPipes
  5253   000C7A  000A               	tblrd		*-
  5254   000C7C  CFF5 F040          	movff	tablat,_inPipes+1
  5255   000C80                     
  5256                           ; BSR set to: 2
  5257                           ;usb_device.c: 2029:                     inPipes[0].wCount.byte.LB = *(inPipes[0].pSrc.b
      +                          Rom+2);
  5258   000C80  0E02               	movlw	2
  5259   000C82  243F               	addwf	_inPipes^0,w,c
  5260   000C84  6E01               	movwf	??_USBStdGetDscHandler^0,c
  5261   000C86  0E00               	movlw	0
  5262   000C88  2040               	addwfc	(_inPipes+1)^0,w,c
  5263   000C8A  6E02               	movwf	(??_USBStdGetDscHandler+1)^0,c
  5264   000C8C  C001  FFF6         	movff	??_USBStdGetDscHandler,tblptrl
  5265   000C90  C002  FFF7         	movff	??_USBStdGetDscHandler+1,tblptrh
  5266   000C94  6AF8               	clrf	tblptru,c
  5267   000C96  0E02               	movlw	(high __ramtop+-1)
  5268   000C98  64F7               	cpfsgt	tblptrh,c
  5269   000C9A  D003               	bra	u2447
  5270   000C9C  0008               	tblrd		*
  5271   000C9E  50F5               	movf	tablat,w,c
  5272   000CA0  D005               	bra	u2440
  5273   000CA2                     u2447:
  5274   000CA2  CFF6 FFE1          	movff	tblptrl,fsr1l
  5275   000CA6  CFF7 FFE2          	movff	tblptrh,fsr1h
  5276   000CAA  50E7               	movf	indf1,w,c
  5277   000CAC                     u2440:
  5278   000CAC  6E43               	movwf	(_inPipes+4)^0,c
  5279   000CAE                     
  5280                           ;usb_device.c: 2030:                     inPipes[0].wCount.byte.HB = *(inPipes[0].pSrc.b
      +                          Rom+3);
  5281   000CAE  0E03               	movlw	3
  5282   000CB0  243F               	addwf	_inPipes^0,w,c
  5283   000CB2  6E01               	movwf	??_USBStdGetDscHandler^0,c
  5284   000CB4  0E00               	movlw	0
  5285   000CB6  2040               	addwfc	(_inPipes+1)^0,w,c
  5286   000CB8  6E02               	movwf	(??_USBStdGetDscHandler+1)^0,c
  5287   000CBA  C001  FFF6         	movff	??_USBStdGetDscHandler,tblptrl
  5288   000CBE  C002  FFF7         	movff	??_USBStdGetDscHandler+1,tblptrh
  5289   000CC2  6AF8               	clrf	tblptru,c
  5290   000CC4  0E02               	movlw	(high __ramtop+-1)
  5291   000CC6  64F7               	cpfsgt	tblptrh,c
  5292   000CC8  D003               	bra	u2457
  5293   000CCA  0008               	tblrd		*
  5294   000CCC  50F5               	movf	tablat,w,c
  5295   000CCE  D005               	bra	u2450
  5296   000CD0                     u2457:
  5297   000CD0  CFF6 FFE1          	movff	tblptrl,fsr1l
  5298   000CD4  CFF7 FFE2          	movff	tblptrh,fsr1h
  5299   000CD8  50E7               	movf	indf1,w,c
  5300   000CDA                     u2450:
  5301   000CDA  6E44               	movwf	(_inPipes+5)^0,c
  5302                           
  5303                           ;usb_device.c: 2031:                 }
  5304   000CDC  EFB9  F006         	goto	l507
  5305   000CE0                     l3943:
  5306                           
  5307                           ; BSR set to: 2
  5308                           ;usb_device.c: 2033:     {;usb_device.c: 2034:      inPipes[0].info.Val = 0;
  5309   000CE0  0E00               	movlw	0
  5310   000CE2  6E42               	movwf	(_inPipes+3)^0,c
  5311   000CE4  EFB9  F006         	goto	l507
  5312   000CE8                     l3945:
  5313                           
  5314                           ; BSR set to: 2
  5315                           ;usb_device.c: 2041:                 if(SetupPkt.bDscIndex<3)
  5316   000CE8  0E03               	movlw	3
  5317   000CEA  6132               	cpfslt	50,b	;volatile
  5318   000CEC  EF7A  F006         	goto	u2461
  5319   000CF0  EF7C  F006         	goto	u2460
  5320   000CF4                     u2461:
  5321   000CF4  EF70  F006         	goto	l3943
  5322   000CF8                     u2460:
  5323   000CF8                     
  5324                           ; BSR set to: 2
  5325                           ;usb_device.c: 2042:                 {;usb_device.c: 2044:                     inPipes[0
      +                          ].pSrc.bRom = *(USB_SD_Ptr+SetupPkt.bDscIndex);
  5326   000CF8  5132               	movf	50,w,b	;volatile
  5327   000CFA  0D02               	mullw	2
  5328   000CFC  0EC3               	movlw	low _USB_SD_Ptr
  5329   000CFE  24F3               	addwf	243,w,c
  5330   000D00  6EF6               	movwf	tblptrl,c
  5331   000D02  0E3E               	movlw	high _USB_SD_Ptr
  5332   000D04  20F4               	addwfc	244,w,c
  5333   000D06  6EF7               	movwf	tblptrh,c
  5334   000D08                     	if	0	;There are less than 3 active tblptr bytes
  5335   000D08                     	endif
  5336   000D08  0009               	tblrd		*+
  5337   000D0A  CFF5 F03F          	movff	tablat,_inPipes
  5338   000D0E  000A               	tblrd		*-
  5339   000D10  CFF5 F040          	movff	tablat,_inPipes+1
  5340   000D14                     
  5341                           ; BSR set to: 2
  5342                           ;usb_device.c: 2046:                     inPipes[0].wCount.Val = *inPipes[0].pSrc.bRom;
  5343   000D14  C03F  FFF6         	movff	_inPipes,tblptrl
  5344   000D18  C040  FFF7         	movff	_inPipes+1,tblptrh
  5345   000D1C  6AF8               	clrf	tblptru,c
  5346   000D1E  0E02               	movlw	(high __ramtop+-1)
  5347   000D20  64F7               	cpfsgt	tblptrh,c
  5348   000D22  D003               	bra	u2477
  5349   000D24  0008               	tblrd		*
  5350   000D26  50F5               	movf	tablat,w,c
  5351   000D28  D005               	bra	u2470
  5352   000D2A                     u2477:
  5353   000D2A  CFF6 FFE1          	movff	tblptrl,fsr1l
  5354   000D2E  CFF7 FFE2          	movff	tblptrh,fsr1h
  5355   000D32  50E7               	movf	indf1,w,c
  5356   000D34                     u2470:
  5357   000D34  6E01               	movwf	??_USBStdGetDscHandler^0,c
  5358   000D36  5001               	movf	??_USBStdGetDscHandler^0,w,c
  5359   000D38  6E43               	movwf	(_inPipes+4)^0,c
  5360   000D3A  6A44               	clrf	(_inPipes+5)^0,c
  5361                           
  5362                           ;usb_device.c: 2047:                 }
  5363   000D3C  EFB9  F006         	goto	l507
  5364   000D40                     l3957:
  5365                           
  5366                           ; BSR set to: 2
  5367   000D40  5133               	movf	51,w,b	;volatile
  5368   000D42  6E01               	movwf	??_USBStdGetDscHandler^0,c
  5369   000D44  6A02               	clrf	(??_USBStdGetDscHandler+1)^0,c
  5370                           
  5371                           ; Switch on 2 bytes has been partitioned into a top level switch of size 1, and 1 sub-sw
      +                          itches
  5372                           ; Switch size 1, requested type "simple"
  5373                           ; Number of cases is 1, Range of values is 0 to 0
  5374                           ; switch strategies available:
  5375                           ; Name         Instructions Cycles
  5376                           ; simple_byte            4     3 (average)
  5377                           ;	Chosen strategy is simple_byte
  5378   000D46  5002               	movf	(??_USBStdGetDscHandler+1)^0,w,c
  5379   000D48  0A00               	xorlw	0	; case 0
  5380   000D4A  B4D8               	btfsc	status,2,c
  5381   000D4C  EFAA  F006         	goto	l5385
  5382   000D50  EF70  F006         	goto	l3943
  5383   000D54                     l5385:
  5384                           
  5385                           ; BSR set to: 2
  5386                           ; Switch size 1, requested type "simple"
  5387                           ; Number of cases is 3, Range of values is 1 to 3
  5388                           ; switch strategies available:
  5389                           ; Name         Instructions Cycles
  5390                           ; simple_byte           10     6 (average)
  5391                           ;	Chosen strategy is simple_byte
  5392   000D54  5001               	movf	??_USBStdGetDscHandler^0,w,c
  5393   000D56  0A01               	xorlw	1	; case 1
  5394   000D58  B4D8               	btfsc	status,2,c
  5395   000D5A  EF20  F006         	goto	l3931
  5396   000D5E  0A03               	xorlw	3	; case 2
  5397   000D60  B4D8               	btfsc	status,2,c
  5398   000D62  EF2A  F006         	goto	l3935
  5399   000D66  0A01               	xorlw	1	; case 3
  5400   000D68  B4D8               	btfsc	status,2,c
  5401   000D6A  EF74  F006         	goto	l3945
  5402   000D6E  EF70  F006         	goto	l3943
  5403   000D72                     l507:
  5404   000D72  0012               	return		;funcret
  5405   000D74                     __end_of_USBStdGetDscHandler:
  5406                           	callstack 0
  5407                           
  5408 ;; *************** function _USBStdFeatureReqHandler *****************
  5409 ;; Defined at:
  5410 ;;		line 2712 in file "usb_device.c"
  5411 ;; Parameters:    Size  Location     Type
  5412 ;;		None
  5413 ;; Auto vars:     Size  Location     Type
  5414 ;;  p               2   27[COMRAM] PTR struct __BDT
  5415 ;;		 -> RAM(767), BDT(48), NULL(0), 
  5416 ;;  pUEP            2   24[COMRAM] PTR unsigned char 
  5417 ;;		 -> UEP0(1), 
  5418 ;;  current_ep_d    1   26[COMRAM] struct .
  5419 ;; Return value:  Size  Location     Type
  5420 ;;                  1    wreg      void 
  5421 ;; Registers used:
  5422 ;;		wreg, fsr2l, fsr2h, status,2, status,0, prodl, prodh, cstack
  5423 ;; Tracked objects:
  5424 ;;		On entry : 0/0
  5425 ;;		On exit  : 0/0
  5426 ;;		Unchanged: 0/0
  5427 ;; Data sizes:     COMRAM   BANK0   BANK1   BANK2
  5428 ;;      Params:         0       0       0       0
  5429 ;;      Locals:         5       0       0       0
  5430 ;;      Temps:          2       0       0       0
  5431 ;;      Totals:         7       0       0       0
  5432 ;;Total ram usage:        7 bytes
  5433 ;; Hardware stack levels used: 1
  5434 ;; Hardware stack levels required when called: 5
  5435 ;; This function calls:
  5436 ;;		_USER_USB_CALLBACK_EVENT_HANDLER
  5437 ;; This function is called by:
  5438 ;;		_USBCheckStdRequest
  5439 ;; This function uses a non-reentrant model
  5440 ;;
  5441                           
  5442                           	psect	text25
  5443   000012                     __ptext25:
  5444                           	callstack 0
  5445   000012                     _USBStdFeatureReqHandler:
  5446                           	callstack 20
  5447   000012                     
  5448                           ;usb_device.c: 2714:     BDT_ENTRY *p;;usb_device.c: 2715:     EP_STATUS current_ep_data
      +                          ;;usb_device.c: 2719:         unsigned char* pUEP;;usb_device.c: 2723:     if((SetupPkt.
      +                          bFeature == 1)&&
  5449   000012  0102               	movlb	2	; () banked
  5450   000014  0532               	decf	50,w,b	;volatile
  5451   000016  A4D8               	btfss	status,2,c
  5452   000018  EF10  F000         	goto	u2541
  5453   00001C  EF12  F000         	goto	u2540
  5454   000020                     u2541:
  5455   000020  EF2E  F000         	goto	l589
  5456   000024                     u2540:
  5457   000024                     
  5458                           ; BSR set to: 2
  5459   000024  5130               	movf	48,w,b	;volatile
  5460   000026  0B1F               	andlw	31
  5461   000028  0900               	iorlw	0
  5462   00002A  A4D8               	btfss	status,2,c
  5463   00002C  EF1A  F000         	goto	u2551
  5464   000030  EF1C  F000         	goto	u2550
  5465   000034                     u2551:
  5466   000034  EF2E  F000         	goto	l589
  5467   000038                     u2550:
  5468   000038                     
  5469                           ; BSR set to: 2
  5470                           ;usb_device.c: 2725:     {;usb_device.c: 2726:         inPipes[0].info.bits.busy = 1;
  5471   000038  8E42               	bsf	(_inPipes+3)^0,7,c
  5472   00003A                     
  5473                           ; BSR set to: 2
  5474                           ;usb_device.c: 2727:         if(SetupPkt.bRequest == 3)
  5475   00003A  0E03               	movlw	3
  5476   00003C  1931               	xorwf	49,w,b	;volatile
  5477   00003E  A4D8               	btfss	status,2,c
  5478   000040  EF24  F000         	goto	u2561
  5479   000044  EF26  F000         	goto	u2560
  5480   000048                     u2561:
  5481   000048  EF2B  F000         	goto	l4013
  5482   00004C                     u2560:
  5483   00004C                     
  5484                           ; BSR set to: 2
  5485                           ;usb_device.c: 2728:             RemoteWakeup = 1;
  5486   00004C  0E01               	movlw	1
  5487   00004E  0100               	movlb	0	; () banked
  5488   000050  6F9A               	movwf	_RemoteWakeup& (0+255),b
  5489   000052  EF2E  F000         	goto	l589
  5490   000056                     l4013:
  5491                           
  5492                           ; BSR set to: 2
  5493                           ;usb_device.c: 2730:             RemoteWakeup = 0;
  5494   000056  0E00               	movlw	0
  5495   000058  0100               	movlb	0	; () banked
  5496   00005A  6F9A               	movwf	_RemoteWakeup& (0+255),b
  5497   00005C                     l589:
  5498                           
  5499                           ;usb_device.c: 2734:     if((SetupPkt.bFeature == 0)&&
  5500   00005C  0102               	movlb	2	; () banked
  5501   00005E  5132               	movf	50,w,b	;volatile
  5502   000060  A4D8               	btfss	status,2,c
  5503   000062  EF35  F000         	goto	u2571
  5504   000066  EF37  F000         	goto	u2570
  5505   00006A                     u2571:
  5506   00006A  EFB5  F001         	goto	l612
  5507   00006E                     u2570:
  5508   00006E                     
  5509                           ; BSR set to: 2
  5510   00006E  5130               	movf	48,w,b	;volatile
  5511   000070  0B1F               	andlw	31
  5512   000072  0A02               	xorlw	2
  5513   000074  A4D8               	btfss	status,2,c
  5514   000076  EF3F  F000         	goto	u2581
  5515   00007A  EF41  F000         	goto	u2580
  5516   00007E                     u2581:
  5517   00007E  EFB5  F001         	goto	l612
  5518   000082                     u2580:
  5519   000082                     
  5520                           ; BSR set to: 2
  5521   000082  5134               	movf	52,w,b	;volatile
  5522   000084  0B0F               	andlw	15
  5523   000086  0900               	iorlw	0
  5524   000088  B4D8               	btfsc	status,2,c
  5525   00008A  EF49  F000         	goto	u2591
  5526   00008E  EF4B  F000         	goto	u2590
  5527   000092                     u2591:
  5528   000092  EFB5  F001         	goto	l612
  5529   000096                     u2590:
  5530   000096                     
  5531                           ; BSR set to: 2
  5532   000096  5134               	movf	52,w,b	;volatile
  5533   000098  0B0F               	andlw	15
  5534   00009A  6E17               	movwf	??_USBStdFeatureReqHandler^0,c
  5535   00009C  0E03               	movlw	3
  5536   00009E  6017               	cpfslt	??_USBStdFeatureReqHandler^0,c
  5537   0000A0  EF54  F000         	goto	u2601
  5538   0000A4  EF56  F000         	goto	u2600
  5539   0000A8                     u2601:
  5540   0000A8  EFB5  F001         	goto	l612
  5541   0000AC                     u2600:
  5542   0000AC                     
  5543                           ; BSR set to: 2
  5544   0000AC  0E20               	movlw	32
  5545   0000AE  185B               	xorwf	_USBDeviceState^0,w,c
  5546   0000B0  A4D8               	btfss	status,2,c
  5547   0000B2  EF5D  F000         	goto	u2611
  5548   0000B6  EF5F  F000         	goto	u2610
  5549   0000BA                     u2611:
  5550   0000BA  EFB5  F001         	goto	l612
  5551   0000BE                     u2610:
  5552   0000BE                     
  5553                           ; BSR set to: 2
  5554                           ;usb_device.c: 2738:     {;usb_device.c: 2741:   inPipes[0].info.bits.busy = 1;
  5555   0000BE  8E42               	bsf	(_inPipes+3)^0,7,c
  5556                           
  5557                           ;usb_device.c: 2744:         if(SetupPkt.EPDir == 0)
  5558   0000C0  BF34               	btfsc	52,7,b	;volatile
  5559   0000C2  EF65  F000         	goto	u2621
  5560   0000C6  EF67  F000         	goto	u2620
  5561   0000CA                     u2621:
  5562   0000CA  EF84  F000         	goto	l4029
  5563   0000CE                     u2620:
  5564   0000CE                     
  5565                           ; BSR set to: 2
  5566                           ;usb_device.c: 2745:         {;usb_device.c: 2746:             p = (BDT_ENTRY*)pBDTEntry
      +                          Out[SetupPkt.EPNum];
  5567   0000CE  5134               	movf	52,w,b	;volatile
  5568   0000D0  0B0F               	andlw	15
  5569   0000D2  6E17               	movwf	??_USBStdFeatureReqHandler^0,c
  5570   0000D4  5017               	movf	??_USBStdFeatureReqHandler^0,w,c
  5571   0000D6  0D02               	mullw	2
  5572   0000D8  0E72               	movlw	low _pBDTEntryOut
  5573   0000DA  24F3               	addwf	243,w,c
  5574   0000DC  6ED9               	movwf	fsr2l,c
  5575   0000DE  0E00               	movlw	high _pBDTEntryOut
  5576   0000E0  20F4               	addwfc	prodh,w,c
  5577   0000E2  6EDA               	movwf	fsr2h,c
  5578   0000E4  CFDE F01C          	movff	postinc2,USBStdFeatureReqHandler@p
  5579   0000E8  CFDD F01D          	movff	postdec2,USBStdFeatureReqHandler@p+1
  5580   0000EC                     
  5581                           ; BSR set to: 2
  5582                           ;usb_device.c: 2747:             current_ep_data.Val = ep_data_out[SetupPkt.EPNum].Val;
  5583   0000EC  5134               	movf	52,w,b	;volatile
  5584   0000EE  0B0F               	andlw	15
  5585   0000F0  6E17               	movwf	??_USBStdFeatureReqHandler^0,c
  5586   0000F2  6A18               	clrf	(??_USBStdFeatureReqHandler+1)^0,c
  5587   0000F4  0E86               	movlw	low _ep_data_out
  5588   0000F6  2417               	addwf	??_USBStdFeatureReqHandler^0,w,c
  5589   0000F8  6ED9               	movwf	fsr2l,c
  5590   0000FA  0E00               	movlw	high _ep_data_out
  5591   0000FC  2018               	addwfc	(??_USBStdFeatureReqHandler+1)^0,w,c
  5592   0000FE  6EDA               	movwf	fsr2h,c
  5593   000100  50DF               	movf	indf2,w,c
  5594   000102  6E1B               	movwf	USBStdFeatureReqHandler@current_ep_data^0,c
  5595                           
  5596                           ;usb_device.c: 2748:         }
  5597   000104  EF9F  F000         	goto	l4033
  5598   000108                     l4029:
  5599                           
  5600                           ; BSR set to: 2
  5601                           ;usb_device.c: 2750:         {;usb_device.c: 2751:             p = (BDT_ENTRY*)pBDTEntry
      +                          In[SetupPkt.EPNum];
  5602   000108  5134               	movf	52,w,b	;volatile
  5603   00010A  0B0F               	andlw	15
  5604   00010C  6E17               	movwf	??_USBStdFeatureReqHandler^0,c
  5605   00010E  5017               	movf	??_USBStdFeatureReqHandler^0,w,c
  5606   000110  0D02               	mullw	2
  5607   000112  0E45               	movlw	low _pBDTEntryIn
  5608   000114  24F3               	addwf	243,w,c
  5609   000116  6ED9               	movwf	fsr2l,c
  5610   000118  0E00               	movlw	high _pBDTEntryIn
  5611   00011A  20F4               	addwfc	prodh,w,c
  5612   00011C  6EDA               	movwf	fsr2h,c
  5613   00011E  CFDE F01C          	movff	postinc2,USBStdFeatureReqHandler@p
  5614   000122  CFDD F01D          	movff	postdec2,USBStdFeatureReqHandler@p+1
  5615   000126                     
  5616                           ; BSR set to: 2
  5617                           ;usb_device.c: 2752:             current_ep_data.Val = ep_data_in[SetupPkt.EPNum].Val;
  5618   000126  5134               	movf	52,w,b	;volatile
  5619   000128  0B0F               	andlw	15
  5620   00012A  6E17               	movwf	??_USBStdFeatureReqHandler^0,c
  5621   00012C  6A18               	clrf	(??_USBStdFeatureReqHandler+1)^0,c
  5622   00012E  0E89               	movlw	low _ep_data_in
  5623   000130  2417               	addwf	??_USBStdFeatureReqHandler^0,w,c
  5624   000132  6ED9               	movwf	fsr2l,c
  5625   000134  0E00               	movlw	high _ep_data_in
  5626   000136  2018               	addwfc	(??_USBStdFeatureReqHandler+1)^0,w,c
  5627   000138  6EDA               	movwf	fsr2h,c
  5628   00013A  50DF               	movf	indf2,w,c
  5629   00013C  6E1B               	movwf	USBStdFeatureReqHandler@current_ep_data^0,c
  5630   00013E                     l4033:
  5631                           
  5632                           ; BSR set to: 2
  5633                           ;usb_device.c: 2759:             if(current_ep_data.bits.ping_pong_state == 0)
  5634   00013E  B01B               	btfsc	USBStdFeatureReqHandler@current_ep_data^0,0,c
  5635   000140  EFA4  F000         	goto	u2631
  5636   000144  EFA6  F000         	goto	u2630
  5637   000148                     u2631:
  5638   000148  EFAE  F000         	goto	l4037
  5639   00014C                     u2630:
  5640   00014C                     
  5641                           ; BSR set to: 2
  5642                           ;usb_device.c: 2760:             {;usb_device.c: 2761:                 p = (BDT_ENTRY*)(
      +                          ((uint16_t)p) & (~0x0004));
  5643   00014C  0EFB               	movlw	251
  5644   00014E  141C               	andwf	USBStdFeatureReqHandler@p^0,w,c
  5645   000150  6E1C               	movwf	USBStdFeatureReqHandler@p^0,c
  5646   000152  0EFF               	movlw	255
  5647   000154  141D               	andwf	(USBStdFeatureReqHandler@p+1)^0,w,c
  5648   000156  6E1D               	movwf	(USBStdFeatureReqHandler@p+1)^0,c
  5649                           
  5650                           ;usb_device.c: 2762:             }
  5651   000158  EFB3  F000         	goto	l4039
  5652   00015C                     l4037:
  5653                           
  5654                           ; BSR set to: 2
  5655                           ;usb_device.c: 2764:             {;usb_device.c: 2765:                 p = (BDT_ENTRY*)(
      +                          ((uint16_t)p) | 0x0004);
  5656   00015C  0E04               	movlw	4
  5657   00015E  101C               	iorwf	USBStdFeatureReqHandler@p^0,w,c
  5658   000160  6E1C               	movwf	USBStdFeatureReqHandler@p^0,c
  5659   000162  501D               	movf	(USBStdFeatureReqHandler@p+1)^0,w,c
  5660   000164  6E1D               	movwf	(USBStdFeatureReqHandler@p+1)^0,c
  5661   000166                     l4039:
  5662                           
  5663                           ; BSR set to: 2
  5664                           ;usb_device.c: 2771:         if(SetupPkt.EPDir == 0)
  5665   000166  BF34               	btfsc	52,7,b	;volatile
  5666   000168  EFB8  F000         	goto	u2641
  5667   00016C  EFBA  F000         	goto	u2640
  5668   000170                     u2641:
  5669   000170  EFCB  F000         	goto	l4043
  5670   000174                     u2640:
  5671   000174                     
  5672                           ; BSR set to: 2
  5673                           ;usb_device.c: 2772:         {;usb_device.c: 2773:             pBDTEntryOut[SetupPkt.EPN
      +                          um] = (volatile BDT_ENTRY *)p;
  5674   000174  5134               	movf	52,w,b	;volatile
  5675   000176  0B0F               	andlw	15
  5676   000178  6E17               	movwf	??_USBStdFeatureReqHandler^0,c
  5677   00017A  5017               	movf	??_USBStdFeatureReqHandler^0,w,c
  5678   00017C  0D02               	mullw	2
  5679   00017E  0E72               	movlw	low _pBDTEntryOut
  5680   000180  24F3               	addwf	243,w,c
  5681   000182  6ED9               	movwf	fsr2l,c
  5682   000184  0E00               	movlw	high _pBDTEntryOut
  5683   000186  20F4               	addwfc	prodh,w,c
  5684   000188  6EDA               	movwf	fsr2h,c
  5685   00018A  C01C  FFDE         	movff	USBStdFeatureReqHandler@p,postinc2
  5686   00018E  C01D  FFDD         	movff	USBStdFeatureReqHandler@p+1,postdec2
  5687                           
  5688                           ;usb_device.c: 2774:         }
  5689   000192  EFDA  F000         	goto	l4045
  5690   000196                     l4043:
  5691                           
  5692                           ; BSR set to: 2
  5693                           ;usb_device.c: 2776:         {;usb_device.c: 2777:             pBDTEntryIn[SetupPkt.EPNu
      +                          m] = (volatile BDT_ENTRY *)p;
  5694   000196  5134               	movf	52,w,b	;volatile
  5695   000198  0B0F               	andlw	15
  5696   00019A  6E17               	movwf	??_USBStdFeatureReqHandler^0,c
  5697   00019C  5017               	movf	??_USBStdFeatureReqHandler^0,w,c
  5698   00019E  0D02               	mullw	2
  5699   0001A0  0E45               	movlw	low _pBDTEntryIn
  5700   0001A2  24F3               	addwf	243,w,c
  5701   0001A4  6ED9               	movwf	fsr2l,c
  5702   0001A6  0E00               	movlw	high _pBDTEntryIn
  5703   0001A8  20F4               	addwfc	prodh,w,c
  5704   0001AA  6EDA               	movwf	fsr2h,c
  5705   0001AC  C01C  FFDE         	movff	USBStdFeatureReqHandler@p,postinc2
  5706   0001B0  C01D  FFDD         	movff	USBStdFeatureReqHandler@p+1,postdec2
  5707   0001B4                     l4045:
  5708                           
  5709                           ; BSR set to: 2
  5710                           ;usb_device.c: 2781:         if(SetupPkt.bRequest == 3)
  5711   0001B4  0E03               	movlw	3
  5712   0001B6  1931               	xorwf	49,w,b	;volatile
  5713   0001B8  A4D8               	btfss	status,2,c
  5714   0001BA  EFE1  F000         	goto	u2651
  5715   0001BE  EFE3  F000         	goto	u2650
  5716   0001C2                     u2651:
  5717   0001C2  EF1D  F001         	goto	l4055
  5718   0001C6                     u2650:
  5719   0001C6                     
  5720                           ; BSR set to: 2
  5721                           ;usb_device.c: 2782:         {;usb_device.c: 2783:             if(p->STAT.UOWN == 1)
  5722   0001C6  C01C  FFD9         	movff	USBStdFeatureReqHandler@p,fsr2l
  5723   0001CA  C01D  FFDA         	movff	USBStdFeatureReqHandler@p+1,fsr2h
  5724   0001CE  AEDF               	btfss	indf2,7,c
  5725   0001D0  EFEC  F000         	goto	u2661
  5726   0001D4  EFEE  F000         	goto	u2660
  5727   0001D8                     u2661:
  5728   0001D8  EF0F  F001         	goto	l600
  5729   0001DC                     u2660:
  5730   0001DC                     
  5731                           ; BSR set to: 2
  5732                           ;usb_device.c: 2784:             {;usb_device.c: 2787:                 if(SetupPkt.EPDir
      +                           == 0)
  5733   0001DC  BF34               	btfsc	52,7,b	;volatile
  5734   0001DE  EFF3  F000         	goto	u2671
  5735   0001E2  EFF5  F000         	goto	u2670
  5736   0001E6                     u2671:
  5737   0001E6  EF03  F001         	goto	l4053
  5738   0001EA                     u2670:
  5739   0001EA                     
  5740                           ; BSR set to: 2
  5741                           ;usb_device.c: 2788:                 {;usb_device.c: 2789:                     ep_data_o
      +                          ut[SetupPkt.EPNum].bits.transfer_terminated = 1;
  5742   0001EA  5134               	movf	52,w,b	;volatile
  5743   0001EC  0B0F               	andlw	15
  5744   0001EE  6E17               	movwf	??_USBStdFeatureReqHandler^0,c
  5745   0001F0  6A18               	clrf	(??_USBStdFeatureReqHandler+1)^0,c
  5746   0001F2  0E86               	movlw	low _ep_data_out
  5747   0001F4  2417               	addwf	??_USBStdFeatureReqHandler^0,w,c
  5748   0001F6  6ED9               	movwf	fsr2l,c
  5749   0001F8  0E00               	movlw	high _ep_data_out
  5750   0001FA  2018               	addwfc	(??_USBStdFeatureReqHandler+1)^0,w,c
  5751   0001FC  6EDA               	movwf	fsr2h,c
  5752   0001FE  0100               	movlb	0	; () banked
  5753   000200  82DF               	bsf	indf2,1,c
  5754                           
  5755                           ;usb_device.c: 2790:                 }
  5756   000202  EF0F  F001         	goto	l600
  5757   000206                     l4053:
  5758                           
  5759                           ; BSR set to: 2
  5760                           ;usb_device.c: 2792:                 {;usb_device.c: 2793:                     ep_data_i
      +                          n[SetupPkt.EPNum].bits.transfer_terminated = 1;
  5761   000206  5134               	movf	52,w,b	;volatile
  5762   000208  0B0F               	andlw	15
  5763   00020A  6E17               	movwf	??_USBStdFeatureReqHandler^0,c
  5764   00020C  6A18               	clrf	(??_USBStdFeatureReqHandler+1)^0,c
  5765   00020E  0E89               	movlw	low _ep_data_in
  5766   000210  2417               	addwf	??_USBStdFeatureReqHandler^0,w,c
  5767   000212  6ED9               	movwf	fsr2l,c
  5768   000214  0E00               	movlw	high _ep_data_in
  5769   000216  2018               	addwfc	(??_USBStdFeatureReqHandler+1)^0,w,c
  5770   000218  6EDA               	movwf	fsr2h,c
  5771   00021A  0100               	movlb	0	; () banked
  5772   00021C  82DF               	bsf	indf2,1,c
  5773   00021E                     l600:
  5774                           
  5775                           ;usb_device.c: 2798:             p->STAT.Val |= 0x04;
  5776   00021E  C01C  FFD9         	movff	USBStdFeatureReqHandler@p,fsr2l
  5777   000222  C01D  FFDA         	movff	USBStdFeatureReqHandler@p+1,fsr2h
  5778   000226  0E00               	movlw	0
  5779   000228  84DB               	bsf	plusw2,2,c
  5780                           
  5781                           ;usb_device.c: 2799:             p->STAT.Val |= 0x80;
  5782   00022A  C01C  FFD9         	movff	USBStdFeatureReqHandler@p,fsr2l
  5783   00022E  C01D  FFDA         	movff	USBStdFeatureReqHandler@p+1,fsr2h
  5784   000232  0E00               	movlw	0
  5785   000234  8EDB               	bsf	plusw2,7,c
  5786                           
  5787                           ;usb_device.c: 2800:         }
  5788   000236  EFB5  F001         	goto	l612
  5789   00023A                     l4055:
  5790                           
  5791                           ; BSR set to: 2
  5792                           ;usb_device.c: 2802:         {;usb_device.c: 2806:                 p = (BDT_ENTRY*)(((ui
      +                          nt16_t)p) ^ 0x0004);
  5793   00023A  0E04               	movlw	4
  5794   00023C  181C               	xorwf	USBStdFeatureReqHandler@p^0,w,c
  5795   00023E  6E1C               	movwf	USBStdFeatureReqHandler@p^0,c
  5796   000240  501D               	movf	(USBStdFeatureReqHandler@p+1)^0,w,c
  5797   000242  6E1D               	movwf	(USBStdFeatureReqHandler@p+1)^0,c
  5798   000244                     
  5799                           ; BSR set to: 2
  5800                           ;usb_device.c: 2808:                 if(p->STAT.UOWN == 1)
  5801   000244  C01C  FFD9         	movff	USBStdFeatureReqHandler@p,fsr2l
  5802   000248  C01D  FFDA         	movff	USBStdFeatureReqHandler@p+1,fsr2h
  5803   00024C  AEDF               	btfss	indf2,7,c
  5804   00024E  EF2B  F001         	goto	u2681
  5805   000252  EF2D  F001         	goto	u2680
  5806   000256                     u2681:
  5807   000256  EF49  F001         	goto	l4065
  5808   00025A                     u2680:
  5809   00025A                     
  5810                           ; BSR set to: 2
  5811                           ;usb_device.c: 2809:                 {;usb_device.c: 2812:                     p->STAT.V
      +                          al &= (~0x80);
  5812   00025A  C01C  FFD9         	movff	USBStdFeatureReqHandler@p,fsr2l
  5813   00025E  C01D  FFDA         	movff	USBStdFeatureReqHandler@p+1,fsr2h
  5814   000262  0E7F               	movlw	127
  5815   000264  16DF               	andwf	indf2,f,c
  5816   000266                     
  5817                           ; BSR set to: 2
  5818                           ;usb_device.c: 2813:                     p->STAT.Val |= 0x40;
  5819   000266  C01C  FFD9         	movff	USBStdFeatureReqHandler@p,fsr2l
  5820   00026A  C01D  FFDA         	movff	USBStdFeatureReqHandler@p+1,fsr2h
  5821   00026E  0E00               	movlw	0
  5822   000270  8CDB               	bsf	plusw2,6,c
  5823   000272                     
  5824                           ; BSR set to: 2
  5825                           ;usb_device.c: 2814:                     USER_USB_CALLBACK_EVENT_HANDLER((USB_EVENT)EVEN
      +                          T_TRANSFER_TERMINATED,p,sizeof(p));
  5826   000272  0E00               	movlw	0
  5827   000274  6E10               	movwf	(USER_USB_CALLBACK_EVENT_HANDLER@event+1)^0,c
  5828   000276  0E05               	movlw	5
  5829   000278  6E0F               	movwf	USER_USB_CALLBACK_EVENT_HANDLER@event^0,c
  5830   00027A  C01C  F011         	movff	USBStdFeatureReqHandler@p,USER_USB_CALLBACK_EVENT_HANDLER@pdata
  5831   00027E  C01D  F012         	movff	USBStdFeatureReqHandler@p+1,USER_USB_CALLBACK_EVENT_HANDLER@pdata+1
  5832   000282  0E00               	movlw	0
  5833   000284  6E14               	movwf	(USER_USB_CALLBACK_EVENT_HANDLER@size+1)^0,c
  5834   000286  0E02               	movlw	2
  5835   000288  6E13               	movwf	USER_USB_CALLBACK_EVENT_HANDLER@size^0,c
  5836   00028A  EC86  F00E         	call	_USER_USB_CALLBACK_EVENT_HANDLER	;wreg free
  5837                           
  5838                           ;usb_device.c: 2815:                 }
  5839   00028E  EF4F  F001         	goto	l4067
  5840   000292                     l4065:
  5841                           
  5842                           ; BSR set to: 2
  5843                           ;usb_device.c: 2817:                 {;usb_device.c: 2819:      p->STAT.Val |= 0x40;
  5844   000292  C01C  FFD9         	movff	USBStdFeatureReqHandler@p,fsr2l
  5845   000296  C01D  FFDA         	movff	USBStdFeatureReqHandler@p+1,fsr2h
  5846   00029A  0E00               	movlw	0
  5847   00029C  8CDB               	bsf	plusw2,6,c
  5848   00029E                     l4067:
  5849                           
  5850                           ;usb_device.c: 2824:                 p = (BDT_ENTRY*)(((uint16_t)p) ^ 0x0004);
  5851   00029E  0E04               	movlw	4
  5852   0002A0  181C               	xorwf	USBStdFeatureReqHandler@p^0,w,c
  5853   0002A2  6E1C               	movwf	USBStdFeatureReqHandler@p^0,c
  5854   0002A4  501D               	movf	(USBStdFeatureReqHandler@p+1)^0,w,c
  5855   0002A6  6E1D               	movwf	(USBStdFeatureReqHandler@p+1)^0,c
  5856   0002A8                     
  5857                           ;usb_device.c: 2830:                 if((current_ep_data.bits.transfer_terminated != 0) 
      +                          || (p->STAT.UOWN == 1))
  5858   0002A8  B21B               	btfsc	USBStdFeatureReqHandler@current_ep_data^0,1,c
  5859   0002AA  EF59  F001         	goto	u2691
  5860   0002AE  EF5B  F001         	goto	u2690
  5861   0002B2                     u2691:
  5862   0002B2  EF66  F001         	goto	l608
  5863   0002B6                     u2690:
  5864   0002B6  C01C  FFD9         	movff	USBStdFeatureReqHandler@p,fsr2l
  5865   0002BA  C01D  FFDA         	movff	USBStdFeatureReqHandler@p+1,fsr2h
  5866   0002BE  AEDF               	btfss	indf2,7,c
  5867   0002C0  EF64  F001         	goto	u2701
  5868   0002C4  EF66  F001         	goto	u2700
  5869   0002C8                     u2701:
  5870   0002C8  EF9E  F001         	goto	l4081
  5871   0002CC                     u2700:
  5872   0002CC                     l608:
  5873                           
  5874                           ;usb_device.c: 2831:                 {;usb_device.c: 2832:                     if(SetupP
      +                          kt.EPDir == 0)
  5875   0002CC  0102               	movlb	2	; () banked
  5876   0002CE  BF34               	btfsc	52,7,b	;volatile
  5877   0002D0  EF6C  F001         	goto	u2711
  5878   0002D4  EF6E  F001         	goto	u2710
  5879   0002D8                     u2711:
  5880   0002D8  EF7C  F001         	goto	l4075
  5881   0002DC                     u2710:
  5882   0002DC                     
  5883                           ; BSR set to: 2
  5884                           ;usb_device.c: 2833:                     {;usb_device.c: 2834:                         e
      +                          p_data_out[SetupPkt.EPNum].bits.transfer_terminated = 0;
  5885   0002DC  5134               	movf	52,w,b	;volatile
  5886   0002DE  0B0F               	andlw	15
  5887   0002E0  6E17               	movwf	??_USBStdFeatureReqHandler^0,c
  5888   0002E2  6A18               	clrf	(??_USBStdFeatureReqHandler+1)^0,c
  5889   0002E4  0E86               	movlw	low _ep_data_out
  5890   0002E6  2417               	addwf	??_USBStdFeatureReqHandler^0,w,c
  5891   0002E8  6ED9               	movwf	fsr2l,c
  5892   0002EA  0E00               	movlw	high _ep_data_out
  5893   0002EC  2018               	addwfc	(??_USBStdFeatureReqHandler+1)^0,w,c
  5894   0002EE  6EDA               	movwf	fsr2h,c
  5895   0002F0  0100               	movlb	0	; () banked
  5896   0002F2  92DF               	bcf	indf2,1,c
  5897                           
  5898                           ;usb_device.c: 2835:                     }
  5899   0002F4  EF88  F001         	goto	l4077
  5900   0002F8                     l4075:
  5901                           
  5902                           ; BSR set to: 2
  5903                           ;usb_device.c: 2837:                     {;usb_device.c: 2838:                         e
      +                          p_data_in[SetupPkt.EPNum].bits.transfer_terminated = 0;
  5904   0002F8  5134               	movf	52,w,b	;volatile
  5905   0002FA  0B0F               	andlw	15
  5906   0002FC  6E17               	movwf	??_USBStdFeatureReqHandler^0,c
  5907   0002FE  6A18               	clrf	(??_USBStdFeatureReqHandler+1)^0,c
  5908   000300  0E89               	movlw	low _ep_data_in
  5909   000302  2417               	addwf	??_USBStdFeatureReqHandler^0,w,c
  5910   000304  6ED9               	movwf	fsr2l,c
  5911   000306  0E00               	movlw	high _ep_data_in
  5912   000308  2018               	addwfc	(??_USBStdFeatureReqHandler+1)^0,w,c
  5913   00030A  6EDA               	movwf	fsr2h,c
  5914   00030C  0100               	movlb	0	; () banked
  5915   00030E  92DF               	bcf	indf2,1,c
  5916   000310                     l4077:
  5917                           
  5918                           ; BSR set to: 0
  5919                           ;usb_device.c: 2841:                     p->STAT.Val &= ~(0x80 | 0x40 | 0x04);
  5920   000310  C01C  FFD9         	movff	USBStdFeatureReqHandler@p,fsr2l
  5921   000314  C01D  FFDA         	movff	USBStdFeatureReqHandler@p+1,fsr2h
  5922   000318  0E3B               	movlw	59
  5923   00031A  16DF               	andwf	indf2,f,c
  5924   00031C                     
  5925                           ; BSR set to: 0
  5926                           ;usb_device.c: 2844:                     USER_USB_CALLBACK_EVENT_HANDLER((USB_EVENT)EVEN
      +                          T_TRANSFER_TERMINATED,p,sizeof(p));
  5927   00031C  0E00               	movlw	0
  5928   00031E  6E10               	movwf	(USER_USB_CALLBACK_EVENT_HANDLER@event+1)^0,c
  5929   000320  0E05               	movlw	5
  5930   000322  6E0F               	movwf	USER_USB_CALLBACK_EVENT_HANDLER@event^0,c
  5931   000324  C01C  F011         	movff	USBStdFeatureReqHandler@p,USER_USB_CALLBACK_EVENT_HANDLER@pdata
  5932   000328  C01D  F012         	movff	USBStdFeatureReqHandler@p+1,USER_USB_CALLBACK_EVENT_HANDLER@pdata+1
  5933   00032C  0E00               	movlw	0
  5934   00032E  6E14               	movwf	(USER_USB_CALLBACK_EVENT_HANDLER@size+1)^0,c
  5935   000330  0E02               	movlw	2
  5936   000332  6E13               	movwf	USER_USB_CALLBACK_EVENT_HANDLER@size^0,c
  5937   000334  EC86  F00E         	call	_USER_USB_CALLBACK_EVENT_HANDLER	;wreg free
  5938                           
  5939                           ;usb_device.c: 2845:                 }
  5940   000338  EFA4  F001         	goto	l4083
  5941   00033C                     l4081:
  5942                           
  5943                           ;usb_device.c: 2847:                 {;usb_device.c: 2849:                     p->STAT.V
      +                          al &= ~(0x80 | 0x40 | 0x04);
  5944   00033C  C01C  FFD9         	movff	USBStdFeatureReqHandler@p,fsr2l
  5945   000340  C01D  FFDA         	movff	USBStdFeatureReqHandler@p+1,fsr2h
  5946   000344  0E3B               	movlw	59
  5947   000346  16DF               	andwf	indf2,f,c
  5948   000348                     l4083:
  5949                           
  5950                           ;usb_device.c: 2897:                 pUEP = (unsigned char*)(&UEP0+SetupPkt.EPNum);
  5951   000348  0102               	movlb	2	; () banked
  5952   00034A  5134               	movf	52,w,b	;volatile
  5953   00034C  0B0F               	andlw	15
  5954   00034E  6E17               	movwf	??_USBStdFeatureReqHandler^0,c
  5955   000350  6A18               	clrf	(??_USBStdFeatureReqHandler+1)^0,c
  5956   000352  0E53               	movlw	83
  5957   000354  2417               	addwf	??_USBStdFeatureReqHandler^0,w,c
  5958   000356  6E19               	movwf	USBStdFeatureReqHandler@pUEP^0,c
  5959   000358  0E0F               	movlw	15
  5960   00035A  2018               	addwfc	(??_USBStdFeatureReqHandler+1)^0,w,c
  5961   00035C  6E1A               	movwf	(USBStdFeatureReqHandler@pUEP+1)^0,c
  5962   00035E                     
  5963                           ; BSR set to: 2
  5964                           ;usb_device.c: 2901:             *pUEP &= ~0x0001;
  5965   00035E  C019  FFD9         	movff	USBStdFeatureReqHandler@pUEP,fsr2l
  5966   000362  C01A  FFDA         	movff	USBStdFeatureReqHandler@pUEP+1,fsr2h
  5967   000366  0EFE               	movlw	254
  5968   000368  16DF               	andwf	indf2,f,c
  5969   00036A                     l612:
  5970   00036A  0012               	return		;funcret
  5971   00036C                     __end_of_USBStdFeatureReqHandler:
  5972                           	callstack 0
  5973                           
  5974 ;; *************** function _USER_USB_CALLBACK_EVENT_HANDLER *****************
  5975 ;; Defined at:
  5976 ;;		line 51 in file "usb_events.c"
  5977 ;; Parameters:    Size  Location     Type
  5978 ;;  event           2   14[COMRAM] enum E2852
  5979 ;;  pdata           2   16[COMRAM] PTR void 
  5980 ;;		 -> RAM(767), USTATcopy(1), USBActiveConfiguration(1), BDT(48), 
  5981 ;;		 -> NULL(0), 
  5982 ;;  size            2   18[COMRAM] unsigned short 
  5983 ;; Auto vars:     Size  Location     Type
  5984 ;;		None
  5985 ;; Return value:  Size  Location     Type
  5986 ;;                  1    wreg      _Bool 
  5987 ;; Registers used:
  5988 ;;		wreg, fsr2l, fsr2h, status,2, status,0, prodl, prodh, cstack
  5989 ;; Tracked objects:
  5990 ;;		On entry : 0/0
  5991 ;;		On exit  : 0/0
  5992 ;;		Unchanged: 0/0
  5993 ;; Data sizes:     COMRAM   BANK0   BANK1   BANK2
  5994 ;;      Params:         6       0       0       0
  5995 ;;      Locals:         0       0       0       0
  5996 ;;      Temps:          2       0       0       0
  5997 ;;      Totals:         8       0       0       0
  5998 ;;Total ram usage:        8 bytes
  5999 ;; Hardware stack levels used: 1
  6000 ;; Hardware stack levels required when called: 4
  6001 ;; This function calls:
  6002 ;;		_APP_DeviceCDCBasicDemoInitialize
  6003 ;;		_APP_LEDUpdateUSBStatus
  6004 ;;		_CDCInitEP
  6005 ;;		_SYSTEM_Initialize
  6006 ;;		_USBCheckCDCRequest
  6007 ;; This function is called by:
  6008 ;;		_USBDeviceTasks
  6009 ;;		_USBStdSetCfgHandler
  6010 ;;		_USBSuspend
  6011 ;;		_USBWakeFromSuspend
  6012 ;;		_USBCtrlTrfSetupHandler
  6013 ;;		_USBCheckStdRequest
  6014 ;;		_USBStdFeatureReqHandler
  6015 ;; This function uses a non-reentrant model
  6016 ;;
  6017                           
  6018                           	psect	text26
  6019   001D0C                     __ptext26:
  6020                           	callstack 0
  6021   001D0C                     _USER_USB_CALLBACK_EVENT_HANDLER:
  6022                           	callstack 24
  6023   001D0C                     
  6024                           ;usb_events.c: 51: _Bool USER_USB_CALLBACK_EVENT_HANDLER(USB_EVENT event, void *pdata, u
      +                          int16_t size);usb_events.c: 52: {;usb_events.c: 53:     switch( (int) event )
  6025   001D0C  EFA4  F00E         	goto	l3779
  6026   001D10                     l3765:
  6027                           
  6028                           ;usb_events.c: 61:             APP_LEDUpdateUSBStatus();
  6029   001D10  EC6D  F00C         	call	_APP_LEDUpdateUSBStatus	;wreg free
  6030                           
  6031                           ;usb_events.c: 62:             break;
  6032   001D14  EFDD  F00E         	goto	l761
  6033   001D18                     l3767:
  6034                           
  6035                           ;usb_events.c: 66:             APP_LEDUpdateUSBStatus();
  6036   001D18  EC6D  F00C         	call	_APP_LEDUpdateUSBStatus	;wreg free
  6037                           
  6038                           ;usb_events.c: 74:             SYSTEM_Initialize(SYSTEM_STATE_USB_SUSPEND);
  6039   001D1C  0E01               	movlw	1
  6040   001D1E  ECAF  F012         	call	_SYSTEM_Initialize
  6041                           
  6042                           ;usb_events.c: 75:             break;
  6043   001D22  EFDD  F00E         	goto	l761
  6044   001D26                     l3769:
  6045                           
  6046                           ;usb_events.c: 79:             APP_LEDUpdateUSBStatus();
  6047   001D26  EC6D  F00C         	call	_APP_LEDUpdateUSBStatus	;wreg free
  6048                           
  6049                           ;usb_events.c: 85:             SYSTEM_Initialize(SYSTEM_STATE_USB_RESUME);
  6050   001D2A  0E02               	movlw	2
  6051   001D2C  ECAF  F012         	call	_SYSTEM_Initialize
  6052                           
  6053                           ;usb_events.c: 86:             break;
  6054   001D30  EFDD  F00E         	goto	l761
  6055   001D34                     l3771:
  6056                           
  6057                           ;usb_events.c: 91:             CDCInitEP();
  6058   001D34  EC3E  F011         	call	_CDCInitEP	;wreg free
  6059   001D38                     
  6060                           ;usb_events.c: 92:             APP_DeviceCDCBasicDemoInitialize();
  6061   001D38  ECB6  F013         	call	_APP_DeviceCDCBasicDemoInitialize	;wreg free
  6062                           
  6063                           ;usb_events.c: 93:             break;
  6064   001D3C  EFDD  F00E         	goto	l761
  6065   001D40                     l3775:
  6066                           
  6067                           ;usb_events.c: 101:             USBCheckCDCRequest();
  6068   001D40  ECEC  F00B         	call	_USBCheckCDCRequest	;wreg free
  6069                           
  6070                           ;usb_events.c: 102:             break;
  6071   001D44  EFDD  F00E         	goto	l761
  6072   001D48                     l3779:
  6073   001D48  C00F  F015         	movff	USER_USB_CALLBACK_EVENT_HANDLER@event,??_USER_USB_CALLBACK_EVENT_HANDLER
  6074   001D4C  C010  F016         	movff	USER_USB_CALLBACK_EVENT_HANDLER@event+1,??_USER_USB_CALLBACK_EVENT_HANDLER+1
  6075                           
  6076                           ; Switch on 2 bytes has been partitioned into a top level switch of size 1, and 2 sub-sw
      +                          itches
  6077                           ; Switch size 1, requested type "simple"
  6078                           ; Number of cases is 2, Range of values is 0 to 127
  6079                           ; switch strategies available:
  6080                           ; Name         Instructions Cycles
  6081                           ; simple_byte            7     4 (average)
  6082                           ;	Chosen strategy is simple_byte
  6083   001D50  5016               	movf	(??_USER_USB_CALLBACK_EVENT_HANDLER+1)^0,w,c
  6084   001D52  0A00               	xorlw	0	; case 0
  6085   001D54  B4D8               	btfsc	status,2,c
  6086   001D56  EFB3  F00E         	goto	l5387
  6087   001D5A  0A7F               	xorlw	127	; case 127
  6088   001D5C  B4D8               	btfsc	status,2,c
  6089   001D5E  EFD6  F00E         	goto	l5389
  6090   001D62  EFDD  F00E         	goto	l761
  6091   001D66                     l5387:
  6092                           
  6093                           ; Switch size 1, requested type "simple"
  6094                           ; Number of cases is 8, Range of values is 1 to 117
  6095                           ; switch strategies available:
  6096                           ; Name         Instructions Cycles
  6097                           ; simple_byte           25    13 (average)
  6098                           ;	Chosen strategy is simple_byte
  6099   001D66  5015               	movf	??_USER_USB_CALLBACK_EVENT_HANDLER^0,w,c
  6100   001D68  0A01               	xorlw	1	; case 1
  6101   001D6A  B4D8               	btfsc	status,2,c
  6102   001D6C  EF9A  F00E         	goto	l3771
  6103   001D70  0A03               	xorlw	3	; case 2
  6104   001D72  B4D8               	btfsc	status,2,c
  6105   001D74  EFDD  F00E         	goto	l761
  6106   001D78  0A01               	xorlw	1	; case 3
  6107   001D7A  B4D8               	btfsc	status,2,c
  6108   001D7C  EFA0  F00E         	goto	l3775
  6109   001D80  0A06               	xorlw	6	; case 5
  6110   001D82  B4D8               	btfsc	status,2,c
  6111   001D84  EFDD  F00E         	goto	l761
  6112   001D88  0A77               	xorlw	119	; case 114
  6113   001D8A  B4D8               	btfsc	status,2,c
  6114   001D8C  EFDD  F00E         	goto	l761
  6115   001D90  0A01               	xorlw	1	; case 115
  6116   001D92  B4D8               	btfsc	status,2,c
  6117   001D94  EF88  F00E         	goto	l3765
  6118   001D98  0A07               	xorlw	7	; case 116
  6119   001D9A  B4D8               	btfsc	status,2,c
  6120   001D9C  EF93  F00E         	goto	l3769
  6121   001DA0  0A01               	xorlw	1	; case 117
  6122   001DA2  B4D8               	btfsc	status,2,c
  6123   001DA4  EF8C  F00E         	goto	l3767
  6124   001DA8  EFDD  F00E         	goto	l761
  6125   001DAC                     l5389:
  6126                           
  6127                           ; Switch size 1, requested type "simple"
  6128                           ; Number of cases is 1, Range of values is 255 to 255
  6129                           ; switch strategies available:
  6130                           ; Name         Instructions Cycles
  6131                           ; simple_byte            4     3 (average)
  6132                           ;	Chosen strategy is simple_byte
  6133   001DAC  5015               	movf	??_USER_USB_CALLBACK_EVENT_HANDLER^0,w,c
  6134   001DAE  0AFF               	xorlw	255	; case 255
  6135   001DB0  B4D8               	btfsc	status,2,c
  6136   001DB2  EFDD  F00E         	goto	l761
  6137   001DB6  EFDD  F00E         	goto	l761
  6138   001DBA                     l761:
  6139   001DBA  0012               	return		;funcret
  6140   001DBC                     __end_of_USER_USB_CALLBACK_EVENT_HANDLER:
  6141                           	callstack 0
  6142                           
  6143 ;; *************** function _USBCheckCDCRequest *****************
  6144 ;; Defined at:
  6145 ;;		line 148 in file "usb_device_cdc.c"
  6146 ;; Parameters:    Size  Location     Type
  6147 ;;		None
  6148 ;; Auto vars:     Size  Location     Type
  6149 ;;		None
  6150 ;; Return value:  Size  Location     Type
  6151 ;;                  1    wreg      void 
  6152 ;; Registers used:
  6153 ;;		wreg, status,2, status,0
  6154 ;; Tracked objects:
  6155 ;;		On entry : 0/0
  6156 ;;		On exit  : 0/0
  6157 ;;		Unchanged: 0/0
  6158 ;; Data sizes:     COMRAM   BANK0   BANK1   BANK2
  6159 ;;      Params:         0       0       0       0
  6160 ;;      Locals:         0       0       0       0
  6161 ;;      Temps:          2       0       0       0
  6162 ;;      Totals:         2       0       0       0
  6163 ;;Total ram usage:        2 bytes
  6164 ;; Hardware stack levels used: 1
  6165 ;; Hardware stack levels required when called: 1
  6166 ;; This function calls:
  6167 ;;		Nothing
  6168 ;; This function is called by:
  6169 ;;		_USER_USB_CALLBACK_EVENT_HANDLER
  6170 ;; This function uses a non-reentrant model
  6171 ;;
  6172                           
  6173                           	psect	text27
  6174   0017D8                     __ptext27:
  6175                           	callstack 0
  6176   0017D8                     _USBCheckCDCRequest:
  6177                           	callstack 26
  6178   0017D8                     
  6179                           ;usb_device_cdc.c: 153:     if(SetupPkt.Recipient != (0x01)) return;
  6180   0017D8  0102               	movlb	2	; () banked
  6181   0017DA  5130               	movf	48,w,b	;volatile
  6182   0017DC  0B1F               	andlw	31
  6183   0017DE  06E8               	decf	wreg,f,c
  6184   0017E0  B4D8               	btfsc	status,2,c
  6185   0017E2  EFF5  F00B         	goto	u2101
  6186   0017E6  EFF7  F00B         	goto	u2100
  6187   0017EA                     u2101:
  6188   0017EA  EFF9  F00B         	goto	l3633
  6189   0017EE                     u2100:
  6190   0017EE  EF6C  F00C         	goto	l664
  6191   0017F2                     l3633:
  6192                           
  6193                           ; BSR set to: 2
  6194                           ;usb_device_cdc.c: 158:     if(SetupPkt.RequestType != (0x20>>5)) return;
  6195   0017F2  3930               	swapf	48,w,b	;volatile
  6196   0017F4  32E8               	rrcf	wreg,f,c
  6197   0017F6  0B03               	andlw	3
  6198   0017F8  06E8               	decf	wreg,f,c
  6199   0017FA  B4D8               	btfsc	status,2,c
  6200   0017FC  EF02  F00C         	goto	u2111
  6201   001800  EF04  F00C         	goto	u2110
  6202   001804                     u2111:
  6203   001804  EF06  F00C         	goto	l3637
  6204   001808                     u2110:
  6205   001808  EF6C  F00C         	goto	l664
  6206   00180C                     l3637:
  6207                           
  6208                           ; BSR set to: 2
  6209                           ;usb_device_cdc.c: 164:     if((SetupPkt.bIntfID != 0x0)&&
  6210   00180C  5134               	movf	52,w,b	;volatile
  6211   00180E  B4D8               	btfsc	status,2,c
  6212   001810  EF0C  F00C         	goto	u2121
  6213   001814  EF0E  F00C         	goto	u2120
  6214   001818                     u2121:
  6215   001818  EF4B  F00C         	goto	l3667
  6216   00181C                     u2120:
  6217   00181C                     
  6218                           ; BSR set to: 2
  6219   00181C  0534               	decf	52,w,b	;volatile
  6220   00181E  B4D8               	btfsc	status,2,c
  6221   001820  EF14  F00C         	goto	u2131
  6222   001824  EF16  F00C         	goto	u2130
  6223   001828                     u2131:
  6224   001828  EF4B  F00C         	goto	l3667
  6225   00182C                     u2130:
  6226   00182C  EF6C  F00C         	goto	l664
  6227   001830                     l3643:
  6228                           
  6229                           ; BSR set to: 2
  6230                           ;usb_device_cdc.c: 172:             inPipes[0].pSrc.bRam = (uint8_t*)&dummy_encapsulated
      +                          _cmd_response;
  6231   001830  0E9B               	movlw	low _dummy_encapsulated_cmd_response
  6232   001832  6E3F               	movwf	_inPipes^0,c
  6233   001834  0E00               	movlw	high _dummy_encapsulated_cmd_response
  6234   001836  6E40               	movwf	(_inPipes+1)^0,c
  6235   001838                     
  6236                           ; BSR set to: 2
  6237                           ;usb_device_cdc.c: 173:             inPipes[0].wCount.Val = 0x08;
  6238   001838  0E00               	movlw	0
  6239   00183A  6E44               	movwf	(_inPipes+5)^0,c
  6240   00183C  0E08               	movlw	8
  6241   00183E  6E43               	movwf	(_inPipes+4)^0,c
  6242   001840                     
  6243                           ; BSR set to: 2
  6244                           ;usb_device_cdc.c: 174:             inPipes[0].info.bits.ctrl_trf_mem = 0x01;
  6245   001840  8042               	bsf	(_inPipes+3)^0,0,c
  6246   001842                     l3649:
  6247                           
  6248                           ; BSR set to: 2
  6249                           ;usb_device_cdc.c: 175:             inPipes[0].info.bits.busy = 1;
  6250   001842  8E42               	bsf	(_inPipes+3)^0,7,c
  6251                           
  6252                           ;usb_device_cdc.c: 176:             break;
  6253   001844  EF6C  F00C         	goto	l664
  6254   001848                     l3651:
  6255                           
  6256                           ; BSR set to: 2
  6257                           ;usb_device_cdc.c: 179:             inPipes[0].pSrc.bRam = (uint8_t*)&dummy_encapsulated
      +                          _cmd_response;
  6258   001848  0E9B               	movlw	low _dummy_encapsulated_cmd_response
  6259   00184A  6E3F               	movwf	_inPipes^0,c
  6260   00184C  0E00               	movlw	high _dummy_encapsulated_cmd_response
  6261   00184E  6E40               	movwf	(_inPipes+1)^0,c
  6262   001850  EF21  F00C         	goto	l3649
  6263   001854                     l671:
  6264                           
  6265                           ; BSR set to: 2
  6266                           ;usb_device_cdc.c: 186:             outPipes[0].wCount.Val = SetupPkt.wLength;
  6267   001854  C236 F06E          	movff	566,_outPipes+4	;volatile
  6268   001858  C237 F06F          	movff	567,_outPipes+5	;volatile
  6269   00185C                     
  6270                           ; BSR set to: 2
  6271                           ;usb_device_cdc.c: 187:             outPipes[0].pDst.bRam = (uint8_t*)&line_coding._byte
      +                          [0];
  6272   00185C  0EA3               	movlw	low _line_coding
  6273   00185E  0100               	movlb	0	; () banked
  6274   001860  6F6A               	movwf	_outPipes& (0+255),b
  6275   001862  0E00               	movlw	high _line_coding
  6276   001864  6F6B               	movwf	(_outPipes+1)& (0+255),b
  6277                           
  6278                           ;usb_device_cdc.c: 188:             outPipes[0].pFunc = ((void*)0);
  6279   001866  0E00               	movlw	0
  6280   001868  6F70               	movwf	(_outPipes+6)& (0+255),b
  6281   00186A  0E00               	movlw	0
  6282   00186C  6F71               	movwf	(_outPipes+7)& (0+255),b
  6283   00186E                     
  6284                           ; BSR set to: 0
  6285                           ;usb_device_cdc.c: 189:             outPipes[0].info.bits.busy = 1;
  6286   00186E  8F6D               	bsf	(_outPipes+3)& (0+255),7,b
  6287                           
  6288                           ;usb_device_cdc.c: 190:             break;
  6289   001870  EF6C  F00C         	goto	l664
  6290   001874                     l3659:
  6291                           
  6292                           ; BSR set to: 2
  6293                           ;usb_device_cdc.c: 193:             { inPipes[0].pSrc.bRam = (uint8_t*)&line_coding; inP
      +                          ipes[0].wCount.Val = 0x07; inPipes[0].info.Val = 0x40 | 0x80 | 0x01; };
  6294   001874  0EA3               	movlw	low _line_coding
  6295   001876  6E3F               	movwf	_inPipes^0,c
  6296   001878  0E00               	movlw	high _line_coding
  6297   00187A  6E40               	movwf	(_inPipes+1)^0,c
  6298   00187C                     
  6299                           ; BSR set to: 2
  6300   00187C  0E00               	movlw	0
  6301   00187E  6E44               	movwf	(_inPipes+5)^0,c
  6302   001880  0E07               	movlw	7
  6303   001882  6E43               	movwf	(_inPipes+4)^0,c
  6304   001884                     
  6305                           ; BSR set to: 2
  6306   001884  0EC1               	movlw	193
  6307   001886  6E42               	movwf	(_inPipes+3)^0,c
  6308                           
  6309                           ;usb_device_cdc.c: 197:             break;
  6310   001888  EF6C  F00C         	goto	l664
  6311   00188C                     l673:
  6312                           
  6313                           ; BSR set to: 2
  6314                           ;usb_device_cdc.c: 200:             control_signal_bitmap._byte = (uint8_t)SetupPkt.wVal
      +                          ue;
  6315   00188C  C232 F091          	movff	562,_control_signal_bitmap	;volatile
  6316                           
  6317                           ;usb_device_cdc.c: 232:             inPipes[0].info.bits.busy = 1;
  6318   001890  8E42               	bsf	(_inPipes+3)^0,7,c
  6319                           
  6320                           ;usb_device_cdc.c: 233:             break;
  6321   001892  EF6C  F00C         	goto	l664
  6322   001896                     l3667:
  6323                           
  6324                           ; BSR set to: 2
  6325   001896  5131               	movf	49,w,b	;volatile
  6326   001898  6E01               	movwf	??_USBCheckCDCRequest^0,c
  6327   00189A  6A02               	clrf	(??_USBCheckCDCRequest+1)^0,c
  6328                           
  6329                           ; Switch on 2 bytes has been partitioned into a top level switch of size 1, and 1 sub-sw
      +                          itches
  6330                           ; Switch size 1, requested type "simple"
  6331                           ; Number of cases is 1, Range of values is 0 to 0
  6332                           ; switch strategies available:
  6333                           ; Name         Instructions Cycles
  6334                           ; simple_byte            4     3 (average)
  6335                           ;	Chosen strategy is simple_byte
  6336   00189C  5002               	movf	(??_USBCheckCDCRequest+1)^0,w,c
  6337   00189E  0A00               	xorlw	0	; case 0
  6338   0018A0  B4D8               	btfsc	status,2,c
  6339   0018A2  EF55  F00C         	goto	l5391
  6340   0018A6  EF6C  F00C         	goto	l664
  6341   0018AA                     l5391:
  6342                           
  6343                           ; BSR set to: 2
  6344                           ; Switch size 1, requested type "simple"
  6345                           ; Number of cases is 5, Range of values is 0 to 34
  6346                           ; switch strategies available:
  6347                           ; Name         Instructions Cycles
  6348                           ; simple_byte           16     9 (average)
  6349                           ;	Chosen strategy is simple_byte
  6350   0018AA  5001               	movf	??_USBCheckCDCRequest^0,w,c
  6351   0018AC  0A00               	xorlw	0	; case 0
  6352   0018AE  B4D8               	btfsc	status,2,c
  6353   0018B0  EF18  F00C         	goto	l3643
  6354   0018B4  0A01               	xorlw	1	; case 1
  6355   0018B6  B4D8               	btfsc	status,2,c
  6356   0018B8  EF24  F00C         	goto	l3651
  6357   0018BC  0A21               	xorlw	33	; case 32
  6358   0018BE  B4D8               	btfsc	status,2,c
  6359   0018C0  EF2A  F00C         	goto	l671
  6360   0018C4  0A01               	xorlw	1	; case 33
  6361   0018C6  B4D8               	btfsc	status,2,c
  6362   0018C8  EF3A  F00C         	goto	l3659
  6363   0018CC  0A03               	xorlw	3	; case 34
  6364   0018CE  B4D8               	btfsc	status,2,c
  6365   0018D0  EF46  F00C         	goto	l673
  6366   0018D4  EF6C  F00C         	goto	l664
  6367   0018D8                     l664:
  6368   0018D8  0012               	return		;funcret
  6369   0018DA                     __end_of_USBCheckCDCRequest:
  6370                           	callstack 0
  6371                           
  6372 ;; *************** function _SYSTEM_Initialize *****************
  6373 ;; Defined at:
  6374 ;;		line 65 in file "system.c"
  6375 ;; Parameters:    Size  Location     Type
  6376 ;;  state           1    wreg     enum E2834
  6377 ;; Auto vars:     Size  Location     Type
  6378 ;;  state           1    5[COMRAM] enum E2834
  6379 ;; Return value:  Size  Location     Type
  6380 ;;                  1    wreg      void 
  6381 ;; Registers used:
  6382 ;;		wreg, status,2, status,0, cstack
  6383 ;; Tracked objects:
  6384 ;;		On entry : 0/0
  6385 ;;		On exit  : 0/0
  6386 ;;		Unchanged: 0/0
  6387 ;; Data sizes:     COMRAM   BANK0   BANK1   BANK2
  6388 ;;      Params:         0       0       0       0
  6389 ;;      Locals:         1       0       0       0
  6390 ;;      Temps:          2       0       0       0
  6391 ;;      Totals:         3       0       0       0
  6392 ;;Total ram usage:        3 bytes
  6393 ;; Hardware stack levels used: 1
  6394 ;; Hardware stack levels required when called: 2
  6395 ;; This function calls:
  6396 ;;		_BUTTON_Enable
  6397 ;;		_LED_Enable
  6398 ;; This function is called by:
  6399 ;;		_USER_USB_CALLBACK_EVENT_HANDLER
  6400 ;; This function uses a non-reentrant model
  6401 ;;
  6402                           
  6403                           	psect	text28
  6404   00255E                     __ptext28:
  6405                           	callstack 0
  6406   00255E                     _SYSTEM_Initialize:
  6407                           	callstack 25
  6408                           
  6409                           ;incstack = 0
  6410                           ;SYSTEM_Initialize@state stored from wreg
  6411   00255E  6E06               	movwf	SYSTEM_Initialize@state^0,c
  6412   002560                     
  6413                           ;system.c: 65: void SYSTEM_Initialize( SYSTEM_STATE state );system.c: 66: {;system.c: 67
      +                          :     switch(state)
  6414   002560  EFBA  F012         	goto	l3623
  6415   002564                     l3619:
  6416                           
  6417                           ;system.c: 70:             LED_Enable(LED_D1);
  6418   002564  0E01               	movlw	1
  6419   002566  ECA1  F011         	call	_LED_Enable
  6420                           
  6421                           ;system.c: 71:             BUTTON_Enable(BUTTON_S1);
  6422   00256A  0E01               	movlw	1
  6423   00256C  EC65  F013         	call	_BUTTON_Enable
  6424                           
  6425                           ;system.c: 72:             break;
  6426   002570  EFD3  F012         	goto	l216
  6427   002574                     l3623:
  6428   002574  5006               	movf	SYSTEM_Initialize@state^0,w,c
  6429   002576  6E04               	movwf	??_SYSTEM_Initialize^0,c
  6430   002578  6A05               	clrf	(??_SYSTEM_Initialize+1)^0,c
  6431                           
  6432                           ; Switch on 2 bytes has been partitioned into a top level switch of size 1, and 1 sub-sw
      +                          itches
  6433                           ; Switch size 1, requested type "simple"
  6434                           ; Number of cases is 1, Range of values is 0 to 0
  6435                           ; switch strategies available:
  6436                           ; Name         Instructions Cycles
  6437                           ; simple_byte            4     3 (average)
  6438                           ;	Chosen strategy is simple_byte
  6439   00257A  5005               	movf	(??_SYSTEM_Initialize+1)^0,w,c
  6440   00257C  0A00               	xorlw	0	; case 0
  6441   00257E  B4D8               	btfsc	status,2,c
  6442   002580  EFC4  F012         	goto	l5393
  6443   002584  EFD3  F012         	goto	l216
  6444   002588                     l5393:
  6445                           
  6446                           ; Switch size 1, requested type "simple"
  6447                           ; Number of cases is 3, Range of values is 0 to 2
  6448                           ; switch strategies available:
  6449                           ; Name         Instructions Cycles
  6450                           ; simple_byte           10     6 (average)
  6451                           ;	Chosen strategy is simple_byte
  6452   002588  5004               	movf	??_SYSTEM_Initialize^0,w,c
  6453   00258A  0A00               	xorlw	0	; case 0
  6454   00258C  B4D8               	btfsc	status,2,c
  6455   00258E  EFB2  F012         	goto	l3619
  6456   002592  0A01               	xorlw	1	; case 1
  6457   002594  B4D8               	btfsc	status,2,c
  6458   002596  EFD3  F012         	goto	l216
  6459   00259A  0A03               	xorlw	3	; case 2
  6460   00259C  B4D8               	btfsc	status,2,c
  6461   00259E  EFD3  F012         	goto	l216
  6462   0025A2  EFD3  F012         	goto	l216
  6463   0025A6                     l216:
  6464   0025A6  0012               	return		;funcret
  6465   0025A8                     __end_of_SYSTEM_Initialize:
  6466                           	callstack 0
  6467                           
  6468 ;; *************** function _LED_Enable *****************
  6469 ;; Defined at:
  6470 ;;		line 220 in file "../CDC/leds.c"
  6471 ;; Parameters:    Size  Location     Type
  6472 ;;  led             1    wreg     enum E2
  6473 ;; Auto vars:     Size  Location     Type
  6474 ;;  led             1    2[COMRAM] enum E2
  6475 ;; Return value:  Size  Location     Type
  6476 ;;                  1    wreg      void 
  6477 ;; Registers used:
  6478 ;;		wreg, status,2, status,0
  6479 ;; Tracked objects:
  6480 ;;		On entry : 0/0
  6481 ;;		On exit  : 0/0
  6482 ;;		Unchanged: 0/0
  6483 ;; Data sizes:     COMRAM   BANK0   BANK1   BANK2
  6484 ;;      Params:         0       0       0       0
  6485 ;;      Locals:         1       0       0       0
  6486 ;;      Temps:          2       0       0       0
  6487 ;;      Totals:         3       0       0       0
  6488 ;;Total ram usage:        3 bytes
  6489 ;; Hardware stack levels used: 1
  6490 ;; Hardware stack levels required when called: 1
  6491 ;; This function calls:
  6492 ;;		Nothing
  6493 ;; This function is called by:
  6494 ;;		_SYSTEM_Initialize
  6495 ;; This function uses a non-reentrant model
  6496 ;;
  6497                           
  6498                           	psect	text29
  6499   002342                     __ptext29:
  6500                           	callstack 0
  6501   002342                     _LED_Enable:
  6502                           	callstack 25
  6503                           
  6504                           ;incstack = 0
  6505                           ;LED_Enable@led stored from wreg
  6506   002342  6E03               	movwf	LED_Enable@led^0,c
  6507   002344                     
  6508                           ;../CDC/leds.c: 220: void LED_Enable(LED led);../CDC/leds.c: 221: {;../CDC/leds.c: 222: 
      +                              switch(led)
  6509   002344  EFB0  F011         	goto	l3549
  6510   002348                     l885:
  6511                           
  6512                           ;../CDC/leds.c: 225:             TRISCbits.TRISC0 = 0;
  6513   002348  9094               	bcf	148,0,c	;volatile
  6514                           
  6515                           ;../CDC/leds.c: 226:             break;
  6516   00234A  EFD1  F011         	goto	l891
  6517   00234E                     l887:
  6518                           
  6519                           ;../CDC/leds.c: 229:             TRISCbits.TRISC1 = 0;
  6520   00234E  9294               	bcf	148,1,c	;volatile
  6521                           
  6522                           ;../CDC/leds.c: 230:             break;
  6523   002350  EFD1  F011         	goto	l891
  6524   002354                     l888:
  6525                           
  6526                           ;../CDC/leds.c: 233:             TRISCbits.TRISC2 = 0;
  6527   002354  9494               	bcf	148,2,c	;volatile
  6528                           
  6529                           ;../CDC/leds.c: 234:             break;
  6530   002356  EFD1  F011         	goto	l891
  6531   00235A                     l889:
  6532                           
  6533                           ;../CDC/leds.c: 237:             TRISCbits.TRISC3 = 0;
  6534   00235A  9694               	bcf	148,3,c	;volatile
  6535                           
  6536                           ;../CDC/leds.c: 238:             break;
  6537   00235C  EFD1  F011         	goto	l891
  6538   002360                     l3549:
  6539   002360  5003               	movf	LED_Enable@led^0,w,c
  6540   002362  6E01               	movwf	??_LED_Enable^0,c
  6541   002364  6A02               	clrf	(??_LED_Enable+1)^0,c
  6542                           
  6543                           ; Switch on 2 bytes has been partitioned into a top level switch of size 1, and 1 sub-sw
      +                          itches
  6544                           ; Switch size 1, requested type "simple"
  6545                           ; Number of cases is 1, Range of values is 0 to 0
  6546                           ; switch strategies available:
  6547                           ; Name         Instructions Cycles
  6548                           ; simple_byte            4     3 (average)
  6549                           ;	Chosen strategy is simple_byte
  6550   002366  5002               	movf	(??_LED_Enable+1)^0,w,c
  6551   002368  0A00               	xorlw	0	; case 0
  6552   00236A  B4D8               	btfsc	status,2,c
  6553   00236C  EFBA  F011         	goto	l5395
  6554   002370  EFD1  F011         	goto	l891
  6555   002374                     l5395:
  6556                           
  6557                           ; Switch size 1, requested type "simple"
  6558                           ; Number of cases is 5, Range of values is 0 to 4
  6559                           ; switch strategies available:
  6560                           ; Name         Instructions Cycles
  6561                           ; simple_byte           16     9 (average)
  6562                           ;	Chosen strategy is simple_byte
  6563   002374  5001               	movf	??_LED_Enable^0,w,c
  6564   002376  0A00               	xorlw	0	; case 0
  6565   002378  B4D8               	btfsc	status,2,c
  6566   00237A  EFD1  F011         	goto	l891
  6567   00237E  0A01               	xorlw	1	; case 1
  6568   002380  B4D8               	btfsc	status,2,c
  6569   002382  EFA4  F011         	goto	l885
  6570   002386  0A03               	xorlw	3	; case 2
  6571   002388  B4D8               	btfsc	status,2,c
  6572   00238A  EFA7  F011         	goto	l887
  6573   00238E  0A01               	xorlw	1	; case 3
  6574   002390  B4D8               	btfsc	status,2,c
  6575   002392  EFAA  F011         	goto	l888
  6576   002396  0A07               	xorlw	7	; case 4
  6577   002398  B4D8               	btfsc	status,2,c
  6578   00239A  EFAD  F011         	goto	l889
  6579   00239E  EFD1  F011         	goto	l891
  6580   0023A2                     l891:
  6581   0023A2  0012               	return		;funcret
  6582   0023A4                     __end_of_LED_Enable:
  6583                           	callstack 0
  6584                           
  6585 ;; *************** function _BUTTON_Enable *****************
  6586 ;; Defined at:
  6587 ;;		line 85 in file "buttons.c"
  6588 ;; Parameters:    Size  Location     Type
  6589 ;;  button          1    wreg     enum E2809
  6590 ;; Auto vars:     Size  Location     Type
  6591 ;;  button          1    2[COMRAM] enum E2809
  6592 ;; Return value:  Size  Location     Type
  6593 ;;                  1    wreg      void 
  6594 ;; Registers used:
  6595 ;;		wreg, status,2, status,0
  6596 ;; Tracked objects:
  6597 ;;		On entry : 0/0
  6598 ;;		On exit  : 0/0
  6599 ;;		Unchanged: 0/0
  6600 ;; Data sizes:     COMRAM   BANK0   BANK1   BANK2
  6601 ;;      Params:         0       0       0       0
  6602 ;;      Locals:         1       0       0       0
  6603 ;;      Temps:          2       0       0       0
  6604 ;;      Totals:         3       0       0       0
  6605 ;;Total ram usage:        3 bytes
  6606 ;; Hardware stack levels used: 1
  6607 ;; Hardware stack levels required when called: 1
  6608 ;; This function calls:
  6609 ;;		Nothing
  6610 ;; This function is called by:
  6611 ;;		_SYSTEM_Initialize
  6612 ;; This function uses a non-reentrant model
  6613 ;;
  6614                           
  6615                           	psect	text30
  6616   0026CA                     __ptext30:
  6617                           	callstack 0
  6618   0026CA                     _BUTTON_Enable:
  6619                           	callstack 25
  6620                           
  6621                           ;incstack = 0
  6622                           ;BUTTON_Enable@button stored from wreg
  6623   0026CA  6E03               	movwf	BUTTON_Enable@button^0,c
  6624   0026CC  5003               	movf	BUTTON_Enable@button^0,w,c
  6625   0026CE  6E01               	movwf	??_BUTTON_Enable^0,c
  6626   0026D0  6A02               	clrf	(??_BUTTON_Enable+1)^0,c
  6627                           
  6628                           ; Switch on 2 bytes has been partitioned into a top level switch of size 1, and 1 sub-sw
      +                          itches
  6629                           ; Switch size 1, requested type "simple"
  6630                           ; Number of cases is 1, Range of values is 0 to 0
  6631                           ; switch strategies available:
  6632                           ; Name         Instructions Cycles
  6633                           ; simple_byte            4     3 (average)
  6634                           ;	Chosen strategy is simple_byte
  6635   0026D2  5002               	movf	(??_BUTTON_Enable+1)^0,w,c
  6636   0026D4  0A00               	xorlw	0	; case 0
  6637   0026D6  B4D8               	btfsc	status,2,c
  6638   0026D8  EF70  F013         	goto	l5397
  6639   0026DC  EF7B  F013         	goto	l16
  6640   0026E0                     l5397:
  6641                           
  6642                           ; Switch size 1, requested type "simple"
  6643                           ; Number of cases is 2, Range of values is 0 to 1
  6644                           ; switch strategies available:
  6645                           ; Name         Instructions Cycles
  6646                           ; simple_byte            7     4 (average)
  6647                           ;	Chosen strategy is simple_byte
  6648   0026E0  5001               	movf	??_BUTTON_Enable^0,w,c
  6649   0026E2  0A00               	xorlw	0	; case 0
  6650   0026E4  B4D8               	btfsc	status,2,c
  6651   0026E6  EF7B  F013         	goto	l16
  6652   0026EA  0A01               	xorlw	1	; case 1
  6653   0026EC  B4D8               	btfsc	status,2,c
  6654   0026EE  EF7B  F013         	goto	l16
  6655   0026F2  EF7B  F013         	goto	l16
  6656   0026F6                     l16:
  6657   0026F6  0012               	return		;funcret
  6658   0026F8                     __end_of_BUTTON_Enable:
  6659                           	callstack 0
  6660                           
  6661 ;; *************** function _CDCInitEP *****************
  6662 ;; Defined at:
  6663 ;;		line 291 in file "usb_device_cdc.c"
  6664 ;; Parameters:    Size  Location     Type
  6665 ;;		None
  6666 ;; Auto vars:     Size  Location     Type
  6667 ;;		None
  6668 ;; Return value:  Size  Location     Type
  6669 ;;                  1    wreg      void 
  6670 ;; Registers used:
  6671 ;;		wreg, fsr2l, fsr2h, status,2, status,0, prodl, prodh, cstack
  6672 ;; Tracked objects:
  6673 ;;		On entry : 0/0
  6674 ;;		On exit  : 0/0
  6675 ;;		Unchanged: 0/0
  6676 ;; Data sizes:     COMRAM   BANK0   BANK1   BANK2
  6677 ;;      Params:         0       0       0       0
  6678 ;;      Locals:         0       0       0       0
  6679 ;;      Temps:          0       0       0       0
  6680 ;;      Totals:         0       0       0       0
  6681 ;;Total ram usage:        0 bytes
  6682 ;; Hardware stack levels used: 1
  6683 ;; Hardware stack levels required when called: 3
  6684 ;; This function calls:
  6685 ;;		_USBEnableEndpoint
  6686 ;;		_USBTransferOnePacket
  6687 ;; This function is called by:
  6688 ;;		_USER_USB_CALLBACK_EVENT_HANDLER
  6689 ;; This function uses a non-reentrant model
  6690 ;;
  6691                           
  6692                           	psect	text31
  6693   00227C                     __ptext31:
  6694                           	callstack 0
  6695   00227C                     _CDCInitEP:
  6696                           	callstack 24
  6697   00227C                     
  6698                           ;usb_device_cdc.c: 294:     line_coding.dwDTERate = 19200;
  6699   00227C  0E00               	movlw	0
  6700   00227E  0100               	movlb	0	; () banked
  6701   002280  6FA3               	movwf	_line_coding& (0+255),b
  6702   002282  0E4B               	movlw	75
  6703   002284  6FA4               	movwf	(_line_coding+1)& (0+255),b
  6704   002286  0E00               	movlw	0
  6705   002288  6FA5               	movwf	(_line_coding+2)& (0+255),b
  6706   00228A  0E00               	movlw	0
  6707   00228C  6FA6               	movwf	(_line_coding+3)& (0+255),b
  6708                           
  6709                           ;usb_device_cdc.c: 295:     line_coding.bCharFormat = 0x00;
  6710   00228E  0E00               	movlw	0
  6711   002290  6FA7               	movwf	(_line_coding+4)& (0+255),b
  6712                           
  6713                           ;usb_device_cdc.c: 296:     line_coding.bParityType = 0x00;
  6714   002292  0E00               	movlw	0
  6715   002294  6FA8               	movwf	(_line_coding+5)& (0+255),b
  6716                           
  6717                           ;usb_device_cdc.c: 297:     line_coding.bDataBits = 0x08;
  6718   002296  0E08               	movlw	8
  6719   002298  6FA9               	movwf	(_line_coding+6)& (0+255),b
  6720                           
  6721                           ;usb_device_cdc.c: 299:     cdc_rx_len = 0;
  6722   00229A  0E00               	movlw	0
  6723   00229C  6E54               	movwf	_cdc_rx_len^0,c
  6724   00229E                     
  6725                           ; BSR set to: 0
  6726                           ;usb_device_cdc.c: 312:     USBEnableEndpoint(1,0x02|0x10|0x08);
  6727   00229E  0E1A               	movlw	26
  6728   0022A0  6E0B               	movwf	USBEnableEndpoint@options^0,c
  6729   0022A2  0E01               	movlw	1
  6730   0022A4  EC89  F012         	call	_USBEnableEndpoint
  6731   0022A8                     
  6732                           ;usb_device_cdc.c: 313:     USBEnableEndpoint(2,0x02|0x04|0x10|0x08);
  6733   0022A8  0E1E               	movlw	30
  6734   0022AA  6E0B               	movwf	USBEnableEndpoint@options^0,c
  6735   0022AC  0E02               	movlw	2
  6736   0022AE  EC89  F012         	call	_USBEnableEndpoint
  6737   0022B2                     
  6738                           ;usb_device_cdc.c: 315:     CDCDataOutHandle = USBTransferOnePacket(2,0,(uint8_t*)&cdc_d
      +                          ata_rx,sizeof(cdc_data_rx));
  6739   0022B2  0E00               	movlw	0
  6740   0022B4  6E01               	movwf	USBTransferOnePacket@dir^0,c
  6741   0022B6  0E80               	movlw	128
  6742   0022B8  6E02               	movwf	USBTransferOnePacket@data^0,c
  6743   0022BA  0E02               	movlw	2
  6744   0022BC  6E03               	movwf	(USBTransferOnePacket@data+1)^0,c
  6745   0022BE  0E40               	movlw	64
  6746   0022C0  6E04               	movwf	USBTransferOnePacket@len^0,c
  6747   0022C2  0E02               	movlw	2
  6748   0022C4  ECA4  F008         	call	_USBTransferOnePacket
  6749   0022C8  C001  F04D         	movff	?_USBTransferOnePacket,_CDCDataOutHandle
  6750   0022CC  C002  F04E         	movff	?_USBTransferOnePacket+1,_CDCDataOutHandle+1
  6751   0022D0                     
  6752                           ;usb_device_cdc.c: 316:     CDCDataInHandle = ((void*)0);
  6753   0022D0  0E00               	movlw	0
  6754   0022D2  0100               	movlb	0	; () banked
  6755   0022D4  6F8C               	movwf	_CDCDataInHandle& (0+255),b
  6756   0022D6  0E00               	movlw	0
  6757   0022D8  6F8D               	movwf	(_CDCDataInHandle+1)& (0+255),b
  6758   0022DA                     
  6759                           ; BSR set to: 0
  6760                           ;usb_device_cdc.c: 343:     cdc_trf_state = 0;
  6761   0022DA  0E00               	movlw	0
  6762   0022DC  6E5A               	movwf	_cdc_trf_state^0,c
  6763   0022DE                     
  6764                           ; BSR set to: 0
  6765   0022DE  0012               	return		;funcret
  6766   0022E0                     __end_of_CDCInitEP:
  6767                           	callstack 0
  6768                           
  6769 ;; *************** function _USBTransferOnePacket *****************
  6770 ;; Defined at:
  6771 ;;		line 950 in file "usb_device.c"
  6772 ;; Parameters:    Size  Location     Type
  6773 ;;  ep              1    wreg     unsigned char 
  6774 ;;  dir             1    0[COMRAM] unsigned char 
  6775 ;;  data            2    1[COMRAM] PTR unsigned char 
  6776 ;;		 -> cdc_data_tx(64), cdc_data_rx(64), NULL(0), 
  6777 ;;  len             1    3[COMRAM] unsigned char 
  6778 ;; Auto vars:     Size  Location     Type
  6779 ;;  ep              1    8[COMRAM] unsigned char 
  6780 ;;  handle          2    9[COMRAM] PTR volatile struct __BD
  6781 ;;		 -> RAM(767), BDT(48), NULL(0), 
  6782 ;; Return value:  Size  Location     Type
  6783 ;;                  2    0[COMRAM] PTR void 
  6784 ;; Registers used:
  6785 ;;		wreg, fsr2l, fsr2h, status,2, status,0, prodl, prodh
  6786 ;; Tracked objects:
  6787 ;;		On entry : 0/0
  6788 ;;		On exit  : 0/0
  6789 ;;		Unchanged: 0/0
  6790 ;; Data sizes:     COMRAM   BANK0   BANK1   BANK2
  6791 ;;      Params:         4       0       0       0
  6792 ;;      Locals:         3       0       0       0
  6793 ;;      Temps:          4       0       0       0
  6794 ;;      Totals:        11       0       0       0
  6795 ;;Total ram usage:       11 bytes
  6796 ;; Hardware stack levels used: 1
  6797 ;; Hardware stack levels required when called: 1
  6798 ;; This function calls:
  6799 ;;		Nothing
  6800 ;; This function is called by:
  6801 ;;		_CDCInitEP
  6802 ;;		_getsUSBUSART
  6803 ;;		_CDCTxService
  6804 ;;		_USBCDCEventHandler
  6805 ;; This function uses a non-reentrant model
  6806 ;;
  6807                           
  6808                           	psect	text32
  6809   001148                     __ptext32:
  6810                           	callstack 0
  6811   001148                     _USBTransferOnePacket:
  6812                           	callstack 27
  6813                           
  6814                           ; BSR set to: 0
  6815                           ;incstack = 0
  6816                           ;USBTransferOnePacket@ep stored from wreg
  6817   001148  6E09               	movwf	USBTransferOnePacket@ep^0,c
  6818   00114A                     
  6819                           ;usb_device.c: 950: void* USBTransferOnePacket(uint8_t ep,uint8_t dir,uint8_t* data,uint
      +                          8_t len);usb_device.c: 951: {;usb_device.c: 952:     volatile BDT_ENTRY* handle;;usb_dev
      +                          ice.c: 955:     if(dir != 0)
  6820   00114A  5001               	movf	USBTransferOnePacket@dir^0,w,c
  6821   00114C  B4D8               	btfsc	status,2,c
  6822   00114E  EFAB  F008         	goto	u2071
  6823   001152  EFAD  F008         	goto	u2070
  6824   001156                     u2071:
  6825   001156  EFBB  F008         	goto	l3571
  6826   00115A                     u2070:
  6827   00115A                     
  6828                           ;usb_device.c: 956:     {;usb_device.c: 958:         handle = pBDTEntryIn[ep];
  6829   00115A  5009               	movf	USBTransferOnePacket@ep^0,w,c
  6830   00115C  0D02               	mullw	2
  6831   00115E  0E45               	movlw	low _pBDTEntryIn
  6832   001160  24F3               	addwf	243,w,c
  6833   001162  6ED9               	movwf	fsr2l,c
  6834   001164  0E00               	movlw	high _pBDTEntryIn
  6835   001166  20F4               	addwfc	prodh,w,c
  6836   001168  6EDA               	movwf	fsr2h,c
  6837   00116A  CFDE F00A          	movff	postinc2,USBTransferOnePacket@handle
  6838   00116E  CFDD F00B          	movff	postdec2,USBTransferOnePacket@handle+1
  6839                           
  6840                           ;usb_device.c: 959:     }
  6841   001172  EFC7  F008         	goto	l3573
  6842   001176                     l3571:
  6843                           
  6844                           ;usb_device.c: 961:     {;usb_device.c: 963:         handle = pBDTEntryOut[ep];
  6845   001176  5009               	movf	USBTransferOnePacket@ep^0,w,c
  6846   001178  0D02               	mullw	2
  6847   00117A  0E72               	movlw	low _pBDTEntryOut
  6848   00117C  24F3               	addwf	243,w,c
  6849   00117E  6ED9               	movwf	fsr2l,c
  6850   001180  0E00               	movlw	high _pBDTEntryOut
  6851   001182  20F4               	addwfc	prodh,w,c
  6852   001184  6EDA               	movwf	fsr2h,c
  6853   001186  CFDE F00A          	movff	postinc2,USBTransferOnePacket@handle
  6854   00118A  CFDD F00B          	movff	postdec2,USBTransferOnePacket@handle+1
  6855   00118E                     l3573:
  6856                           
  6857                           ;usb_device.c: 968:     if(handle == 0)
  6858   00118E  500A               	movf	USBTransferOnePacket@handle^0,w,c
  6859   001190  100B               	iorwf	(USBTransferOnePacket@handle+1)^0,w,c
  6860   001192  A4D8               	btfss	status,2,c
  6861   001194  EFCE  F008         	goto	u2081
  6862   001198  EFD0  F008         	goto	u2080
  6863   00119C                     u2081:
  6864   00119C  EFD6  F008         	goto	l3579
  6865   0011A0                     u2080:
  6866   0011A0                     
  6867                           ;usb_device.c: 969:     {;usb_device.c: 970:         return 0;
  6868   0011A0  0E00               	movlw	0
  6869   0011A2  6E01               	movwf	?_USBTransferOnePacket^0,c
  6870   0011A4  0E00               	movlw	0
  6871   0011A6  6E02               	movwf	(?_USBTransferOnePacket+1)^0,c
  6872   0011A8  EF42  F009         	goto	l415
  6873   0011AC                     l3579:
  6874                           
  6875                           ;usb_device.c: 984:     handle->ADR = ((uint16_t)(data));
  6876   0011AC  EE20 F002          	lfsr	2,2
  6877   0011B0  500A               	movf	USBTransferOnePacket@handle^0,w,c
  6878   0011B2  26D9               	addwf	fsr2l,f,c
  6879   0011B4  500B               	movf	(USBTransferOnePacket@handle+1)^0,w,c
  6880   0011B6  22DA               	addwfc	fsr2h,f,c
  6881   0011B8  C002  FFDE         	movff	USBTransferOnePacket@data,postinc2
  6882   0011BC  C003  FFDD         	movff	USBTransferOnePacket@data+1,postdec2
  6883                           
  6884                           ;usb_device.c: 985:     handle->CNT = len;
  6885   0011C0  EE20 F001          	lfsr	2,1
  6886   0011C4  500A               	movf	USBTransferOnePacket@handle^0,w,c
  6887   0011C6  26D9               	addwf	fsr2l,f,c
  6888   0011C8  500B               	movf	(USBTransferOnePacket@handle+1)^0,w,c
  6889   0011CA  22DA               	addwfc	fsr2h,f,c
  6890   0011CC  C004  FFDF         	movff	USBTransferOnePacket@len,indf2
  6891   0011D0                     
  6892                           ;usb_device.c: 986:     handle->STAT.Val &= 0x40;
  6893   0011D0  C00A  FFD9         	movff	USBTransferOnePacket@handle,fsr2l
  6894   0011D4  C00B  FFDA         	movff	USBTransferOnePacket@handle+1,fsr2h
  6895   0011D8  0E40               	movlw	64
  6896   0011DA  16DF               	andwf	indf2,f,c
  6897   0011DC                     
  6898                           ;usb_device.c: 987:     handle->STAT.Val |= (0x08 & 0x08);
  6899   0011DC  C00A  FFD9         	movff	USBTransferOnePacket@handle,fsr2l
  6900   0011E0  C00B  FFDA         	movff	USBTransferOnePacket@handle+1,fsr2h
  6901   0011E4  0E00               	movlw	0
  6902   0011E6  86DB               	bsf	plusw2,3,c
  6903   0011E8                     
  6904                           ;usb_device.c: 988:     handle->STAT.Val |= 0x80;
  6905   0011E8  C00A  FFD9         	movff	USBTransferOnePacket@handle,fsr2l
  6906   0011EC  C00B  FFDA         	movff	USBTransferOnePacket@handle+1,fsr2h
  6907   0011F0  0E00               	movlw	0
  6908   0011F2  8EDB               	bsf	plusw2,7,c
  6909   0011F4                     
  6910                           ;usb_device.c: 991:     if(dir != 0)
  6911   0011F4  5001               	movf	USBTransferOnePacket@dir^0,w,c
  6912   0011F6  B4D8               	btfsc	status,2,c
  6913   0011F8  EF00  F009         	goto	u2091
  6914   0011FC  EF02  F009         	goto	u2090
  6915   001200                     u2091:
  6916   001200  EF21  F009         	goto	l3591
  6917   001204                     u2090:
  6918   001204                     
  6919                           ;usb_device.c: 992:     {;usb_device.c: 994:         pBDTEntryIn[ep] = (BDT_ENTRY*)(((ui
      +                          nt16_t)pBDTEntryIn[ep]) ^ 0x0004);
  6920   001204  5009               	movf	USBTransferOnePacket@ep^0,w,c
  6921   001206  0D02               	mullw	2
  6922   001208  0E45               	movlw	low _pBDTEntryIn
  6923   00120A  24F3               	addwf	243,w,c
  6924   00120C  6ED9               	movwf	fsr2l,c
  6925   00120E  0E00               	movlw	high _pBDTEntryIn
  6926   001210  20F4               	addwfc	prodh,w,c
  6927   001212  6EDA               	movwf	fsr2h,c
  6928   001214  CFDE F005          	movff	postinc2,??_USBTransferOnePacket
  6929   001218  CFDD F006          	movff	postdec2,??_USBTransferOnePacket+1
  6930   00121C  0E04               	movlw	4
  6931   00121E  1805               	xorwf	??_USBTransferOnePacket^0,w,c
  6932   001220  6E07               	movwf	(??_USBTransferOnePacket+2)^0,c
  6933   001222  5006               	movf	(??_USBTransferOnePacket+1)^0,w,c
  6934   001224  6E08               	movwf	(??_USBTransferOnePacket+3)^0,c
  6935   001226  5009               	movf	USBTransferOnePacket@ep^0,w,c
  6936   001228  0D02               	mullw	2
  6937   00122A  0E45               	movlw	low _pBDTEntryIn
  6938   00122C  24F3               	addwf	243,w,c
  6939   00122E  6ED9               	movwf	fsr2l,c
  6940   001230  0E00               	movlw	high _pBDTEntryIn
  6941   001232  20F4               	addwfc	prodh,w,c
  6942   001234  6EDA               	movwf	fsr2h,c
  6943   001236  C007  FFDE         	movff	??_USBTransferOnePacket+2,postinc2
  6944   00123A  C008  FFDD         	movff	??_USBTransferOnePacket+3,postdec2
  6945                           
  6946                           ;usb_device.c: 995:     }
  6947   00123E  EF3E  F009         	goto	l3593
  6948   001242                     l3591:
  6949                           
  6950                           ;usb_device.c: 997:     {;usb_device.c: 999:         pBDTEntryOut[ep] = (BDT_ENTRY*)(((u
      +                          int16_t)pBDTEntryOut[ep]) ^ 0x0004);
  6951   001242  5009               	movf	USBTransferOnePacket@ep^0,w,c
  6952   001244  0D02               	mullw	2
  6953   001246  0E72               	movlw	low _pBDTEntryOut
  6954   001248  24F3               	addwf	243,w,c
  6955   00124A  6ED9               	movwf	fsr2l,c
  6956   00124C  0E00               	movlw	high _pBDTEntryOut
  6957   00124E  20F4               	addwfc	prodh,w,c
  6958   001250  6EDA               	movwf	fsr2h,c
  6959   001252  CFDE F005          	movff	postinc2,??_USBTransferOnePacket
  6960   001256  CFDD F006          	movff	postdec2,??_USBTransferOnePacket+1
  6961   00125A  0E04               	movlw	4
  6962   00125C  1805               	xorwf	??_USBTransferOnePacket^0,w,c
  6963   00125E  6E07               	movwf	(??_USBTransferOnePacket+2)^0,c
  6964   001260  5006               	movf	(??_USBTransferOnePacket+1)^0,w,c
  6965   001262  6E08               	movwf	(??_USBTransferOnePacket+3)^0,c
  6966   001264  5009               	movf	USBTransferOnePacket@ep^0,w,c
  6967   001266  0D02               	mullw	2
  6968   001268  0E72               	movlw	low _pBDTEntryOut
  6969   00126A  24F3               	addwf	243,w,c
  6970   00126C  6ED9               	movwf	fsr2l,c
  6971   00126E  0E00               	movlw	high _pBDTEntryOut
  6972   001270  20F4               	addwfc	prodh,w,c
  6973   001272  6EDA               	movwf	fsr2h,c
  6974   001274  C007  FFDE         	movff	??_USBTransferOnePacket+2,postinc2
  6975   001278  C008  FFDD         	movff	??_USBTransferOnePacket+3,postdec2
  6976   00127C                     l3593:
  6977                           
  6978                           ;usb_device.c: 1001:     return (void*)handle;
  6979   00127C  C00A  F001         	movff	USBTransferOnePacket@handle,?_USBTransferOnePacket
  6980   001280  C00B  F002         	movff	USBTransferOnePacket@handle+1,?_USBTransferOnePacket+1
  6981   001284                     l415:
  6982   001284  0012               	return		;funcret
  6983   001286                     __end_of_USBTransferOnePacket:
  6984                           	callstack 0
  6985                           
  6986 ;; *************** function _USBEnableEndpoint *****************
  6987 ;; Defined at:
  6988 ;;		line 833 in file "usb_device.c"
  6989 ;; Parameters:    Size  Location     Type
  6990 ;;  ep              1    wreg     unsigned char 
  6991 ;;  options         1   10[COMRAM] unsigned char 
  6992 ;; Auto vars:     Size  Location     Type
  6993 ;;  ep              1   13[COMRAM] unsigned char 
  6994 ;;  p               2   11[COMRAM] PTR unsigned char 
  6995 ;;		 -> UEP0(1), 
  6996 ;; Return value:  Size  Location     Type
  6997 ;;                  1    wreg      void 
  6998 ;; Registers used:
  6999 ;;		wreg, fsr2l, fsr2h, status,2, status,0, prodl, prodh, cstack
  7000 ;; Tracked objects:
  7001 ;;		On entry : 0/0
  7002 ;;		On exit  : 0/0
  7003 ;;		Unchanged: 0/0
  7004 ;; Data sizes:     COMRAM   BANK0   BANK1   BANK2
  7005 ;;      Params:         1       0       0       0
  7006 ;;      Locals:         3       0       0       0
  7007 ;;      Temps:          0       0       0       0
  7008 ;;      Totals:         4       0       0       0
  7009 ;;Total ram usage:        4 bytes
  7010 ;; Hardware stack levels used: 1
  7011 ;; Hardware stack levels required when called: 2
  7012 ;; This function calls:
  7013 ;;		_USBConfigureEndpoint
  7014 ;; This function is called by:
  7015 ;;		_CDCInitEP
  7016 ;; This function uses a non-reentrant model
  7017 ;;
  7018                           
  7019                           	psect	text33
  7020   002512                     __ptext33:
  7021                           	callstack 0
  7022   002512                     _USBEnableEndpoint:
  7023                           	callstack 24
  7024                           
  7025                           ;incstack = 0
  7026                           ;USBEnableEndpoint@ep stored from wreg
  7027   002512  6E0E               	movwf	USBEnableEndpoint@ep^0,c
  7028   002514                     
  7029                           ;usb_device.c: 833: void USBEnableEndpoint(uint8_t ep, uint8_t options);usb_device.c: 83
      +                          4: {;usb_device.c: 835:     unsigned char* p;;usb_device.c: 839:     if(options & 0x04)
  7030   002514  A40B               	btfss	USBEnableEndpoint@options^0,2,c
  7031   002516  EF8F  F012         	goto	u2051
  7032   00251A  EF91  F012         	goto	u2050
  7033   00251E                     u2051:
  7034   00251E  EF96  F012         	goto	l3559
  7035   002522                     u2050:
  7036   002522                     
  7037                           ;usb_device.c: 840:     {;usb_device.c: 841:         USBConfigureEndpoint(ep, 0);
  7038   002522  0E00               	movlw	0
  7039   002524  6E01               	movwf	USBConfigureEndpoint@direction^0,c
  7040   002526  500E               	movf	USBEnableEndpoint@ep^0,w,c
  7041   002528  ECDE  F00E         	call	_USBConfigureEndpoint
  7042   00252C                     l3559:
  7043                           
  7044                           ;usb_device.c: 843:     if(options & 0x02)
  7045   00252C  A20B               	btfss	USBEnableEndpoint@options^0,1,c
  7046   00252E  EF9B  F012         	goto	u2061
  7047   002532  EF9D  F012         	goto	u2060
  7048   002536                     u2061:
  7049   002536  EFA2  F012         	goto	l3563
  7050   00253A                     u2060:
  7051   00253A                     
  7052                           ;usb_device.c: 844:     {;usb_device.c: 845:         USBConfigureEndpoint(ep, 1);
  7053   00253A  0E01               	movlw	1
  7054   00253C  6E01               	movwf	USBConfigureEndpoint@direction^0,c
  7055   00253E  500E               	movf	USBEnableEndpoint@ep^0,w,c
  7056   002540  ECDE  F00E         	call	_USBConfigureEndpoint
  7057   002544                     l3563:
  7058                           
  7059                           ;usb_device.c: 854:         p = (unsigned char*)(&UEP0+ep);
  7060   002544  0E53               	movlw	83
  7061   002546  240E               	addwf	USBEnableEndpoint@ep^0,w,c
  7062   002548  6E0C               	movwf	USBEnableEndpoint@p^0,c
  7063   00254A  6A0D               	clrf	(USBEnableEndpoint@p+1)^0,c
  7064   00254C  0E0F               	movlw	15
  7065   00254E  220D               	addwfc	(USBEnableEndpoint@p+1)^0,f,c
  7066   002550                     
  7067                           ;usb_device.c: 856:     *p = options;
  7068   002550  C00C  FFD9         	movff	USBEnableEndpoint@p,fsr2l
  7069   002554  C00D  FFDA         	movff	USBEnableEndpoint@p+1,fsr2h
  7070   002558  C00B  FFDF         	movff	USBEnableEndpoint@options,indf2
  7071   00255C  0012               	return		;funcret
  7072   00255E                     __end_of_USBEnableEndpoint:
  7073                           	callstack 0
  7074                           
  7075 ;; *************** function _USBConfigureEndpoint *****************
  7076 ;; Defined at:
  7077 ;;		line 1498 in file "usb_device.c"
  7078 ;; Parameters:    Size  Location     Type
  7079 ;;  EPNum           1    wreg     unsigned char 
  7080 ;;  direction       1    0[COMRAM] unsigned char 
  7081 ;; Auto vars:     Size  Location     Type
  7082 ;;  EPNum           1    7[COMRAM] unsigned char 
  7083 ;;  handle          2    8[COMRAM] PTR volatile struct __BD
  7084 ;;		 -> BDT(48), 
  7085 ;; Return value:  Size  Location     Type
  7086 ;;                  1    wreg      void 
  7087 ;; Registers used:
  7088 ;;		wreg, fsr2l, fsr2h, status,2, status,0, prodl, prodh
  7089 ;; Tracked objects:
  7090 ;;		On entry : 0/0
  7091 ;;		On exit  : 0/0
  7092 ;;		Unchanged: 0/0
  7093 ;; Data sizes:     COMRAM   BANK0   BANK1   BANK2
  7094 ;;      Params:         1       0       0       0
  7095 ;;      Locals:         3       0       0       0
  7096 ;;      Temps:          6       0       0       0
  7097 ;;      Totals:        10       0       0       0
  7098 ;;Total ram usage:       10 bytes
  7099 ;; Hardware stack levels used: 1
  7100 ;; Hardware stack levels required when called: 1
  7101 ;; This function calls:
  7102 ;;		Nothing
  7103 ;; This function is called by:
  7104 ;;		_USBEnableEndpoint
  7105 ;; This function uses a non-reentrant model
  7106 ;;
  7107                           
  7108                           	psect	text34
  7109   001DBC                     __ptext34:
  7110                           	callstack 0
  7111   001DBC                     _USBConfigureEndpoint:
  7112                           	callstack 24
  7113                           
  7114                           ;incstack = 0
  7115                           ;USBConfigureEndpoint@EPNum stored from wreg
  7116   001DBC  6E08               	movwf	USBConfigureEndpoint@EPNum^0,c
  7117   001DBE                     
  7118                           ;usb_device.c: 1498: static void USBConfigureEndpoint(uint8_t EPNum, uint8_t direction);
      +                          usb_device.c: 1499: {;usb_device.c: 1500:     volatile BDT_ENTRY* handle;;usb_device.c: 
      +                          1504:     handle = (volatile BDT_ENTRY*)&BDT[0];
  7119   001DBE  0E00               	movlw	0
  7120   001DC0  6E09               	movwf	USBConfigureEndpoint@handle^0,c
  7121   001DC2  0E02               	movlw	2
  7122   001DC4  6E0A               	movwf	(USBConfigureEndpoint@handle+1)^0,c
  7123   001DC6                     
  7124                           ;usb_device.c: 1505:     handle += (4*EPNum+2*direction+0u);
  7125   001DC6  5001               	movf	USBConfigureEndpoint@direction^0,w,c
  7126   001DC8  6E02               	movwf	??_USBConfigureEndpoint^0,c
  7127   001DCA  6A03               	clrf	(??_USBConfigureEndpoint+1)^0,c
  7128   001DCC  90D8               	bcf	status,0,c
  7129   001DCE  3602               	rlcf	??_USBConfigureEndpoint^0,f,c
  7130   001DD0  3603               	rlcf	(??_USBConfigureEndpoint+1)^0,f,c
  7131   001DD2  5008               	movf	USBConfigureEndpoint@EPNum^0,w,c
  7132   001DD4  6E04               	movwf	(??_USBConfigureEndpoint+2)^0,c
  7133   001DD6  6A05               	clrf	(??_USBConfigureEndpoint+3)^0,c
  7134   001DD8  90D8               	bcf	status,0,c
  7135   001DDA  3604               	rlcf	(??_USBConfigureEndpoint+2)^0,f,c
  7136   001DDC  3605               	rlcf	(??_USBConfigureEndpoint+3)^0,f,c
  7137   001DDE  90D8               	bcf	status,0,c
  7138   001DE0  3604               	rlcf	(??_USBConfigureEndpoint+2)^0,f,c
  7139   001DE2  3605               	rlcf	(??_USBConfigureEndpoint+3)^0,f,c
  7140   001DE4  5002               	movf	??_USBConfigureEndpoint^0,w,c
  7141   001DE6  2404               	addwf	(??_USBConfigureEndpoint+2)^0,w,c
  7142   001DE8  6E06               	movwf	(??_USBConfigureEndpoint+4)^0,c
  7143   001DEA  5003               	movf	(??_USBConfigureEndpoint+1)^0,w,c
  7144   001DEC  2005               	addwfc	(??_USBConfigureEndpoint+3)^0,w,c
  7145   001DEE  6E07               	movwf	(??_USBConfigureEndpoint+5)^0,c
  7146   001DF0  90D8               	bcf	status,0,c
  7147   001DF2  3606               	rlcf	(??_USBConfigureEndpoint+4)^0,f,c
  7148   001DF4  3607               	rlcf	(??_USBConfigureEndpoint+5)^0,f,c
  7149   001DF6  90D8               	bcf	status,0,c
  7150   001DF8  3606               	rlcf	(??_USBConfigureEndpoint+4)^0,f,c
  7151   001DFA  3607               	rlcf	(??_USBConfigureEndpoint+5)^0,f,c
  7152   001DFC  5006               	movf	(??_USBConfigureEndpoint+4)^0,w,c
  7153   001DFE  2609               	addwf	USBConfigureEndpoint@handle^0,f,c
  7154   001E00  5007               	movf	(??_USBConfigureEndpoint+5)^0,w,c
  7155   001E02  220A               	addwfc	(USBConfigureEndpoint@handle+1)^0,f,c
  7156   001E04                     
  7157                           ;usb_device.c: 1507:     handle->STAT.UOWN = 0;
  7158   001E04  C009  FFD9         	movff	USBConfigureEndpoint@handle,fsr2l
  7159   001E08  C00A  FFDA         	movff	USBConfigureEndpoint@handle+1,fsr2h
  7160   001E0C  9EDF               	bcf	indf2,7,c
  7161   001E0E                     
  7162                           ;usb_device.c: 1512:     if(direction == 0)
  7163   001E0E  5001               	movf	USBConfigureEndpoint@direction^0,w,c
  7164   001E10  A4D8               	btfss	status,2,c
  7165   001E12  EF0D  F00F         	goto	u2041
  7166   001E16  EF0F  F00F         	goto	u2040
  7167   001E1A                     u2041:
  7168   001E1A  EF1D  F00F         	goto	l3529
  7169   001E1E                     u2040:
  7170   001E1E                     
  7171                           ;usb_device.c: 1513:     {;usb_device.c: 1514:         pBDTEntryOut[EPNum] = handle;
  7172   001E1E  5008               	movf	USBConfigureEndpoint@EPNum^0,w,c
  7173   001E20  0D02               	mullw	2
  7174   001E22  0E72               	movlw	low _pBDTEntryOut
  7175   001E24  24F3               	addwf	243,w,c
  7176   001E26  6ED9               	movwf	fsr2l,c
  7177   001E28  0E00               	movlw	high _pBDTEntryOut
  7178   001E2A  20F4               	addwfc	prodh,w,c
  7179   001E2C  6EDA               	movwf	fsr2h,c
  7180   001E2E  C009  FFDE         	movff	USBConfigureEndpoint@handle,postinc2
  7181   001E32  C00A  FFDD         	movff	USBConfigureEndpoint@handle+1,postdec2
  7182                           
  7183                           ;usb_device.c: 1515:     }
  7184   001E36  EF29  F00F         	goto	l3531
  7185   001E3A                     l3529:
  7186                           
  7187                           ;usb_device.c: 1517:     {;usb_device.c: 1518:         pBDTEntryIn[EPNum] = handle;
  7188   001E3A  5008               	movf	USBConfigureEndpoint@EPNum^0,w,c
  7189   001E3C  0D02               	mullw	2
  7190   001E3E  0E45               	movlw	low _pBDTEntryIn
  7191   001E40  24F3               	addwf	243,w,c
  7192   001E42  6ED9               	movwf	fsr2l,c
  7193   001E44  0E00               	movlw	high _pBDTEntryIn
  7194   001E46  20F4               	addwfc	prodh,w,c
  7195   001E48  6EDA               	movwf	fsr2h,c
  7196   001E4A  C009  FFDE         	movff	USBConfigureEndpoint@handle,postinc2
  7197   001E4E  C00A  FFDD         	movff	USBConfigureEndpoint@handle+1,postdec2
  7198   001E52                     l3531:
  7199                           
  7200                           ;usb_device.c: 1522:         handle->STAT.DTS = 0;
  7201   001E52  C009  FFD9         	movff	USBConfigureEndpoint@handle,fsr2l
  7202   001E56  C00A  FFDA         	movff	USBConfigureEndpoint@handle+1,fsr2h
  7203   001E5A  9CDF               	bcf	indf2,6,c
  7204   001E5C                     
  7205                           ;usb_device.c: 1523:         (handle+1)->STAT.DTS = 1;
  7206   001E5C  EE20 F004          	lfsr	2,4
  7207   001E60  5009               	movf	USBConfigureEndpoint@handle^0,w,c
  7208   001E62  26D9               	addwf	fsr2l,f,c
  7209   001E64  500A               	movf	(USBConfigureEndpoint@handle+1)^0,w,c
  7210   001E66  22DA               	addwfc	fsr2h,f,c
  7211   001E68  8CDF               	bsf	indf2,6,c
  7212   001E6A  0012               	return		;funcret
  7213   001E6C                     __end_of_USBConfigureEndpoint:
  7214                           	callstack 0
  7215                           
  7216 ;; *************** function _APP_LEDUpdateUSBStatus *****************
  7217 ;; Defined at:
  7218 ;;		line 50 in file "../CDC/app_led_usb_status.c"
  7219 ;; Parameters:    Size  Location     Type
  7220 ;;		None
  7221 ;; Auto vars:     Size  Location     Type
  7222 ;;		None
  7223 ;; Return value:  Size  Location     Type
  7224 ;;                  1    wreg      void 
  7225 ;; Registers used:
  7226 ;;		wreg, status,2, status,0, cstack
  7227 ;; Tracked objects:
  7228 ;;		On entry : 0/0
  7229 ;;		On exit  : 0/0
  7230 ;;		Unchanged: 0/0
  7231 ;; Data sizes:     COMRAM   BANK0   BANK1   BANK2
  7232 ;;      Params:         0       0       0       0
  7233 ;;      Locals:         0       0       0       0
  7234 ;;      Temps:          2       0       0       0
  7235 ;;      Totals:         2       0       0       0
  7236 ;;Total ram usage:        2 bytes
  7237 ;; Hardware stack levels used: 1
  7238 ;; Hardware stack levels required when called: 2
  7239 ;; This function calls:
  7240 ;;		_LED_Off
  7241 ;;		_LED_On
  7242 ;; This function is called by:
  7243 ;;		_USER_USB_CALLBACK_EVENT_HANDLER
  7244 ;; This function uses a non-reentrant model
  7245 ;;
  7246                           
  7247                           	psect	text35
  7248   0018DA                     __ptext35:
  7249                           	callstack 0
  7250   0018DA                     _APP_LEDUpdateUSBStatus:
  7251                           	callstack 25
  7252   0018DA                     
  7253                           ;../CDC/app_led_usb_status.c: 52:     static uint16_t ledCount = 0;;../CDC/app_led_usb_s
      +                          tatus.c: 54:     if(UCONbits.SUSPND == 1)
  7254   0018DA  A264               	btfss	100,1,c	;volatile
  7255   0018DC  EF72  F00C         	goto	u2141
  7256   0018E0  EF74  F00C         	goto	u2140
  7257   0018E4                     u2141:
  7258   0018E4  EFD3  F00C         	goto	l3721
  7259   0018E8                     u2140:
  7260   0018E8                     
  7261                           ;../CDC/app_led_usb_status.c: 55:     {;../CDC/app_led_usb_status.c: 56:         LED_Off
      +                          (LED_D1);
  7262   0018E8  0E01               	movlw	1
  7263   0018EA  EC03  F012         	call	_LED_Off
  7264   0018EE  EFE6  F00C         	goto	l823
  7265   0018F2                     l3695:
  7266                           
  7267                           ;../CDC/app_led_usb_status.c: 65:             if(ledCount == 1)
  7268   0018F2  044B               	decf	APP_LEDUpdateUSBStatus@ledCount^0,w,c
  7269   0018F4  104C               	iorwf	(APP_LEDUpdateUSBStatus@ledCount+1)^0,w,c
  7270   0018F6  A4D8               	btfss	status,2,c
  7271   0018F8  EF80  F00C         	goto	u2151
  7272   0018FC  EF82  F00C         	goto	u2150
  7273   001900                     u2151:
  7274   001900  EF87  F00C         	goto	l3699
  7275   001904                     u2150:
  7276   001904                     
  7277                           ;../CDC/app_led_usb_status.c: 66:             {;../CDC/app_led_usb_status.c: 67:        
      +                                   LED_On(LED_D1);
  7278   001904  0E01               	movlw	1
  7279   001906  ECD2  F011         	call	_LED_On
  7280                           
  7281                           ;../CDC/app_led_usb_status.c: 68:             }
  7282   00190A  EFE4  F00C         	goto	l3723
  7283   00190E                     l3699:
  7284   00190E  0E4B               	movlw	75
  7285   001910  184B               	xorwf	APP_LEDUpdateUSBStatus@ledCount^0,w,c
  7286   001912  104C               	iorwf	(APP_LEDUpdateUSBStatus@ledCount+1)^0,w,c
  7287   001914  A4D8               	btfss	status,2,c
  7288   001916  EF8F  F00C         	goto	u2161
  7289   00191A  EF91  F00C         	goto	u2160
  7290   00191E                     u2161:
  7291   00191E  EF96  F00C         	goto	l3703
  7292   001922                     u2160:
  7293   001922                     
  7294                           ;../CDC/app_led_usb_status.c: 70:             {;../CDC/app_led_usb_status.c: 71:        
      +                                   LED_Off(LED_D1);
  7295   001922  0E01               	movlw	1
  7296   001924  EC03  F012         	call	_LED_Off
  7297                           
  7298                           ;../CDC/app_led_usb_status.c: 72:             }
  7299   001928  EFE4  F00C         	goto	l3723
  7300   00192C                     l3703:
  7301   00192C  504C               	movf	(APP_LEDUpdateUSBStatus@ledCount+1)^0,w,c
  7302   00192E  E109               	bnz	u2170
  7303   001930  0E97               	movlw	151
  7304   001932  5C4B               	subwf	APP_LEDUpdateUSBStatus@ledCount^0,w,c
  7305   001934  A0D8               	btfss	status,0,c
  7306   001936  EF9F  F00C         	goto	u2171
  7307   00193A  EFA1  F00C         	goto	u2170
  7308   00193E                     u2171:
  7309   00193E  EFA7  F00C         	goto	l827
  7310   001942                     u2170:
  7311   001942                     l3705:
  7312                           
  7313                           ;../CDC/app_led_usb_status.c: 74:             {;../CDC/app_led_usb_status.c: 75:        
      +                                   ledCount = 0;
  7314   001942  0E00               	movlw	0
  7315   001944  6E4C               	movwf	(APP_LEDUpdateUSBStatus@ledCount+1)^0,c
  7316   001946  0E00               	movlw	0
  7317   001948  6E4B               	movwf	APP_LEDUpdateUSBStatus@ledCount^0,c
  7318   00194A  EFE4  F00C         	goto	l3723
  7319   00194E                     l827:
  7320                           
  7321                           ;../CDC/app_led_usb_status.c: 77:             break;
  7322   00194E  EFE4  F00C         	goto	l3723
  7323   001952                     l3707:
  7324                           
  7325                           ;../CDC/app_led_usb_status.c: 82:             if(ledCount == 1)
  7326   001952  044B               	decf	APP_LEDUpdateUSBStatus@ledCount^0,w,c
  7327   001954  104C               	iorwf	(APP_LEDUpdateUSBStatus@ledCount+1)^0,w,c
  7328   001956  A4D8               	btfss	status,2,c
  7329   001958  EFB0  F00C         	goto	u2181
  7330   00195C  EFB2  F00C         	goto	u2180
  7331   001960                     u2181:
  7332   001960  EFB7  F00C         	goto	l3711
  7333   001964                     u2180:
  7334   001964                     
  7335                           ;../CDC/app_led_usb_status.c: 83:             {;../CDC/app_led_usb_status.c: 84:        
      +                                   LED_On(LED_D1);
  7336   001964  0E01               	movlw	1
  7337   001966  ECD2  F011         	call	_LED_On
  7338                           
  7339                           ;../CDC/app_led_usb_status.c: 85:             }
  7340   00196A  EFE4  F00C         	goto	l3723
  7341   00196E                     l3711:
  7342   00196E  0E32               	movlw	50
  7343   001970  184B               	xorwf	APP_LEDUpdateUSBStatus@ledCount^0,w,c
  7344   001972  104C               	iorwf	(APP_LEDUpdateUSBStatus@ledCount+1)^0,w,c
  7345   001974  A4D8               	btfss	status,2,c
  7346   001976  EFBF  F00C         	goto	u2191
  7347   00197A  EFC1  F00C         	goto	u2190
  7348   00197E                     u2191:
  7349   00197E  EFC6  F00C         	goto	l3715
  7350   001982                     u2190:
  7351   001982                     
  7352                           ;../CDC/app_led_usb_status.c: 87:             {;../CDC/app_led_usb_status.c: 88:        
      +                                   LED_Off(LED_D1);
  7353   001982  0E01               	movlw	1
  7354   001984  EC03  F012         	call	_LED_Off
  7355                           
  7356                           ;../CDC/app_led_usb_status.c: 89:             }
  7357   001988  EFE4  F00C         	goto	l3723
  7358   00198C                     l3715:
  7359   00198C  0EB7               	movlw	183
  7360   00198E  5C4B               	subwf	APP_LEDUpdateUSBStatus@ledCount^0,w,c
  7361   001990  0E03               	movlw	3
  7362   001992  584C               	subwfb	(APP_LEDUpdateUSBStatus@ledCount+1)^0,w,c
  7363   001994  A0D8               	btfss	status,0,c
  7364   001996  EFCF  F00C         	goto	u2201
  7365   00199A  EFD1  F00C         	goto	u2200
  7366   00199E                     u2201:
  7367   00199E  EFE4  F00C         	goto	l3723
  7368   0019A2                     u2200:
  7369   0019A2  EFA1  F00C         	goto	l3705
  7370   0019A6                     l3721:
  7371   0019A6  505B               	movf	_USBDeviceState^0,w,c
  7372   0019A8  6E04               	movwf	??_APP_LEDUpdateUSBStatus^0,c
  7373   0019AA  6A05               	clrf	(??_APP_LEDUpdateUSBStatus+1)^0,c
  7374                           
  7375                           ; Switch on 2 bytes has been partitioned into a top level switch of size 1, and 1 sub-sw
      +                          itches
  7376                           ; Switch size 1, requested type "simple"
  7377                           ; Number of cases is 1, Range of values is 0 to 0
  7378                           ; switch strategies available:
  7379                           ; Name         Instructions Cycles
  7380                           ; simple_byte            4     3 (average)
  7381                           ;	Chosen strategy is simple_byte
  7382   0019AC  5005               	movf	(??_APP_LEDUpdateUSBStatus+1)^0,w,c
  7383   0019AE  0A00               	xorlw	0	; case 0
  7384   0019B0  B4D8               	btfsc	status,2,c
  7385   0019B2  EFDD  F00C         	goto	l5399
  7386   0019B6  EFA9  F00C         	goto	l3707
  7387   0019BA                     l5399:
  7388                           
  7389                           ; Switch size 1, requested type "simple"
  7390                           ; Number of cases is 1, Range of values is 32 to 32
  7391                           ; switch strategies available:
  7392                           ; Name         Instructions Cycles
  7393                           ; simple_byte            4     3 (average)
  7394                           ;	Chosen strategy is simple_byte
  7395   0019BA  5004               	movf	??_APP_LEDUpdateUSBStatus^0,w,c
  7396   0019BC  0A20               	xorlw	32	; case 32
  7397   0019BE  B4D8               	btfsc	status,2,c
  7398   0019C0  EF79  F00C         	goto	l3695
  7399   0019C4  EFA9  F00C         	goto	l3707
  7400   0019C8                     l3723:
  7401                           
  7402                           ;../CDC/app_led_usb_status.c: 98:     ledCount++;
  7403   0019C8  4A4B               	infsnz	APP_LEDUpdateUSBStatus@ledCount^0,f,c
  7404   0019CA  2A4C               	incf	(APP_LEDUpdateUSBStatus@ledCount+1)^0,f,c
  7405   0019CC                     l823:
  7406   0019CC  0012               	return		;funcret
  7407   0019CE                     __end_of_APP_LEDUpdateUSBStatus:
  7408                           	callstack 0
  7409                           
  7410 ;; *************** function _LED_On *****************
  7411 ;; Defined at:
  7412 ;;		line 59 in file "../CDC/leds.c"
  7413 ;; Parameters:    Size  Location     Type
  7414 ;;  led             1    wreg     enum E2
  7415 ;; Auto vars:     Size  Location     Type
  7416 ;;  led             1    2[COMRAM] enum E2
  7417 ;; Return value:  Size  Location     Type
  7418 ;;                  1    wreg      void 
  7419 ;; Registers used:
  7420 ;;		wreg, status,2, status,0
  7421 ;; Tracked objects:
  7422 ;;		On entry : 0/0
  7423 ;;		On exit  : 0/0
  7424 ;;		Unchanged: 0/0
  7425 ;; Data sizes:     COMRAM   BANK0   BANK1   BANK2
  7426 ;;      Params:         0       0       0       0
  7427 ;;      Locals:         1       0       0       0
  7428 ;;      Temps:          2       0       0       0
  7429 ;;      Totals:         3       0       0       0
  7430 ;;Total ram usage:        3 bytes
  7431 ;; Hardware stack levels used: 1
  7432 ;; Hardware stack levels required when called: 1
  7433 ;; This function calls:
  7434 ;;		Nothing
  7435 ;; This function is called by:
  7436 ;;		_APP_LEDUpdateUSBStatus
  7437 ;; This function uses a non-reentrant model
  7438 ;;
  7439                           
  7440                           	psect	text36
  7441   0023A4                     __ptext36:
  7442                           	callstack 0
  7443   0023A4                     _LED_On:
  7444                           	callstack 25
  7445                           
  7446                           ;incstack = 0
  7447                           ;LED_On@led stored from wreg
  7448   0023A4  6E03               	movwf	LED_On@led^0,c
  7449   0023A6                     
  7450                           ;../CDC/leds.c: 59: void LED_On(LED led);../CDC/leds.c: 60: {;../CDC/leds.c: 61:     swi
      +                          tch(led)
  7451   0023A6  EFE1  F011         	goto	l3611
  7452   0023AA                     l845:
  7453                           
  7454                           ;../CDC/leds.c: 64:             LATCbits.LATC0 = 1;
  7455   0023AA  808B               	bsf	139,0,c	;volatile
  7456                           
  7457                           ;../CDC/leds.c: 65:             break;
  7458   0023AC  EF02  F012         	goto	l851
  7459   0023B0                     l847:
  7460                           
  7461                           ;../CDC/leds.c: 68:             LATCbits.LATC1 = 1;
  7462   0023B0  828B               	bsf	139,1,c	;volatile
  7463                           
  7464                           ;../CDC/leds.c: 69:             break;
  7465   0023B2  EF02  F012         	goto	l851
  7466   0023B6                     l848:
  7467                           
  7468                           ;../CDC/leds.c: 72:             LATCbits.LATC2 = 1;
  7469   0023B6  848B               	bsf	139,2,c	;volatile
  7470                           
  7471                           ;../CDC/leds.c: 73:             break;
  7472   0023B8  EF02  F012         	goto	l851
  7473   0023BC                     l849:
  7474                           
  7475                           ;../CDC/leds.c: 76:             LATCbits.LATC3 = 1;
  7476   0023BC  868B               	bsf	139,3,c	;volatile
  7477                           
  7478                           ;../CDC/leds.c: 77:             break;
  7479   0023BE  EF02  F012         	goto	l851
  7480   0023C2                     l3611:
  7481   0023C2  5003               	movf	LED_On@led^0,w,c
  7482   0023C4  6E01               	movwf	??_LED_On^0,c
  7483   0023C6  6A02               	clrf	(??_LED_On+1)^0,c
  7484                           
  7485                           ; Switch on 2 bytes has been partitioned into a top level switch of size 1, and 1 sub-sw
      +                          itches
  7486                           ; Switch size 1, requested type "simple"
  7487                           ; Number of cases is 1, Range of values is 0 to 0
  7488                           ; switch strategies available:
  7489                           ; Name         Instructions Cycles
  7490                           ; simple_byte            4     3 (average)
  7491                           ;	Chosen strategy is simple_byte
  7492   0023C8  5002               	movf	(??_LED_On+1)^0,w,c
  7493   0023CA  0A00               	xorlw	0	; case 0
  7494   0023CC  B4D8               	btfsc	status,2,c
  7495   0023CE  EFEB  F011         	goto	l5401
  7496   0023D2  EF02  F012         	goto	l851
  7497   0023D6                     l5401:
  7498                           
  7499                           ; Switch size 1, requested type "simple"
  7500                           ; Number of cases is 5, Range of values is 0 to 4
  7501                           ; switch strategies available:
  7502                           ; Name         Instructions Cycles
  7503                           ; simple_byte           16     9 (average)
  7504                           ;	Chosen strategy is simple_byte
  7505   0023D6  5001               	movf	??_LED_On^0,w,c
  7506   0023D8  0A00               	xorlw	0	; case 0
  7507   0023DA  B4D8               	btfsc	status,2,c
  7508   0023DC  EF02  F012         	goto	l851
  7509   0023E0  0A01               	xorlw	1	; case 1
  7510   0023E2  B4D8               	btfsc	status,2,c
  7511   0023E4  EFD5  F011         	goto	l845
  7512   0023E8  0A03               	xorlw	3	; case 2
  7513   0023EA  B4D8               	btfsc	status,2,c
  7514   0023EC  EFD8  F011         	goto	l847
  7515   0023F0  0A01               	xorlw	1	; case 3
  7516   0023F2  B4D8               	btfsc	status,2,c
  7517   0023F4  EFDB  F011         	goto	l848
  7518   0023F8  0A07               	xorlw	7	; case 4
  7519   0023FA  B4D8               	btfsc	status,2,c
  7520   0023FC  EFDE  F011         	goto	l849
  7521   002400  EF02  F012         	goto	l851
  7522   002404                     l851:
  7523   002404  0012               	return		;funcret
  7524   002406                     __end_of_LED_On:
  7525                           	callstack 0
  7526                           
  7527 ;; *************** function _LED_Off *****************
  7528 ;; Defined at:
  7529 ;;		line 100 in file "../CDC/leds.c"
  7530 ;; Parameters:    Size  Location     Type
  7531 ;;  led             1    wreg     enum E2
  7532 ;; Auto vars:     Size  Location     Type
  7533 ;;  led             1    2[COMRAM] enum E2
  7534 ;; Return value:  Size  Location     Type
  7535 ;;                  1    wreg      void 
  7536 ;; Registers used:
  7537 ;;		wreg, status,2, status,0
  7538 ;; Tracked objects:
  7539 ;;		On entry : 0/0
  7540 ;;		On exit  : 0/0
  7541 ;;		Unchanged: 0/0
  7542 ;; Data sizes:     COMRAM   BANK0   BANK1   BANK2
  7543 ;;      Params:         0       0       0       0
  7544 ;;      Locals:         1       0       0       0
  7545 ;;      Temps:          2       0       0       0
  7546 ;;      Totals:         3       0       0       0
  7547 ;;Total ram usage:        3 bytes
  7548 ;; Hardware stack levels used: 1
  7549 ;; Hardware stack levels required when called: 1
  7550 ;; This function calls:
  7551 ;;		Nothing
  7552 ;; This function is called by:
  7553 ;;		_APP_LEDUpdateUSBStatus
  7554 ;; This function uses a non-reentrant model
  7555 ;;
  7556                           
  7557                           	psect	text37
  7558   002406                     __ptext37:
  7559                           	callstack 0
  7560   002406                     _LED_Off:
  7561                           	callstack 25
  7562                           
  7563                           ;incstack = 0
  7564                           ;LED_Off@led stored from wreg
  7565   002406  6E03               	movwf	LED_Off@led^0,c
  7566   002408                     
  7567                           ;../CDC/leds.c: 100: void LED_Off(LED led);../CDC/leds.c: 101: {;../CDC/leds.c: 102:    
      +                           switch(led)
  7568   002408  EF12  F012         	goto	l3601
  7569   00240C                     l855:
  7570                           
  7571                           ;../CDC/leds.c: 105:             LATCbits.LATC0 = 0;
  7572   00240C  908B               	bcf	139,0,c	;volatile
  7573                           
  7574                           ;../CDC/leds.c: 106:             break;
  7575   00240E  EF33  F012         	goto	l861
  7576   002412                     l857:
  7577                           
  7578                           ;../CDC/leds.c: 109:             LATCbits.LATC1 = 0;
  7579   002412  928B               	bcf	139,1,c	;volatile
  7580                           
  7581                           ;../CDC/leds.c: 110:             break;
  7582   002414  EF33  F012         	goto	l861
  7583   002418                     l858:
  7584                           
  7585                           ;../CDC/leds.c: 113:             LATCbits.LATC2 = 0;
  7586   002418  948B               	bcf	139,2,c	;volatile
  7587                           
  7588                           ;../CDC/leds.c: 114:             break;
  7589   00241A  EF33  F012         	goto	l861
  7590   00241E                     l859:
  7591                           
  7592                           ;../CDC/leds.c: 117:             LATCbits.LATC3 = 0;
  7593   00241E  968B               	bcf	139,3,c	;volatile
  7594                           
  7595                           ;../CDC/leds.c: 118:             break;
  7596   002420  EF33  F012         	goto	l861
  7597   002424                     l3601:
  7598   002424  5003               	movf	LED_Off@led^0,w,c
  7599   002426  6E01               	movwf	??_LED_Off^0,c
  7600   002428  6A02               	clrf	(??_LED_Off+1)^0,c
  7601                           
  7602                           ; Switch on 2 bytes has been partitioned into a top level switch of size 1, and 1 sub-sw
      +                          itches
  7603                           ; Switch size 1, requested type "simple"
  7604                           ; Number of cases is 1, Range of values is 0 to 0
  7605                           ; switch strategies available:
  7606                           ; Name         Instructions Cycles
  7607                           ; simple_byte            4     3 (average)
  7608                           ;	Chosen strategy is simple_byte
  7609   00242A  5002               	movf	(??_LED_Off+1)^0,w,c
  7610   00242C  0A00               	xorlw	0	; case 0
  7611   00242E  B4D8               	btfsc	status,2,c
  7612   002430  EF1C  F012         	goto	l5403
  7613   002434  EF33  F012         	goto	l861
  7614   002438                     l5403:
  7615                           
  7616                           ; Switch size 1, requested type "simple"
  7617                           ; Number of cases is 5, Range of values is 0 to 4
  7618                           ; switch strategies available:
  7619                           ; Name         Instructions Cycles
  7620                           ; simple_byte           16     9 (average)
  7621                           ;	Chosen strategy is simple_byte
  7622   002438  5001               	movf	??_LED_Off^0,w,c
  7623   00243A  0A00               	xorlw	0	; case 0
  7624   00243C  B4D8               	btfsc	status,2,c
  7625   00243E  EF33  F012         	goto	l861
  7626   002442  0A01               	xorlw	1	; case 1
  7627   002444  B4D8               	btfsc	status,2,c
  7628   002446  EF06  F012         	goto	l855
  7629   00244A  0A03               	xorlw	3	; case 2
  7630   00244C  B4D8               	btfsc	status,2,c
  7631   00244E  EF09  F012         	goto	l857
  7632   002452  0A01               	xorlw	1	; case 3
  7633   002454  B4D8               	btfsc	status,2,c
  7634   002456  EF0C  F012         	goto	l858
  7635   00245A  0A07               	xorlw	7	; case 4
  7636   00245C  B4D8               	btfsc	status,2,c
  7637   00245E  EF0F  F012         	goto	l859
  7638   002462  EF33  F012         	goto	l861
  7639   002466                     l861:
  7640   002466  0012               	return		;funcret
  7641   002468                     __end_of_LED_Off:
  7642                           	callstack 0
  7643                           
  7644 ;; *************** function _APP_DeviceCDCBasicDemoInitialize *****************
  7645 ;; Defined at:
  7646 ;;		line 52 in file "../CDC/app_device_cdc_basic.c"
  7647 ;; Parameters:    Size  Location     Type
  7648 ;;		None
  7649 ;; Auto vars:     Size  Location     Type
  7650 ;;		None
  7651 ;; Return value:  Size  Location     Type
  7652 ;;                  1    wreg      void 
  7653 ;; Registers used:
  7654 ;;		wreg, status,2
  7655 ;; Tracked objects:
  7656 ;;		On entry : 0/0
  7657 ;;		On exit  : 0/0
  7658 ;;		Unchanged: 0/0
  7659 ;; Data sizes:     COMRAM   BANK0   BANK1   BANK2
  7660 ;;      Params:         0       0       0       0
  7661 ;;      Locals:         0       0       0       0
  7662 ;;      Temps:          0       0       0       0
  7663 ;;      Totals:         0       0       0       0
  7664 ;;Total ram usage:        0 bytes
  7665 ;; Hardware stack levels used: 1
  7666 ;; Hardware stack levels required when called: 1
  7667 ;; This function calls:
  7668 ;;		Nothing
  7669 ;; This function is called by:
  7670 ;;		_USER_USB_CALLBACK_EVENT_HANDLER
  7671 ;; This function uses a non-reentrant model
  7672 ;;
  7673                           
  7674                           	psect	text38
  7675   00276C                     __ptext38:
  7676                           	callstack 0
  7677   00276C                     _APP_DeviceCDCBasicDemoInitialize:
  7678                           	callstack 26
  7679   00276C                     
  7680                           ;../CDC/app_device_cdc_basic.c: 54:     line_coding.bCharFormat = 0;
  7681   00276C  0E00               	movlw	0
  7682   00276E  0100               	movlb	0	; () banked
  7683   002770  6FA7               	movwf	(_line_coding+4)& (0+255),b
  7684                           
  7685                           ;../CDC/app_device_cdc_basic.c: 55:     line_coding.bDataBits = 8;
  7686   002772  0E08               	movlw	8
  7687   002774  6FA9               	movwf	(_line_coding+6)& (0+255),b
  7688                           
  7689                           ;../CDC/app_device_cdc_basic.c: 56:     line_coding.bParityType = 0;
  7690   002776  0E00               	movlw	0
  7691   002778  6FA8               	movwf	(_line_coding+5)& (0+255),b
  7692                           
  7693                           ;../CDC/app_device_cdc_basic.c: 57:     line_coding.dwDTERate = 9600;
  7694   00277A  0E80               	movlw	128
  7695   00277C  6FA3               	movwf	_line_coding& (0+255),b
  7696   00277E  0E25               	movlw	37
  7697   002780  6FA4               	movwf	(_line_coding+1)& (0+255),b
  7698   002782  0E00               	movlw	0
  7699   002784  6FA5               	movwf	(_line_coding+2)& (0+255),b
  7700   002786  0E00               	movlw	0
  7701   002788  6FA6               	movwf	(_line_coding+3)& (0+255),b
  7702                           
  7703                           ;../CDC/app_device_cdc_basic.c: 59:     buttonPressed = 0;
  7704   00278A  0E00               	movlw	0
  7705   00278C  6F90               	movwf	_buttonPressed& (0+255),b
  7706   00278E                     
  7707                           ; BSR set to: 0
  7708   00278E  0012               	return		;funcret
  7709   002790                     __end_of_APP_DeviceCDCBasicDemoInitialize:
  7710                           	callstack 0
  7711                           
  7712 ;; *************** function _USBCtrlTrfOutHandler *****************
  7713 ;; Defined at:
  7714 ;;		line 2496 in file "usb_device.c"
  7715 ;; Parameters:    Size  Location     Type
  7716 ;;		None
  7717 ;; Auto vars:     Size  Location     Type
  7718 ;;		None
  7719 ;; Return value:  Size  Location     Type
  7720 ;;                  1    wreg      void 
  7721 ;; Registers used:
  7722 ;;		wreg, fsr1l, fsr1h, fsr2l, fsr2h, status,2, status,0, cstack
  7723 ;; Tracked objects:
  7724 ;;		On entry : 0/0
  7725 ;;		On exit  : 0/0
  7726 ;;		Unchanged: 0/0
  7727 ;; Data sizes:     COMRAM   BANK0   BANK1   BANK2
  7728 ;;      Params:         0       0       0       0
  7729 ;;      Locals:         0       0       0       0
  7730 ;;      Temps:          0       0       0       0
  7731 ;;      Totals:         0       0       0       0
  7732 ;;Total ram usage:        0 bytes
  7733 ;; Hardware stack levels used: 1
  7734 ;; Hardware stack levels required when called: 3
  7735 ;; This function calls:
  7736 ;;		_USBCtrlTrfRxService
  7737 ;; This function is called by:
  7738 ;;		_USBCtrlEPService
  7739 ;; This function uses a non-reentrant model
  7740 ;;
  7741                           
  7742                           	psect	text39
  7743   002054                     __ptext39:
  7744                           	callstack 0
  7745   002054                     _USBCtrlTrfOutHandler:
  7746                           	callstack 24
  7747   002054                     
  7748                           ;usb_device.c: 2498:     if(controlTransferState == 2)
  7749   002054  0E02               	movlw	2
  7750   002056  1858               	xorwf	_controlTransferState^0,w,c
  7751   002058  A4D8               	btfss	status,2,c
  7752   00205A  EF31  F010         	goto	u2921
  7753   00205E  EF33  F010         	goto	u2920
  7754   002062                     u2921:
  7755   002062  EF37  F010         	goto	l4287
  7756   002066                     u2920:
  7757   002066                     
  7758                           ;usb_device.c: 2499:     {;usb_device.c: 2500:         USBCtrlTrfRxService();
  7759   002066  EC02  F008         	call	_USBCtrlTrfRxService	;wreg free
  7760                           
  7761                           ;usb_device.c: 2501:     }
  7762   00206A  EF64  F010         	goto	l554
  7763   00206E                     l4287:
  7764                           
  7765                           ;usb_device.c: 2503:     {;usb_device.c: 2506:         controlTransferState = 0;
  7766   00206E  0E00               	movlw	0
  7767   002070  6E58               	movwf	_controlTransferState^0,c
  7768                           
  7769                           ;usb_device.c: 2513:         if(BothEP0OutUOWNsSet == 0)
  7770   002072  0100               	movlb	0	; () banked
  7771   002074  5198               	movf	_BothEP0OutUOWNsSet& (0+255),w,b
  7772   002076  A4D8               	btfss	status,2,c
  7773   002078  EF40  F010         	goto	u2931
  7774   00207C  EF42  F010         	goto	u2930
  7775   002080                     u2931:
  7776   002080  EF62  F010         	goto	l4295
  7777   002084                     u2930:
  7778   002084                     
  7779                           ; BSR set to: 0
  7780                           ;usb_device.c: 2514:         {;usb_device.c: 2515:             pBDTEntryEP0OutNext->CNT 
      +                          = 8;
  7781   002084  EE20 F001          	lfsr	2,1
  7782   002088  504F               	movf	_pBDTEntryEP0OutNext^0,w,c
  7783   00208A  26D9               	addwf	fsr2l,f,c
  7784   00208C  5050               	movf	(_pBDTEntryEP0OutNext+1)^0,w,c
  7785   00208E  22DA               	addwfc	fsr2h,f,c
  7786   002090  0E08               	movlw	8
  7787   002092  6EDF               	movwf	indf2,c
  7788                           
  7789                           ;usb_device.c: 2516:             pBDTEntryEP0OutNext->ADR = ((uint16_t)(&SetupPkt));
  7790   002094  EE20 F002          	lfsr	2,2
  7791   002098  504F               	movf	_pBDTEntryEP0OutNext^0,w,c
  7792   00209A  26D9               	addwf	fsr2l,f,c
  7793   00209C  5050               	movf	(_pBDTEntryEP0OutNext+1)^0,w,c
  7794   00209E  22DA               	addwfc	fsr2h,f,c
  7795   0020A0  0E30               	movlw	48
  7796   0020A2  6EDE               	movwf	postinc2,c
  7797   0020A4  0E02               	movlw	2
  7798   0020A6  6EDD               	movwf	postdec2,c
  7799   0020A8                     
  7800                           ; BSR set to: 0
  7801                           ;usb_device.c: 2517:             pBDTEntryEP0OutNext->STAT.Val = 0x00|(0x08 & 0x08)|0x04
      +                          ;
  7802   0020A8  C04F  FFD9         	movff	_pBDTEntryEP0OutNext,fsr2l
  7803   0020AC  C050  FFDA         	movff	_pBDTEntryEP0OutNext+1,fsr2h
  7804   0020B0  0E0C               	movlw	12
  7805   0020B2  6EDF               	movwf	indf2,c
  7806   0020B4                     
  7807                           ; BSR set to: 0
  7808                           ;usb_device.c: 2518:             pBDTEntryEP0OutNext->STAT.Val |= 0x80;
  7809   0020B4  C04F  FFD9         	movff	_pBDTEntryEP0OutNext,fsr2l
  7810   0020B8  C050  FFDA         	movff	_pBDTEntryEP0OutNext+1,fsr2h
  7811   0020BC  0E00               	movlw	0
  7812   0020BE  8EDB               	bsf	plusw2,7,c
  7813                           
  7814                           ;usb_device.c: 2519:         }
  7815   0020C0  EF64  F010         	goto	l554
  7816   0020C4                     l4295:
  7817                           
  7818                           ; BSR set to: 0
  7819                           ;usb_device.c: 2521:         {;usb_device.c: 2522:             BothEP0OutUOWNsSet = 0;
  7820   0020C4  0E00               	movlw	0
  7821   0020C6  6F98               	movwf	_BothEP0OutUOWNsSet& (0+255),b
  7822   0020C8                     l554:
  7823   0020C8  0012               	return		;funcret
  7824   0020CA                     __end_of_USBCtrlTrfOutHandler:
  7825                           	callstack 0
  7826                           
  7827 ;; *************** function _USBCtrlTrfRxService *****************
  7828 ;; Defined at:
  7829 ;;		line 1807 in file "usb_device.c"
  7830 ;; Parameters:    Size  Location     Type
  7831 ;;		None
  7832 ;; Auto vars:     Size  Location     Type
  7833 ;;  byteToRead      1    1[COMRAM] unsigned char 
  7834 ;;  i               1    0[COMRAM] unsigned char 
  7835 ;; Return value:  Size  Location     Type
  7836 ;;                  1    wreg      void 
  7837 ;; Registers used:
  7838 ;;		wreg, fsr1l, fsr1h, fsr2l, fsr2h, status,2, status,0, cstack
  7839 ;; Tracked objects:
  7840 ;;		On entry : 0/0
  7841 ;;		On exit  : 0/0
  7842 ;;		Unchanged: 0/0
  7843 ;; Data sizes:     COMRAM   BANK0   BANK1   BANK2
  7844 ;;      Params:         0       0       0       0
  7845 ;;      Locals:         2       0       0       0
  7846 ;;      Temps:          0       0       0       0
  7847 ;;      Totals:         2       0       0       0
  7848 ;;Total ram usage:        2 bytes
  7849 ;; Hardware stack levels used: 1
  7850 ;; Hardware stack levels required when called: 2
  7851 ;; This function calls:
  7852 ;;		_USBCtrlEPAllowStatusStage
  7853 ;; This function is called by:
  7854 ;;		_USBCtrlTrfOutHandler
  7855 ;; This function uses a non-reentrant model
  7856 ;;
  7857                           
  7858                           	psect	text40
  7859   001004                     __ptext40:
  7860                           	callstack 0
  7861   001004                     _USBCtrlTrfRxService:
  7862                           	callstack 24
  7863   001004                     
  7864                           ;usb_device.c: 1809:     uint8_t byteToRead;;usb_device.c: 1810:     uint8_t i;;usb_devi
      +                          ce.c: 1814:     byteToRead = pBDTEntryEP0OutCurrent->CNT;
  7865   001004  EE20 F001          	lfsr	2,1
  7866   001008  5051               	movf	_pBDTEntryEP0OutCurrent^0,w,c
  7867   00100A  26D9               	addwf	fsr2l,f,c
  7868   00100C  5052               	movf	(_pBDTEntryEP0OutCurrent+1)^0,w,c
  7869   00100E  22DA               	addwfc	fsr2h,f,c
  7870   001010  50DF               	movf	indf2,w,c
  7871   001012  6E02               	movwf	USBCtrlTrfRxService@byteToRead^0,c
  7872   001014                     
  7873                           ;usb_device.c: 1820:     if(byteToRead > outPipes[0].wCount.Val)
  7874   001014  5002               	movf	USBCtrlTrfRxService@byteToRead^0,w,c
  7875   001016  0100               	movlb	0	; () banked
  7876   001018  5D6E               	subwf	(_outPipes+4)& (0+255),w,b
  7877   00101A  0E00               	movlw	0
  7878   00101C  596F               	subwfb	(_outPipes+5)& (0+255),w,b
  7879   00101E  B0D8               	btfsc	status,0,c
  7880   001020  EF14  F008         	goto	u2791
  7881   001024  EF16  F008         	goto	u2790
  7882   001028                     u2791:
  7883   001028  EF18  F008         	goto	l4143
  7884   00102C                     u2790:
  7885   00102C                     
  7886                           ; BSR set to: 0
  7887                           ;usb_device.c: 1821:     {;usb_device.c: 1822:         byteToRead = outPipes[0].wCount.V
      +                          al;
  7888   00102C  C06E  F002         	movff	_outPipes+4,USBCtrlTrfRxService@byteToRead
  7889   001030                     l4143:
  7890                           
  7891                           ; BSR set to: 0
  7892                           ;usb_device.c: 1825:     outPipes[0].wCount.Val -= byteToRead;
  7893   001030  5002               	movf	USBCtrlTrfRxService@byteToRead^0,w,c
  7894   001032  5F6E               	subwf	(_outPipes+4)& (0+255),f,b
  7895   001034  0E00               	movlw	0
  7896   001036  5B6F               	subwfb	(_outPipes+5)& (0+255),f,b
  7897   001038                     
  7898                           ; BSR set to: 0
  7899                           ;usb_device.c: 1829:     for(i=0;i<byteToRead;i++)
  7900   001038  0E00               	movlw	0
  7901   00103A  6E01               	movwf	USBCtrlTrfRxService@i^0,c
  7902   00103C  EF2F  F008         	goto	l4153
  7903   001040                     l4147:
  7904                           
  7905                           ; BSR set to: 0
  7906                           ;usb_device.c: 1830:     {;usb_device.c: 1831:         *outPipes[0].pDst.bRam++ = CtrlTr
      +                          fData[i];
  7907   001040  0E38               	movlw	56
  7908   001042  2401               	addwf	USBCtrlTrfRxService@i^0,w,c
  7909   001044  6ED9               	movwf	fsr2l,c
  7910   001046  6ADA               	clrf	fsr2h,c
  7911   001048  0E02               	movlw	2
  7912   00104A  22DA               	addwfc	fsr2h,f,c
  7913   00104C  C06A  FFE1         	movff	_outPipes,fsr1l
  7914   001050  C06B  FFE2         	movff	_outPipes+1,fsr1h
  7915   001054  CFDF FFE7          	movff	indf2,indf1
  7916   001058                     
  7917                           ; BSR set to: 0
  7918   001058  4B6A               	infsnz	_outPipes& (0+255),f,b
  7919   00105A  2B6B               	incf	(_outPipes+1)& (0+255),f,b
  7920   00105C                     
  7921                           ; BSR set to: 0
  7922                           ;usb_device.c: 1832:     }
  7923   00105C  2A01               	incf	USBCtrlTrfRxService@i^0,f,c
  7924   00105E                     l4153:
  7925                           
  7926                           ; BSR set to: 0
  7927   00105E  5002               	movf	USBCtrlTrfRxService@byteToRead^0,w,c
  7928   001060  5C01               	subwf	USBCtrlTrfRxService@i^0,w,c
  7929   001062  A0D8               	btfss	status,0,c
  7930   001064  EF36  F008         	goto	u2801
  7931   001068  EF38  F008         	goto	u2800
  7932   00106C                     u2801:
  7933   00106C  EF20  F008         	goto	l4147
  7934   001070                     u2800:
  7935   001070                     
  7936                           ; BSR set to: 0
  7937                           ;usb_device.c: 1836:     if(outPipes[0].wCount.Val > 0)
  7938   001070  516E               	movf	(_outPipes+4)& (0+255),w,b
  7939   001072  116F               	iorwf	(_outPipes+5)& (0+255),w,b
  7940   001074  B4D8               	btfsc	status,2,c
  7941   001076  EF3F  F008         	goto	u2811
  7942   00107A  EF41  F008         	goto	u2810
  7943   00107E                     u2811:
  7944   00107E  EF7A  F008         	goto	l4169
  7945   001082                     u2810:
  7946   001082                     
  7947                           ; BSR set to: 0
  7948                           ;usb_device.c: 1837:     {;usb_device.c: 1838:         pBDTEntryEP0OutNext->CNT = 8;
  7949   001082  EE20 F001          	lfsr	2,1
  7950   001086  504F               	movf	_pBDTEntryEP0OutNext^0,w,c
  7951   001088  26D9               	addwf	fsr2l,f,c
  7952   00108A  5050               	movf	(_pBDTEntryEP0OutNext+1)^0,w,c
  7953   00108C  22DA               	addwfc	fsr2h,f,c
  7954   00108E  0E08               	movlw	8
  7955   001090  6EDF               	movwf	indf2,c
  7956                           
  7957                           ;usb_device.c: 1839:         pBDTEntryEP0OutNext->ADR = ((uint16_t)(&CtrlTrfData));
  7958   001092  EE20 F002          	lfsr	2,2
  7959   001096  504F               	movf	_pBDTEntryEP0OutNext^0,w,c
  7960   001098  26D9               	addwf	fsr2l,f,c
  7961   00109A  5050               	movf	(_pBDTEntryEP0OutNext+1)^0,w,c
  7962   00109C  22DA               	addwfc	fsr2h,f,c
  7963   00109E  0E38               	movlw	56
  7964   0010A0  6EDE               	movwf	postinc2,c
  7965   0010A2  0E02               	movlw	2
  7966   0010A4  6EDD               	movwf	postdec2,c
  7967   0010A6                     
  7968                           ; BSR set to: 0
  7969                           ;usb_device.c: 1840:         if(pBDTEntryEP0OutCurrent->STAT.DTS == 0)
  7970   0010A6  C051  FFD9         	movff	_pBDTEntryEP0OutCurrent,fsr2l
  7971   0010AA  C052  FFDA         	movff	_pBDTEntryEP0OutCurrent+1,fsr2h
  7972   0010AE  BCDF               	btfsc	indf2,6,c
  7973   0010B0  EF5C  F008         	goto	u2821
  7974   0010B4  EF5E  F008         	goto	u2820
  7975   0010B8                     u2821:
  7976   0010B8  EF6C  F008         	goto	l4165
  7977   0010BC                     u2820:
  7978   0010BC                     
  7979                           ; BSR set to: 0
  7980                           ;usb_device.c: 1841:         {;usb_device.c: 1842:             pBDTEntryEP0OutNext->STAT
      +                          .Val = 0x40|(0x08 & 0x08);
  7981   0010BC  C04F  FFD9         	movff	_pBDTEntryEP0OutNext,fsr2l
  7982   0010C0  C050  FFDA         	movff	_pBDTEntryEP0OutNext+1,fsr2h
  7983   0010C4  0E48               	movlw	72
  7984   0010C6  6EDF               	movwf	indf2,c
  7985   0010C8                     
  7986                           ; BSR set to: 0
  7987                           ;usb_device.c: 1843:             pBDTEntryEP0OutNext->STAT.Val |= 0x80;
  7988   0010C8  C04F  FFD9         	movff	_pBDTEntryEP0OutNext,fsr2l
  7989   0010CC  C050  FFDA         	movff	_pBDTEntryEP0OutNext+1,fsr2h
  7990   0010D0  0E00               	movlw	0
  7991   0010D2  8EDB               	bsf	plusw2,7,c
  7992                           
  7993                           ;usb_device.c: 1844:         }
  7994   0010D4  EFA3  F008         	goto	l486
  7995   0010D8                     l4165:
  7996                           
  7997                           ; BSR set to: 0
  7998                           ;usb_device.c: 1846:         {;usb_device.c: 1847:             pBDTEntryEP0OutNext->STAT
      +                          .Val = 0x00|(0x08 & 0x08);
  7999   0010D8  C04F  FFD9         	movff	_pBDTEntryEP0OutNext,fsr2l
  8000   0010DC  C050  FFDA         	movff	_pBDTEntryEP0OutNext+1,fsr2h
  8001   0010E0  0E08               	movlw	8
  8002   0010E2  6EDF               	movwf	indf2,c
  8003   0010E4                     
  8004                           ; BSR set to: 0
  8005                           ;usb_device.c: 1848:             pBDTEntryEP0OutNext->STAT.Val |= 0x80;
  8006   0010E4  C04F  FFD9         	movff	_pBDTEntryEP0OutNext,fsr2l
  8007   0010E8  C050  FFDA         	movff	_pBDTEntryEP0OutNext+1,fsr2h
  8008   0010EC  0E00               	movlw	0
  8009   0010EE  8EDB               	bsf	plusw2,7,c
  8010   0010F0  EFA3  F008         	goto	l486
  8011   0010F4                     l4169:
  8012                           
  8013                           ; BSR set to: 0
  8014                           ;usb_device.c: 1852:     {;usb_device.c: 1856:         pBDTEntryEP0OutNext->CNT = 8;
  8015   0010F4  EE20 F001          	lfsr	2,1
  8016   0010F8  504F               	movf	_pBDTEntryEP0OutNext^0,w,c
  8017   0010FA  26D9               	addwf	fsr2l,f,c
  8018   0010FC  5050               	movf	(_pBDTEntryEP0OutNext+1)^0,w,c
  8019   0010FE  22DA               	addwfc	fsr2h,f,c
  8020   001100  0E08               	movlw	8
  8021   001102  6EDF               	movwf	indf2,c
  8022                           
  8023                           ;usb_device.c: 1857:         pBDTEntryEP0OutNext->ADR = ((uint16_t)(&SetupPkt));
  8024   001104  EE20 F002          	lfsr	2,2
  8025   001108  504F               	movf	_pBDTEntryEP0OutNext^0,w,c
  8026   00110A  26D9               	addwf	fsr2l,f,c
  8027   00110C  5050               	movf	(_pBDTEntryEP0OutNext+1)^0,w,c
  8028   00110E  22DA               	addwfc	fsr2h,f,c
  8029   001110  0E30               	movlw	48
  8030   001112  6EDE               	movwf	postinc2,c
  8031   001114  0E02               	movlw	2
  8032   001116  6EDD               	movwf	postdec2,c
  8033   001118                     
  8034                           ; BSR set to: 0
  8035                           ;usb_device.c: 1861:         pBDTEntryEP0OutNext->STAT.Val = 0x04;
  8036   001118  C04F  FFD9         	movff	_pBDTEntryEP0OutNext,fsr2l
  8037   00111C  C050  FFDA         	movff	_pBDTEntryEP0OutNext+1,fsr2h
  8038   001120  0E04               	movlw	4
  8039   001122  6EDF               	movwf	indf2,c
  8040   001124                     
  8041                           ; BSR set to: 0
  8042                           ;usb_device.c: 1862:         pBDTEntryEP0OutNext->STAT.Val |= 0x80;
  8043   001124  C04F  FFD9         	movff	_pBDTEntryEP0OutNext,fsr2l
  8044   001128  C050  FFDA         	movff	_pBDTEntryEP0OutNext+1,fsr2h
  8045   00112C  0E00               	movlw	0
  8046   00112E  8EDB               	bsf	plusw2,7,c
  8047   001130                     
  8048                           ; BSR set to: 0
  8049   001130  9F6D               	bcf	(_outPipes+3)& (0+255),7,b
  8050   001132                     
  8051                           ; BSR set to: 0
  8052                           ;usb_device.c: 1896:         if(USBDeferStatusStagePacket == 0)
  8053   001132  5055               	movf	_USBDeferStatusStagePacket^0,w,c	;volatile
  8054   001134  A4D8               	btfss	status,2,c
  8055   001136  EF9F  F008         	goto	u2831
  8056   00113A  EFA1  F008         	goto	u2830
  8057   00113E                     u2831:
  8058   00113E  EFA3  F008         	goto	l486
  8059   001142                     u2830:
  8060   001142                     
  8061                           ; BSR set to: 0
  8062                           ;usb_device.c: 1897:         {;usb_device.c: 1898:             USBCtrlEPAllowStatusStage
      +                          ();
  8063   001142  ECE7  F00C         	call	_USBCtrlEPAllowStatusStage	;wreg free
  8064   001146                     l486:
  8065   001146  0012               	return		;funcret
  8066   001148                     __end_of_USBCtrlTrfRxService:
  8067                           	callstack 0
  8068                           
  8069 ;; *************** function _USBCtrlEPAllowStatusStage *****************
  8070 ;; Defined at:
  8071 ;;		line 1371 in file "usb_device.c"
  8072 ;; Parameters:    Size  Location     Type
  8073 ;;		None
  8074 ;; Auto vars:     Size  Location     Type
  8075 ;;		None
  8076 ;; Return value:  Size  Location     Type
  8077 ;;                  1    wreg      void 
  8078 ;; Registers used:
  8079 ;;		wreg, fsr2l, fsr2h, status,2, status,0
  8080 ;; Tracked objects:
  8081 ;;		On entry : 0/0
  8082 ;;		On exit  : 0/0
  8083 ;;		Unchanged: 0/0
  8084 ;; Data sizes:     COMRAM   BANK0   BANK1   BANK2
  8085 ;;      Params:         0       0       0       0
  8086 ;;      Locals:         0       0       0       0
  8087 ;;      Temps:          0       0       0       0
  8088 ;;      Totals:         0       0       0       0
  8089 ;;Total ram usage:        0 bytes
  8090 ;; Hardware stack levels used: 1
  8091 ;; Hardware stack levels required when called: 1
  8092 ;; This function calls:
  8093 ;;		Nothing
  8094 ;; This function is called by:
  8095 ;;		_USBDeviceTasks
  8096 ;;		_USBCtrlEPServiceComplete
  8097 ;;		_USBCtrlTrfRxService
  8098 ;; This function uses a non-reentrant model
  8099 ;;
  8100                           
  8101                           	psect	text41
  8102   0019CE                     __ptext41:
  8103                           	callstack 0
  8104   0019CE                     _USBCtrlEPAllowStatusStage:
  8105                           	callstack 24
  8106   0019CE                     
  8107                           ;usb_device.c: 1378:     if(USBStatusStageEnabledFlag1 == 0)
  8108   0019CE  0100               	movlb	0	; () banked
  8109   0019D0  5197               	movf	_USBStatusStageEnabledFlag1& (0+255),w,b	;volatile
  8110   0019D2  A4D8               	btfss	status,2,c
  8111   0019D4  EFEE  F00C         	goto	u2341
  8112   0019D8  EFF0  F00C         	goto	u2340
  8113   0019DC                     u2341:
  8114   0019DC  EF5E  F00D         	goto	l434
  8115   0019E0                     u2340:
  8116   0019E0                     
  8117                           ; BSR set to: 0
  8118                           ;usb_device.c: 1379:     {;usb_device.c: 1380:         USBStatusStageEnabledFlag1 = 1;
  8119   0019E0  0E01               	movlw	1
  8120   0019E2  6F97               	movwf	_USBStatusStageEnabledFlag1& (0+255),b	;volatile
  8121                           
  8122                           ;usb_device.c: 1381:         if(USBStatusStageEnabledFlag2 == 0)
  8123   0019E4  5196               	movf	_USBStatusStageEnabledFlag2& (0+255),w,b	;volatile
  8124   0019E6  A4D8               	btfss	status,2,c
  8125   0019E8  EFF8  F00C         	goto	u2351
  8126   0019EC  EFFA  F00C         	goto	u2350
  8127   0019F0                     u2351:
  8128   0019F0  EF5E  F00D         	goto	l434
  8129   0019F4                     u2350:
  8130   0019F4                     
  8131                           ; BSR set to: 0
  8132                           ;usb_device.c: 1382:         {;usb_device.c: 1383:             USBStatusStageEnabledFlag
      +                          2 = 1;
  8133   0019F4  0E01               	movlw	1
  8134   0019F6  6F96               	movwf	_USBStatusStageEnabledFlag2& (0+255),b	;volatile
  8135   0019F8                     
  8136                           ; BSR set to: 0
  8137                           ;usb_device.c: 1387:             if(controlTransferState == 2)
  8138   0019F8  0E02               	movlw	2
  8139   0019FA  1858               	xorwf	_controlTransferState^0,w,c
  8140   0019FC  A4D8               	btfss	status,2,c
  8141   0019FE  EF03  F00D         	goto	u2361
  8142   001A02  EF05  F00D         	goto	u2360
  8143   001A06                     u2361:
  8144   001A06  EF1A  F00D         	goto	l3847
  8145   001A0A                     u2360:
  8146   001A0A                     
  8147                           ; BSR set to: 0
  8148                           ;usb_device.c: 1388:             {;usb_device.c: 1389:                 pBDTEntryIn[0]->C
      +                          NT = 0;
  8149   001A0A  EE20 F001          	lfsr	2,1
  8150   001A0E  5045               	movf	_pBDTEntryIn^0,w,c
  8151   001A10  26D9               	addwf	fsr2l,f,c
  8152   001A12  5046               	movf	(_pBDTEntryIn+1)^0,w,c
  8153   001A14  22DA               	addwfc	fsr2h,f,c
  8154   001A16  6ADF               	clrf	indf2,c
  8155   001A18                     
  8156                           ; BSR set to: 0
  8157                           ;usb_device.c: 1390:                 pBDTEntryIn[0]->STAT.Val = 0x40|(0x08 & 0x08);
  8158   001A18  C045  FFD9         	movff	_pBDTEntryIn,fsr2l
  8159   001A1C  C046  FFDA         	movff	_pBDTEntryIn+1,fsr2h
  8160   001A20  0E48               	movlw	72
  8161   001A22  6EDF               	movwf	indf2,c
  8162   001A24                     
  8163                           ; BSR set to: 0
  8164                           ;usb_device.c: 1391:                 pBDTEntryIn[0]->STAT.Val |= 0x80;
  8165   001A24  C045  FFD9         	movff	_pBDTEntryIn,fsr2l
  8166   001A28  C046  FFDA         	movff	_pBDTEntryIn+1,fsr2h
  8167   001A2C  0E00               	movlw	0
  8168   001A2E  8EDB               	bsf	plusw2,7,c
  8169                           
  8170                           ;usb_device.c: 1392:             }
  8171   001A30  EF5E  F00D         	goto	l434
  8172   001A34                     l3847:
  8173                           
  8174                           ; BSR set to: 0
  8175   001A34  0458               	decf	_controlTransferState^0,w,c
  8176   001A36  A4D8               	btfss	status,2,c
  8177   001A38  EF20  F00D         	goto	u2371
  8178   001A3C  EF22  F00D         	goto	u2370
  8179   001A40                     u2371:
  8180   001A40  EF5E  F00D         	goto	l430
  8181   001A44                     u2370:
  8182   001A44                     
  8183                           ; BSR set to: 0
  8184                           ;usb_device.c: 1394:             {;usb_device.c: 1395:                 BothEP0OutUOWNsSe
      +                          t = 0;
  8185   001A44  0E00               	movlw	0
  8186   001A46  6F98               	movwf	_BothEP0OutUOWNsSet& (0+255),b
  8187   001A48                     
  8188                           ; BSR set to: 0
  8189                           ;usb_device.c: 1400:                     pBDTEntryEP0OutCurrent->CNT = 8;
  8190   001A48  EE20 F001          	lfsr	2,1
  8191   001A4C  5051               	movf	_pBDTEntryEP0OutCurrent^0,w,c
  8192   001A4E  26D9               	addwf	fsr2l,f,c
  8193   001A50  5052               	movf	(_pBDTEntryEP0OutCurrent+1)^0,w,c
  8194   001A52  22DA               	addwfc	fsr2h,f,c
  8195   001A54  0E08               	movlw	8
  8196   001A56  6EDF               	movwf	indf2,c
  8197   001A58                     
  8198                           ; BSR set to: 0
  8199                           ;usb_device.c: 1401:                     pBDTEntryEP0OutCurrent->ADR = ((uint16_t)(&Setu
      +                          pPkt));
  8200   001A58  EE20 F002          	lfsr	2,2
  8201   001A5C  5051               	movf	_pBDTEntryEP0OutCurrent^0,w,c
  8202   001A5E  26D9               	addwf	fsr2l,f,c
  8203   001A60  5052               	movf	(_pBDTEntryEP0OutCurrent+1)^0,w,c
  8204   001A62  22DA               	addwfc	fsr2h,f,c
  8205   001A64  0E30               	movlw	48
  8206   001A66  6EDE               	movwf	postinc2,c
  8207   001A68  0E02               	movlw	2
  8208   001A6A  6EDD               	movwf	postdec2,c
  8209   001A6C                     
  8210                           ; BSR set to: 0
  8211                           ;usb_device.c: 1402:                     pBDTEntryEP0OutCurrent->STAT.Val = 0x04;
  8212   001A6C  C051  FFD9         	movff	_pBDTEntryEP0OutCurrent,fsr2l
  8213   001A70  C052  FFDA         	movff	_pBDTEntryEP0OutCurrent+1,fsr2h
  8214   001A74  0E04               	movlw	4
  8215   001A76  6EDF               	movwf	indf2,c
  8216   001A78                     
  8217                           ; BSR set to: 0
  8218                           ;usb_device.c: 1403:                     pBDTEntryEP0OutCurrent->STAT.Val |= 0x80;
  8219   001A78  C051  FFD9         	movff	_pBDTEntryEP0OutCurrent,fsr2l
  8220   001A7C  C052  FFDA         	movff	_pBDTEntryEP0OutCurrent+1,fsr2h
  8221   001A80  0E00               	movlw	0
  8222   001A82  8EDB               	bsf	plusw2,7,c
  8223   001A84                     
  8224                           ; BSR set to: 0
  8225                           ;usb_device.c: 1404:                     BothEP0OutUOWNsSet = 1;
  8226   001A84  0E01               	movlw	1
  8227   001A86  6F98               	movwf	_BothEP0OutUOWNsSet& (0+255),b
  8228   001A88                     
  8229                           ; BSR set to: 0
  8230                           ;usb_device.c: 1408:                 pBDTEntryEP0OutNext->CNT = 8;
  8231   001A88  EE20 F001          	lfsr	2,1
  8232   001A8C  504F               	movf	_pBDTEntryEP0OutNext^0,w,c
  8233   001A8E  26D9               	addwf	fsr2l,f,c
  8234   001A90  5050               	movf	(_pBDTEntryEP0OutNext+1)^0,w,c
  8235   001A92  22DA               	addwfc	fsr2h,f,c
  8236   001A94  0E08               	movlw	8
  8237   001A96  6EDF               	movwf	indf2,c
  8238   001A98                     
  8239                           ; BSR set to: 0
  8240                           ;usb_device.c: 1409:                 pBDTEntryEP0OutNext->ADR = ((uint16_t)(&SetupPkt));
  8241   001A98  EE20 F002          	lfsr	2,2
  8242   001A9C  504F               	movf	_pBDTEntryEP0OutNext^0,w,c
  8243   001A9E  26D9               	addwf	fsr2l,f,c
  8244   001AA0  5050               	movf	(_pBDTEntryEP0OutNext+1)^0,w,c
  8245   001AA2  22DA               	addwfc	fsr2h,f,c
  8246   001AA4  0E30               	movlw	48
  8247   001AA6  6EDE               	movwf	postinc2,c
  8248   001AA8  0E02               	movlw	2
  8249   001AAA  6EDD               	movwf	postdec2,c
  8250   001AAC                     
  8251                           ; BSR set to: 0
  8252                           ;usb_device.c: 1410:                 pBDTEntryEP0OutNext->STAT.Val = 0x80;
  8253   001AAC  C04F  FFD9         	movff	_pBDTEntryEP0OutNext,fsr2l
  8254   001AB0  C050  FFDA         	movff	_pBDTEntryEP0OutNext+1,fsr2h
  8255   001AB4  0E80               	movlw	128
  8256   001AB6  6EDF               	movwf	indf2,c
  8257   001AB8  EF5E  F00D         	goto	l434
  8258   001ABC                     l430:
  8259   001ABC                     l434:
  8260                           
  8261                           ; BSR set to: 0
  8262   001ABC  0012               	return		;funcret
  8263   001ABE                     __end_of_USBCtrlEPAllowStatusStage:
  8264                           	callstack 0
  8265                           
  8266 ;; *************** function _USBCtrlTrfInHandler *****************
  8267 ;; Defined at:
  8268 ;;		line 2550 in file "usb_device.c"
  8269 ;; Parameters:    Size  Location     Type
  8270 ;;		None
  8271 ;; Auto vars:     Size  Location     Type
  8272 ;;  lastDTS         1    1[COMRAM] unsigned char 
  8273 ;; Return value:  Size  Location     Type
  8274 ;;                  1    wreg      void 
  8275 ;; Registers used:
  8276 ;;		wreg, fsr1l, fsr1h, fsr2l, fsr2h, status,2, status,0, tblptrl, tblptrh, tblptru, cstack
  8277 ;; Tracked objects:
  8278 ;;		On entry : 0/0
  8279 ;;		On exit  : 0/0
  8280 ;;		Unchanged: 0/0
  8281 ;; Data sizes:     COMRAM   BANK0   BANK1   BANK2
  8282 ;;      Params:         0       0       0       0
  8283 ;;      Locals:         1       0       0       0
  8284 ;;      Temps:          0       0       0       0
  8285 ;;      Totals:         1       0       0       0
  8286 ;;Total ram usage:        1 bytes
  8287 ;; Hardware stack levels used: 1
  8288 ;; Hardware stack levels required when called: 2
  8289 ;; This function calls:
  8290 ;;		_USBCtrlTrfTxService
  8291 ;; This function is called by:
  8292 ;;		_USBCtrlEPService
  8293 ;; This function uses a non-reentrant model
  8294 ;;
  8295                           
  8296                           	psect	text42
  8297   0016D0                     __ptext42:
  8298                           	callstack 0
  8299   0016D0                     _USBCtrlTrfInHandler:
  8300                           	callstack 25
  8301   0016D0                     
  8302                           ;usb_device.c: 2552:     uint8_t lastDTS;;usb_device.c: 2554:     lastDTS = pBDTEntryIn[
      +                          0]->STAT.DTS;
  8303   0016D0  C045  FFD9         	movff	_pBDTEntryIn,fsr2l
  8304   0016D4  C046  FFDA         	movff	_pBDTEntryIn+1,fsr2h
  8305   0016D8  0E00               	movlw	0
  8306   0016DA  BCDF               	btfsc	indf2,6,c
  8307   0016DC  0E01               	movlw	1
  8308   0016DE  6E02               	movwf	USBCtrlTrfInHandler@lastDTS^0,c
  8309   0016E0                     
  8310                           ;usb_device.c: 2557:     pBDTEntryIn[0] = (volatile BDT_ENTRY*)(((uint16_t)pBDTEntryIn[0
      +                          ]) ^ 0x0004);
  8311   0016E0  0E04               	movlw	4
  8312   0016E2  1845               	xorwf	_pBDTEntryIn^0,w,c
  8313   0016E4  6E45               	movwf	_pBDTEntryIn^0,c
  8314   0016E6  5046               	movf	(_pBDTEntryIn+1)^0,w,c
  8315   0016E8  6E46               	movwf	(_pBDTEntryIn+1)^0,c
  8316   0016EA                     
  8317                           ;usb_device.c: 2562:     if(USBDeviceState == ADR_PENDING_STATE)
  8318   0016EA  0E08               	movlw	8
  8319   0016EC  185B               	xorwf	_USBDeviceState^0,w,c
  8320   0016EE  A4D8               	btfss	status,2,c
  8321   0016F0  EF7C  F00B         	goto	u2941
  8322   0016F4  EF7E  F00B         	goto	u2940
  8323   0016F8                     u2941:
  8324   0016F8  EF91  F00B         	goto	l4311
  8325   0016FC                     u2940:
  8326   0016FC                     
  8327                           ;usb_device.c: 2563:     {;usb_device.c: 2564:         UADDR = (SetupPkt.bDevADR & 0x7F)
      +                          ;
  8328   0016FC  0102               	movlb	2	; () banked
  8329   0016FE  5132               	movf	50,w,b	;volatile
  8330   001700  0B7F               	andlw	127
  8331   001702  010F               	movlb	15	; () banked
  8332   001704  6F5C               	movwf	92,b	;volatile
  8333   001706                     
  8334                           ; BSR set to: 15
  8335                           ;usb_device.c: 2565:         if(UADDR != 0u)
  8336   001706  515C               	movf	92,w,b	;volatile
  8337   001708  B4D8               	btfsc	status,2,c
  8338   00170A  EF89  F00B         	goto	u2951
  8339   00170E  EF8B  F00B         	goto	u2950
  8340   001712                     u2951:
  8341   001712  EF8F  F00B         	goto	l4309
  8342   001716                     u2950:
  8343   001716                     
  8344                           ; BSR set to: 15
  8345                           ;usb_device.c: 2566:         {;usb_device.c: 2567:             USBDeviceState=ADDRESS_ST
      +                          ATE;
  8346   001716  0E10               	movlw	16
  8347   001718  6E5B               	movwf	_USBDeviceState^0,c
  8348                           
  8349                           ;usb_device.c: 2568:         }
  8350   00171A  EF91  F00B         	goto	l4311
  8351   00171E                     l4309:
  8352                           
  8353                           ; BSR set to: 15
  8354                           ;usb_device.c: 2570:         {;usb_device.c: 2571:             USBDeviceState=DEFAULT_ST
      +                          ATE;
  8355   00171E  0E04               	movlw	4
  8356   001720  6E5B               	movwf	_USBDeviceState^0,c
  8357   001722                     l4311:
  8358                           
  8359                           ;usb_device.c: 2576:     if(controlTransferState == 1)
  8360   001722  0458               	decf	_controlTransferState^0,w,c
  8361   001724  A4D8               	btfss	status,2,c
  8362   001726  EF97  F00B         	goto	u2961
  8363   00172A  EF99  F00B         	goto	u2960
  8364   00172E                     u2961:
  8365   00172E  EFE0  F00B         	goto	l560
  8366   001732                     u2960:
  8367   001732                     
  8368                           ;usb_device.c: 2577:     {;usb_device.c: 2578:         pBDTEntryIn[0]->ADR = ((uint16_t)
      +                          (CtrlTrfData));
  8369   001732  EE20 F002          	lfsr	2,2
  8370   001736  5045               	movf	_pBDTEntryIn^0,w,c
  8371   001738  26D9               	addwf	fsr2l,f,c
  8372   00173A  5046               	movf	(_pBDTEntryIn+1)^0,w,c
  8373   00173C  22DA               	addwfc	fsr2h,f,c
  8374   00173E  0E38               	movlw	56
  8375   001740  6EDE               	movwf	postinc2,c
  8376   001742  0E02               	movlw	2
  8377   001744  6EDD               	movwf	postdec2,c
  8378   001746                     
  8379                           ;usb_device.c: 2579:         USBCtrlTrfTxService();
  8380   001746  EC5A  F00A         	call	_USBCtrlTrfTxService	;wreg free
  8381   00174A                     
  8382                           ;usb_device.c: 2585:         if(shortPacketStatus == 2)
  8383   00174A  0E02               	movlw	2
  8384   00174C  1859               	xorwf	_shortPacketStatus^0,w,c
  8385   00174E  A4D8               	btfss	status,2,c
  8386   001750  EFAC  F00B         	goto	u2971
  8387   001754  EFAE  F00B         	goto	u2970
  8388   001758                     u2971:
  8389   001758  EFBC  F00B         	goto	l4323
  8390   00175C                     u2970:
  8391   00175C                     
  8392                           ;usb_device.c: 2586:         {;usb_device.c: 2589:             pBDTEntryIn[0]->STAT.Val 
      +                          = 0x04;
  8393   00175C  C045  FFD9         	movff	_pBDTEntryIn,fsr2l
  8394   001760  C046  FFDA         	movff	_pBDTEntryIn+1,fsr2h
  8395   001764  0E04               	movlw	4
  8396   001766  6EDF               	movwf	indf2,c
  8397   001768                     
  8398                           ;usb_device.c: 2590:             pBDTEntryIn[0]->STAT.Val |= 0x80;
  8399   001768  C045  FFD9         	movff	_pBDTEntryIn,fsr2l
  8400   00176C  C046  FFDA         	movff	_pBDTEntryIn+1,fsr2h
  8401   001770  0E00               	movlw	0
  8402   001772  8EDB               	bsf	plusw2,7,c
  8403                           
  8404                           ;usb_device.c: 2591:         }
  8405   001774  EFEB  F00B         	goto	l568
  8406   001778                     l4323:
  8407                           
  8408                           ;usb_device.c: 2593:         {;usb_device.c: 2594:             if(lastDTS == 0)
  8409   001778  5002               	movf	USBCtrlTrfInHandler@lastDTS^0,w,c
  8410   00177A  A4D8               	btfss	status,2,c
  8411   00177C  EFC2  F00B         	goto	u2981
  8412   001780  EFC4  F00B         	goto	u2980
  8413   001784                     u2981:
  8414   001784  EFD2  F00B         	goto	l4329
  8415   001788                     u2980:
  8416   001788                     
  8417                           ;usb_device.c: 2595:             {;usb_device.c: 2596:                 pBDTEntryIn[0]->S
      +                          TAT.Val = 0x40|(0x08 & 0x08);
  8418   001788  C045  FFD9         	movff	_pBDTEntryIn,fsr2l
  8419   00178C  C046  FFDA         	movff	_pBDTEntryIn+1,fsr2h
  8420   001790  0E48               	movlw	72
  8421   001792  6EDF               	movwf	indf2,c
  8422   001794                     
  8423                           ;usb_device.c: 2597:                 pBDTEntryIn[0]->STAT.Val |= 0x80;
  8424   001794  C045  FFD9         	movff	_pBDTEntryIn,fsr2l
  8425   001798  C046  FFDA         	movff	_pBDTEntryIn+1,fsr2h
  8426   00179C  0E00               	movlw	0
  8427   00179E  8EDB               	bsf	plusw2,7,c
  8428                           
  8429                           ;usb_device.c: 2598:             }
  8430   0017A0  EFEB  F00B         	goto	l568
  8431   0017A4                     l4329:
  8432                           
  8433                           ;usb_device.c: 2600:             {;usb_device.c: 2601:                 pBDTEntryIn[0]->S
      +                          TAT.Val = 0x00|(0x08 & 0x08);
  8434   0017A4  C045  FFD9         	movff	_pBDTEntryIn,fsr2l
  8435   0017A8  C046  FFDA         	movff	_pBDTEntryIn+1,fsr2h
  8436   0017AC  0E08               	movlw	8
  8437   0017AE  6EDF               	movwf	indf2,c
  8438   0017B0                     
  8439                           ;usb_device.c: 2602:                 pBDTEntryIn[0]->STAT.Val |= 0x80;
  8440   0017B0  C045  FFD9         	movff	_pBDTEntryIn,fsr2l
  8441   0017B4  C046  FFDA         	movff	_pBDTEntryIn+1,fsr2h
  8442   0017B8  0E00               	movlw	0
  8443   0017BA  8EDB               	bsf	plusw2,7,c
  8444   0017BC  EFEB  F00B         	goto	l568
  8445   0017C0                     l560:
  8446                           
  8447                           ;usb_device.c: 2607:  {;usb_device.c: 2611:         if(outPipes[0].info.bits.busy == 1)
  8448   0017C0  0100               	movlb	0	; () banked
  8449   0017C2  AF6D               	btfss	(_outPipes+3)& (0+255),7,b
  8450   0017C4  EFE6  F00B         	goto	u2991
  8451   0017C8  EFE8  F00B         	goto	u2990
  8452   0017CC                     u2991:
  8453   0017CC  EFE9  F00B         	goto	l4335
  8454   0017D0                     u2990:
  8455   0017D0                     
  8456                           ; BSR set to: 0
  8457                           ;usb_device.c: 2617:             outPipes[0].info.bits.busy = 0;
  8458   0017D0  9F6D               	bcf	(_outPipes+3)& (0+255),7,b
  8459   0017D2                     l4335:
  8460                           
  8461                           ; BSR set to: 0
  8462                           ;usb_device.c: 2620:         controlTransferState = 0;
  8463   0017D2  0E00               	movlw	0
  8464   0017D4  6E58               	movwf	_controlTransferState^0,c
  8465   0017D6                     l568:
  8466   0017D6  0012               	return		;funcret
  8467   0017D8                     __end_of_USBCtrlTrfInHandler:
  8468                           	callstack 0
  8469                           
  8470 ;; *************** function _USBCtrlTrfTxService *****************
  8471 ;; Defined at:
  8472 ;;		line 1726 in file "usb_device.c"
  8473 ;; Parameters:    Size  Location     Type
  8474 ;;		None
  8475 ;; Auto vars:     Size  Location     Type
  8476 ;;  byteToSend      1    0[COMRAM] unsigned char 
  8477 ;; Return value:  Size  Location     Type
  8478 ;;                  1    wreg      void 
  8479 ;; Registers used:
  8480 ;;		wreg, fsr1l, fsr1h, fsr2l, fsr2h, status,2, status,0, tblptrl, tblptrh, tblptru
  8481 ;; Tracked objects:
  8482 ;;		On entry : 0/0
  8483 ;;		On exit  : 0/0
  8484 ;;		Unchanged: 0/0
  8485 ;; Data sizes:     COMRAM   BANK0   BANK1   BANK2
  8486 ;;      Params:         0       0       0       0
  8487 ;;      Locals:         1       0       0       0
  8488 ;;      Temps:          0       0       0       0
  8489 ;;      Totals:         1       0       0       0
  8490 ;;Total ram usage:        1 bytes
  8491 ;; Hardware stack levels used: 1
  8492 ;; Hardware stack levels required when called: 1
  8493 ;; This function calls:
  8494 ;;		Nothing
  8495 ;; This function is called by:
  8496 ;;		_USBCtrlEPAllowDataStage
  8497 ;;		_USBCtrlTrfInHandler
  8498 ;; This function uses a non-reentrant model
  8499 ;;
  8500                           
  8501                           	psect	text43
  8502   0014B4                     __ptext43:
  8503                           	callstack 0
  8504   0014B4                     _USBCtrlTrfTxService:
  8505                           	callstack 23
  8506   0014B4                     
  8507                           ;usb_device.c: 1728:     uint8_t byteToSend;;usb_device.c: 1732:     byteToSend = 8;
  8508   0014B4  0E08               	movlw	8
  8509   0014B6  6E01               	movwf	USBCtrlTrfTxService@byteToSend^0,c
  8510   0014B8                     
  8511                           ;usb_device.c: 1733:     if(inPipes[0].wCount.Val < (uint8_t)8)
  8512   0014B8  5044               	movf	(_inPipes+5)^0,w,c
  8513   0014BA  E107               	bnz	u2261
  8514   0014BC  0E08               	movlw	8
  8515   0014BE  5C43               	subwf	(_inPipes+4)^0,w,c
  8516   0014C0  B0D8               	btfsc	status,0,c
  8517   0014C2  EF65  F00A         	goto	u2261
  8518   0014C6  EF67  F00A         	goto	u2260
  8519   0014CA                     u2261:
  8520   0014CA  EF7F  F00A         	goto	l3803
  8521   0014CE                     u2260:
  8522   0014CE                     
  8523                           ;usb_device.c: 1734:     {;usb_device.c: 1735:         byteToSend = inPipes[0].wCount.Va
      +                          l;
  8524   0014CE  C043  F001         	movff	_inPipes+4,USBCtrlTrfTxService@byteToSend
  8525   0014D2                     
  8526                           ;usb_device.c: 1742:         if(shortPacketStatus == 0)
  8527   0014D2  5059               	movf	_shortPacketStatus^0,w,c
  8528   0014D4  A4D8               	btfss	status,2,c
  8529   0014D6  EF6F  F00A         	goto	u2271
  8530   0014DA  EF71  F00A         	goto	u2270
  8531   0014DE                     u2271:
  8532   0014DE  EF75  F00A         	goto	l3799
  8533   0014E2                     u2270:
  8534   0014E2                     
  8535                           ;usb_device.c: 1743:         {;usb_device.c: 1744:             shortPacketStatus = 1;
  8536   0014E2  0E01               	movlw	1
  8537   0014E4  6E59               	movwf	_shortPacketStatus^0,c
  8538                           
  8539                           ;usb_device.c: 1745:         }
  8540   0014E6  EF7F  F00A         	goto	l3803
  8541   0014EA                     l3799:
  8542   0014EA  0459               	decf	_shortPacketStatus^0,w,c
  8543   0014EC  A4D8               	btfss	status,2,c
  8544   0014EE  EF7B  F00A         	goto	u2281
  8545   0014F2  EF7D  F00A         	goto	u2280
  8546   0014F6                     u2281:
  8547   0014F6  EF7F  F00A         	goto	l3803
  8548   0014FA                     u2280:
  8549   0014FA                     
  8550                           ;usb_device.c: 1747:         {;usb_device.c: 1748:             shortPacketStatus = 2;
  8551   0014FA  0E02               	movlw	2
  8552   0014FC  6E59               	movwf	_shortPacketStatus^0,c
  8553   0014FE                     l3803:
  8554                           
  8555                           ;usb_device.c: 1754:     inPipes[0].wCount.Val -= byteToSend;
  8556   0014FE  5001               	movf	USBCtrlTrfTxService@byteToSend^0,w,c
  8557   001500  5E43               	subwf	(_inPipes+4)^0,f,c
  8558   001502  0E00               	movlw	0
  8559   001504  5A44               	subwfb	(_inPipes+5)^0,f,c
  8560   001506                     
  8561                           ;usb_device.c: 1759:     pBDTEntryIn[0]->CNT = byteToSend;
  8562   001506  EE20 F001          	lfsr	2,1
  8563   00150A  5045               	movf	_pBDTEntryIn^0,w,c
  8564   00150C  26D9               	addwf	fsr2l,f,c
  8565   00150E  5046               	movf	(_pBDTEntryIn+1)^0,w,c
  8566   001510  22DA               	addwfc	fsr2h,f,c
  8567   001512  C001  FFDF         	movff	USBCtrlTrfTxService@byteToSend,indf2
  8568   001516                     
  8569                           ;usb_device.c: 1763:     pDst = ( uint8_t*)CtrlTrfData;
  8570   001516  0E38               	movlw	56
  8571   001518  0100               	movlb	0	; () banked
  8572   00151A  6F8E               	movwf	_pDst& (0+255),b
  8573   00151C  0E02               	movlw	2
  8574   00151E  6F8F               	movwf	(_pDst+1)& (0+255),b
  8575   001520                     
  8576                           ; BSR set to: 0
  8577                           ;usb_device.c: 1764:     if(inPipes[0].info.bits.ctrl_trf_mem == 0x00)
  8578   001520  B042               	btfsc	(_inPipes+3)^0,0,c
  8579   001522  EF95  F00A         	goto	u2291
  8580   001526  EF97  F00A         	goto	u2290
  8581   00152A                     u2291:
  8582   00152A  EFD9  F00A         	goto	l3831
  8583   00152E                     u2290:
  8584   00152E  EFB4  F00A         	goto	l3821
  8585   001532                     l3813:
  8586                           
  8587                           ; BSR set to: 0
  8588                           ;usb_device.c: 1767:         {;usb_device.c: 1768:             *pDst++ = *inPipes[0].pSr
      +                          c.bRom++;
  8589   001532  C03F  FFF6         	movff	_inPipes,tblptrl
  8590   001536  C040  FFF7         	movff	_inPipes+1,tblptrh
  8591   00153A  6AF8               	clrf	tblptru,c
  8592   00153C  C08E  FFD9         	movff	_pDst,fsr2l
  8593   001540  C08F  FFDA         	movff	_pDst+1,fsr2h
  8594   001544  0E02               	movlw	(high __ramtop+-1)
  8595   001546  64F7               	cpfsgt	tblptrh,c
  8596   001548  D003               	bra	u2307
  8597   00154A  0008               	tblrd		*
  8598   00154C  50F5               	movf	tablat,w,c
  8599   00154E  D005               	bra	u2300
  8600   001550                     u2307:
  8601   001550  CFF6 FFE1          	movff	tblptrl,fsr1l
  8602   001554  CFF7 FFE2          	movff	tblptrh,fsr1h
  8603   001558  50E7               	movf	indf1,w,c
  8604   00155A                     u2300:
  8605   00155A  6EDF               	movwf	indf2,c
  8606   00155C  4A3F               	infsnz	_inPipes^0,f,c
  8607   00155E  2A40               	incf	(_inPipes+1)^0,f,c
  8608   001560  0100               	movlb	0	; () banked
  8609   001562  4B8E               	infsnz	_pDst& (0+255),f,b
  8610   001564  2B8F               	incf	(_pDst+1)& (0+255),f,b
  8611   001566                     
  8612                           ; BSR set to: 0
  8613                           ;usb_device.c: 1769:             byteToSend--;
  8614   001566  0601               	decf	USBCtrlTrfTxService@byteToSend^0,f,c
  8615   001568                     l3821:
  8616                           
  8617                           ; BSR set to: 0
  8618                           ;usb_device.c: 1766:         while(byteToSend)
  8619   001568  5001               	movf	USBCtrlTrfTxService@byteToSend^0,w,c
  8620   00156A  A4D8               	btfss	status,2,c
  8621   00156C  EFBA  F00A         	goto	u2311
  8622   001570  EFBC  F00A         	goto	u2310
  8623   001574                     u2311:
  8624   001574  EF99  F00A         	goto	l3813
  8625   001578                     u2310:
  8626   001578  EFE1  F00A         	goto	l473
  8627   00157C                     l3823:
  8628                           
  8629                           ; BSR set to: 0
  8630                           ;usb_device.c: 1775:         {;usb_device.c: 1776:             *pDst++ = *inPipes[0].pSr
      +                          c.bRam++;
  8631   00157C  C03F  FFF6         	movff	_inPipes,tblptrl
  8632   001580  C040  FFF7         	movff	_inPipes+1,tblptrh
  8633   001584  6AF8               	clrf	tblptru,c
  8634   001586  C08E  FFD9         	movff	_pDst,fsr2l
  8635   00158A  C08F  FFDA         	movff	_pDst+1,fsr2h
  8636   00158E  0E02               	movlw	(high __ramtop+-1)
  8637   001590  64F7               	cpfsgt	tblptrh,c
  8638   001592  D003               	bra	u2327
  8639   001594  0008               	tblrd		*
  8640   001596  50F5               	movf	tablat,w,c
  8641   001598  D005               	bra	u2320
  8642   00159A                     u2327:
  8643   00159A  CFF6 FFE1          	movff	tblptrl,fsr1l
  8644   00159E  CFF7 FFE2          	movff	tblptrh,fsr1h
  8645   0015A2  50E7               	movf	indf1,w,c
  8646   0015A4                     u2320:
  8647   0015A4  6EDF               	movwf	indf2,c
  8648   0015A6  4A3F               	infsnz	_inPipes^0,f,c
  8649   0015A8  2A40               	incf	(_inPipes+1)^0,f,c
  8650   0015AA  0100               	movlb	0	; () banked
  8651   0015AC  4B8E               	infsnz	_pDst& (0+255),f,b
  8652   0015AE  2B8F               	incf	(_pDst+1)& (0+255),f,b
  8653   0015B0                     
  8654                           ; BSR set to: 0
  8655                           ;usb_device.c: 1777:             byteToSend--;
  8656   0015B0  0601               	decf	USBCtrlTrfTxService@byteToSend^0,f,c
  8657   0015B2                     l3831:
  8658                           
  8659                           ; BSR set to: 0
  8660                           ;usb_device.c: 1774:         while(byteToSend)
  8661   0015B2  5001               	movf	USBCtrlTrfTxService@byteToSend^0,w,c
  8662   0015B4  A4D8               	btfss	status,2,c
  8663   0015B6  EFDF  F00A         	goto	u2331
  8664   0015BA  EFE1  F00A         	goto	u2330
  8665   0015BE                     u2331:
  8666   0015BE  EFBE  F00A         	goto	l3823
  8667   0015C2                     u2330:
  8668   0015C2                     l473:
  8669                           
  8670                           ; BSR set to: 0
  8671   0015C2  0012               	return		;funcret
  8672   0015C4                     __end_of_USBCtrlTrfTxService:
  8673                           	callstack 0
  8674                           
  8675 ;; *************** function _PutString03 *****************
  8676 ;; Defined at:
  8677 ;;		line 243 in file "main.c"
  8678 ;; Parameters:    Size  Location     Type
  8679 ;;  string          2   21[COMRAM] PTR unsigned char 
  8680 ;;		 -> STR_5(15), STR_4(15), STR_2(14), 
  8681 ;;  data            2   23[COMRAM] unsigned short 
  8682 ;;  flg             2   25[COMRAM] unsigned short 
  8683 ;;  keta            2   27[COMRAM] unsigned short 
  8684 ;; Auto vars:     Size  Location     Type
  8685 ;;  buf            20   29[COMRAM] unsigned char [20]
  8686 ;; Return value:  Size  Location     Type
  8687 ;;                  1    wreg      void 
  8688 ;; Registers used:
  8689 ;;		wreg, fsr1l, fsr1h, fsr2l, fsr2h, status,2, status,0, tblptrl, tblptrh, tblptru, prodl, prodh, cstack
  8690 ;; Tracked objects:
  8691 ;;		On entry : 0/0
  8692 ;;		On exit  : 0/0
  8693 ;;		Unchanged: 0/0
  8694 ;; Data sizes:     COMRAM   BANK0   BANK1   BANK2
  8695 ;;      Params:         8       0       0       0
  8696 ;;      Locals:        20       0       0       0
  8697 ;;      Temps:          0       0       0       0
  8698 ;;      Totals:        28       0       0       0
  8699 ;;Total ram usage:       28 bytes
  8700 ;; Hardware stack levels used: 1
  8701 ;; Hardware stack levels required when called: 3
  8702 ;; This function calls:
  8703 ;;		_PutString
  8704 ;;		_PutStringLF
  8705 ;;		_uint2string
  8706 ;; This function is called by:
  8707 ;;		_main
  8708 ;; This function uses a non-reentrant model
  8709 ;;
  8710                           
  8711                           	psect	text44
  8712   0025A8                     __ptext44:
  8713                           	callstack 0
  8714   0025A8                     _PutString03:
  8715                           	callstack 27
  8716   0025A8                     
  8717                           ;main.c: 243: void PutString03(char *string,uint16_t data, uint16_t flg, uint16_t keta);
      +                          main.c: 245: {;main.c: 246:     char buf[20];;main.c: 248:     PutString(string);
  8718   0025A8  C016  F001         	movff	PutString03@string,PutString@string
  8719   0025AC  C017  F002         	movff	PutString03@string+1,PutString@string+1
  8720   0025B0  EC9F  F010         	call	_PutString	;wreg free
  8721   0025B4                     
  8722                           ;main.c: 249:     uint2string(buf, data, keta);
  8723   0025B4  0E1E               	movlw	low PutString03@buf
  8724   0025B6  6E08               	movwf	uint2string@buf^0,c
  8725   0025B8  0E00               	movlw	high PutString03@buf
  8726   0025BA  6E09               	movwf	(uint2string@buf+1)^0,c
  8727   0025BC  C018  F00A         	movff	PutString03@data,uint2string@data
  8728   0025C0  C019  F00B         	movff	PutString03@data+1,uint2string@data+1
  8729   0025C4  C01C  F00C         	movff	PutString03@keta,uint2string@flg
  8730   0025C8  ECEB  F002         	call	_uint2string	;wreg free
  8731   0025CC                     
  8732                           ;main.c: 250:     PutString(buf);
  8733   0025CC  0E1E               	movlw	low PutString03@buf
  8734   0025CE  6E01               	movwf	PutString@string^0,c
  8735   0025D0  0E00               	movlw	high PutString03@buf
  8736   0025D2  6E02               	movwf	(PutString@string+1)^0,c
  8737   0025D4  EC9F  F010         	call	_PutString	;wreg free
  8738   0025D8                     
  8739                           ;main.c: 251:     if(flg == 1)
  8740   0025D8  041A               	decf	PutString03@flg^0,w,c
  8741   0025DA  101B               	iorwf	(PutString03@flg+1)^0,w,c
  8742   0025DC  A4D8               	btfss	status,2,c
  8743   0025DE  EFF3  F012         	goto	u3791
  8744   0025E2  EFF5  F012         	goto	u3790
  8745   0025E6                     u3791:
  8746   0025E6  EFF7  F012         	goto	l116
  8747   0025EA                     u3790:
  8748   0025EA                     
  8749                           ;main.c: 252:         PutStringLF();
  8750   0025EA  EC7C  F013         	call	_PutStringLF	;wreg free
  8751   0025EE                     l116:
  8752   0025EE  0012               	return		;funcret
  8753   0025F0                     __end_of_PutString03:
  8754                           	callstack 0
  8755                           
  8756 ;; *************** function _uint2string *****************
  8757 ;; Defined at:
  8758 ;;		line 512 in file "main.c"
  8759 ;; Parameters:    Size  Location     Type
  8760 ;;  buf             2    7[COMRAM] PTR unsigned char 
  8761 ;;		 -> UsbPutString03@string(30), PutString03@buf(20), 
  8762 ;;  data            2    9[COMRAM] unsigned short 
  8763 ;;  flg             1   11[COMRAM] unsigned char 
  8764 ;; Auto vars:     Size  Location     Type
  8765 ;;  dt              2   19[COMRAM] unsigned short 
  8766 ;;  i               2   17[COMRAM] unsigned short 
  8767 ;;  sw              2   15[COMRAM] unsigned short 
  8768 ;; Return value:  Size  Location     Type
  8769 ;;                  1    wreg      void 
  8770 ;; Registers used:
  8771 ;;		wreg, fsr1l, fsr1h, fsr2l, fsr2h, status,2, status,0, prodl, prodh, cstack
  8772 ;; Tracked objects:
  8773 ;;		On entry : 0/0
  8774 ;;		On exit  : 0/0
  8775 ;;		Unchanged: 0/0
  8776 ;; Data sizes:     COMRAM   BANK0   BANK1   BANK2
  8777 ;;      Params:         5       0       0       0
  8778 ;;      Locals:         6       0       0       0
  8779 ;;      Temps:          3       0       0       0
  8780 ;;      Totals:        14       0       0       0
  8781 ;;Total ram usage:       14 bytes
  8782 ;; Hardware stack levels used: 1
  8783 ;; Hardware stack levels required when called: 2
  8784 ;; This function calls:
  8785 ;;		___lwdiv
  8786 ;;		___wmul
  8787 ;; This function is called by:
  8788 ;;		_PutString03
  8789 ;;		_UsbPutString03
  8790 ;; This function uses a non-reentrant model
  8791 ;;
  8792                           
  8793                           	psect	text45
  8794   0005D6                     __ptext45:
  8795                           	callstack 0
  8796   0005D6                     _uint2string:
  8797                           	callstack 26
  8798   0005D6                     
  8799                           ;main.c: 512: void uint2string(char *buf, uint16_t data, uint8_t flg);main.c: 513: {;mai
      +                          n.c: 514:     uint16_t dt;;main.c: 515:     uint16_t i;;main.c: 516:     uint16_t sw;;ma
      +                          in.c: 518:     sw = 0;
  8800   0005D6  0E00               	movlw	0
  8801   0005D8  6E11               	movwf	(uint2string@sw+1)^0,c
  8802   0005DA  0E00               	movlw	0
  8803   0005DC  6E10               	movwf	uint2string@sw^0,c
  8804   0005DE                     
  8805                           ;main.c: 520:     dt = data;
  8806   0005DE  C00A  F014         	movff	uint2string@data,uint2string@dt
  8807   0005E2  C00B  F015         	movff	uint2string@data+1,uint2string@dt+1
  8808   0005E6                     
  8809                           ;main.c: 521:     if( flg == 10){
  8810   0005E6  0E0A               	movlw	10
  8811   0005E8  180C               	xorwf	uint2string@flg^0,w,c
  8812   0005EA  A4D8               	btfss	status,2,c
  8813   0005EC  EFFA  F002         	goto	u3041
  8814   0005F0  EFFC  F002         	goto	u3040
  8815   0005F4                     u3041:
  8816   0005F4  EF69  F003         	goto	l4403
  8817   0005F8                     u3040:
  8818   0005F8                     
  8819                           ;main.c: 522:         for(i=10000; i>0; i/=10){
  8820   0005F8  0E27               	movlw	39
  8821   0005FA  6E13               	movwf	(uint2string@i+1)^0,c
  8822   0005FC  0E10               	movlw	16
  8823   0005FE  6E12               	movwf	uint2string@i^0,c
  8824   000600                     l4383:
  8825                           
  8826                           ;main.c: 523:             dt = dt/i;
  8827   000600  C014  F001         	movff	uint2string@dt,___lwdiv@dividend
  8828   000604  C015  F002         	movff	uint2string@dt+1,___lwdiv@dividend+1
  8829   000608  C012  F003         	movff	uint2string@i,___lwdiv@divisor
  8830   00060C  C013  F004         	movff	uint2string@i+1,___lwdiv@divisor+1
  8831   000610  EC65  F010         	call	___lwdiv	;wreg free
  8832   000614  C001  F014         	movff	?___lwdiv,uint2string@dt
  8833   000618  C002  F015         	movff	?___lwdiv+1,uint2string@dt+1
  8834   00061C                     
  8835                           ;main.c: 524:             if(sw==0){
  8836   00061C  5010               	movf	uint2string@sw^0,w,c
  8837   00061E  1011               	iorwf	(uint2string@sw+1)^0,w,c
  8838   000620  A4D8               	btfss	status,2,c
  8839   000622  EF15  F003         	goto	u3051
  8840   000626  EF17  F003         	goto	u3050
  8841   00062A                     u3051:
  8842   00062A  EF32  F003         	goto	l4393
  8843   00062E                     u3050:
  8844   00062E                     
  8845                           ;main.c: 525:                 if(dt != 0){
  8846   00062E  5014               	movf	uint2string@dt^0,w,c
  8847   000630  1015               	iorwf	(uint2string@dt+1)^0,w,c
  8848   000632  B4D8               	btfsc	status,2,c
  8849   000634  EF1E  F003         	goto	u3061
  8850   000638  EF20  F003         	goto	u3060
  8851   00063C                     u3061:
  8852   00063C  EF3E  F003         	goto	l4395
  8853   000640                     u3060:
  8854   000640                     
  8855                           ;main.c: 526:                     *buf = CharConv[dt];
  8856   000640  0EAC               	movlw	low _CharConv
  8857   000642  2414               	addwf	uint2string@dt^0,w,c
  8858   000644  6ED9               	movwf	fsr2l,c
  8859   000646  0E00               	movlw	high _CharConv
  8860   000648  2015               	addwfc	(uint2string@dt+1)^0,w,c
  8861   00064A  6EDA               	movwf	fsr2h,c
  8862   00064C  C008  FFE1         	movff	uint2string@buf,fsr1l
  8863   000650  C009  FFE2         	movff	uint2string@buf+1,fsr1h
  8864   000654  CFDF FFE7          	movff	indf2,indf1
  8865   000658                     
  8866                           ;main.c: 527:                     sw=1;
  8867   000658  0E00               	movlw	0
  8868   00065A  6E11               	movwf	(uint2string@sw+1)^0,c
  8869   00065C  0E01               	movlw	1
  8870   00065E  6E10               	movwf	uint2string@sw^0,c
  8871   000660  EF3E  F003         	goto	l4395
  8872   000664                     l4393:
  8873                           
  8874                           ;main.c: 531:                     *buf = CharConv[dt];
  8875   000664  0EAC               	movlw	low _CharConv
  8876   000666  2414               	addwf	uint2string@dt^0,w,c
  8877   000668  6ED9               	movwf	fsr2l,c
  8878   00066A  0E00               	movlw	high _CharConv
  8879   00066C  2015               	addwfc	(uint2string@dt+1)^0,w,c
  8880   00066E  6EDA               	movwf	fsr2h,c
  8881   000670  C008  FFE1         	movff	uint2string@buf,fsr1l
  8882   000674  C009  FFE2         	movff	uint2string@buf+1,fsr1h
  8883   000678  CFDF FFE7          	movff	indf2,indf1
  8884   00067C                     l4395:
  8885                           
  8886                           ;main.c: 533:             dt = data - dt*i;
  8887   00067C  C014  F001         	movff	uint2string@dt,___wmul@multiplier
  8888   000680  C015  F002         	movff	uint2string@dt+1,___wmul@multiplier+1
  8889   000684  C012  F003         	movff	uint2string@i,___wmul@multiplicand
  8890   000688  C013  F004         	movff	uint2string@i+1,___wmul@multiplicand+1
  8891   00068C  EC91  F013         	call	___wmul	;wreg free
  8892   000690  5001               	movf	?___wmul^0,w,c
  8893   000692  5C0A               	subwf	uint2string@data^0,w,c
  8894   000694  6E14               	movwf	uint2string@dt^0,c
  8895   000696  5002               	movf	(?___wmul+1)^0,w,c
  8896   000698  580B               	subwfb	(uint2string@data+1)^0,w,c
  8897   00069A  6E15               	movwf	(uint2string@dt+1)^0,c
  8898   00069C                     
  8899                           ;main.c: 534:             buf ++;
  8900   00069C  4A08               	infsnz	uint2string@buf^0,f,c
  8901   00069E  2A09               	incf	(uint2string@buf+1)^0,f,c
  8902   0006A0                     
  8903                           ;main.c: 535:         }
  8904   0006A0  C012  F001         	movff	uint2string@i,___lwdiv@dividend
  8905   0006A4  C013  F002         	movff	uint2string@i+1,___lwdiv@dividend+1
  8906   0006A8  0E00               	movlw	0
  8907   0006AA  6E04               	movwf	(___lwdiv@divisor+1)^0,c
  8908   0006AC  0E0A               	movlw	10
  8909   0006AE  6E03               	movwf	___lwdiv@divisor^0,c
  8910   0006B0  EC65  F010         	call	___lwdiv	;wreg free
  8911   0006B4  C001  F012         	movff	?___lwdiv,uint2string@i
  8912   0006B8  C002  F013         	movff	?___lwdiv+1,uint2string@i+1
  8913   0006BC  5012               	movf	uint2string@i^0,w,c
  8914   0006BE  1013               	iorwf	(uint2string@i+1)^0,w,c
  8915   0006C0  A4D8               	btfss	status,2,c
  8916   0006C2  EF65  F003         	goto	u3071
  8917   0006C6  EF67  F003         	goto	u3070
  8918   0006CA                     u3071:
  8919   0006CA  EF00  F003         	goto	l4383
  8920   0006CE                     u3070:
  8921   0006CE  EFE0  F003         	goto	l4429
  8922   0006D2                     l4403:
  8923                           
  8924                           ;main.c: 538:         *buf = '0';
  8925   0006D2  C008  FFD9         	movff	uint2string@buf,fsr2l
  8926   0006D6  C009  FFDA         	movff	uint2string@buf+1,fsr2h
  8927   0006DA  0E30               	movlw	48
  8928   0006DC  6EDF               	movwf	indf2,c
  8929   0006DE                     
  8930                           ;main.c: 539:         buf ++;
  8931   0006DE  4A08               	infsnz	uint2string@buf^0,f,c
  8932   0006E0  2A09               	incf	(uint2string@buf+1)^0,f,c
  8933   0006E2                     
  8934                           ;main.c: 540:         *buf = 'x';
  8935   0006E2  C008  FFD9         	movff	uint2string@buf,fsr2l
  8936   0006E6  C009  FFDA         	movff	uint2string@buf+1,fsr2h
  8937   0006EA  0E78               	movlw	120
  8938   0006EC  6EDF               	movwf	indf2,c
  8939                           
  8940                           ;main.c: 541:         buf ++;
  8941   0006EE  4A08               	infsnz	uint2string@buf^0,f,c
  8942   0006F0  2A09               	incf	(uint2string@buf+1)^0,f,c
  8943   0006F2                     
  8944                           ;main.c: 543:         dt = (data >> 12)& 0x0f;
  8945   0006F2  C00A  F00D         	movff	uint2string@data,??_uint2string
  8946   0006F6  C00B  F00E         	movff	uint2string@data+1,??_uint2string+1
  8947   0006FA  0E0C               	movlw	12
  8948   0006FC  6E0F               	movwf	(??_uint2string+2)^0,c
  8949   0006FE                     u3085:
  8950   0006FE  90D8               	bcf	status,0,c
  8951   000700  320E               	rrcf	(??_uint2string+1)^0,f,c
  8952   000702  320D               	rrcf	??_uint2string^0,f,c
  8953   000704  2E0F               	decfsz	(??_uint2string+2)^0,f,c
  8954   000706  EF7F  F003         	goto	u3085
  8955   00070A  0E0F               	movlw	15
  8956   00070C  140D               	andwf	??_uint2string^0,w,c
  8957   00070E  6E14               	movwf	uint2string@dt^0,c
  8958   000710  6A15               	clrf	(uint2string@dt+1)^0,c
  8959   000712                     
  8960                           ;main.c: 544:         *buf = CharConv[dt];
  8961   000712  0EAC               	movlw	low _CharConv
  8962   000714  2414               	addwf	uint2string@dt^0,w,c
  8963   000716  6ED9               	movwf	fsr2l,c
  8964   000718  0E00               	movlw	high _CharConv
  8965   00071A  2015               	addwfc	(uint2string@dt+1)^0,w,c
  8966   00071C  6EDA               	movwf	fsr2h,c
  8967   00071E  C008  FFE1         	movff	uint2string@buf,fsr1l
  8968   000722  C009  FFE2         	movff	uint2string@buf+1,fsr1h
  8969   000726  CFDF FFE7          	movff	indf2,indf1
  8970   00072A                     
  8971                           ;main.c: 545:         buf ++;
  8972   00072A  4A08               	infsnz	uint2string@buf^0,f,c
  8973   00072C  2A09               	incf	(uint2string@buf+1)^0,f,c
  8974   00072E                     
  8975                           ;main.c: 547:         dt = (data >> 8)& 0x0f;
  8976   00072E  C00A  F00D         	movff	uint2string@data,??_uint2string
  8977   000732  C00B  F00E         	movff	uint2string@data+1,??_uint2string+1
  8978   000736  C00E  F00D         	movff	??_uint2string+1,??_uint2string
  8979   00073A  6A0E               	clrf	(??_uint2string+1)^0,c
  8980   00073C  0E0F               	movlw	15
  8981   00073E  140D               	andwf	??_uint2string^0,w,c
  8982   000740  6E14               	movwf	uint2string@dt^0,c
  8983   000742  6A15               	clrf	(uint2string@dt+1)^0,c
  8984                           
  8985                           ;main.c: 548:         *buf = CharConv[dt];
  8986   000744  0EAC               	movlw	low _CharConv
  8987   000746  2414               	addwf	uint2string@dt^0,w,c
  8988   000748  6ED9               	movwf	fsr2l,c
  8989   00074A  0E00               	movlw	high _CharConv
  8990   00074C  2015               	addwfc	(uint2string@dt+1)^0,w,c
  8991   00074E  6EDA               	movwf	fsr2h,c
  8992   000750  C008  FFE1         	movff	uint2string@buf,fsr1l
  8993   000754  C009  FFE2         	movff	uint2string@buf+1,fsr1h
  8994   000758  CFDF FFE7          	movff	indf2,indf1
  8995   00075C                     
  8996                           ;main.c: 549:         buf ++;
  8997   00075C  4A08               	infsnz	uint2string@buf^0,f,c
  8998   00075E  2A09               	incf	(uint2string@buf+1)^0,f,c
  8999   000760                     
  9000                           ;main.c: 551:         dt = (data >> 4)& 0x0f;
  9001   000760  C00A  F00D         	movff	uint2string@data,??_uint2string
  9002   000764  C00B  F00E         	movff	uint2string@data+1,??_uint2string+1
  9003   000768  0E04               	movlw	4
  9004   00076A  6E0F               	movwf	(??_uint2string+2)^0,c
  9005   00076C                     u3095:
  9006   00076C  90D8               	bcf	status,0,c
  9007   00076E  320E               	rrcf	(??_uint2string+1)^0,f,c
  9008   000770  320D               	rrcf	??_uint2string^0,f,c
  9009   000772  2E0F               	decfsz	(??_uint2string+2)^0,f,c
  9010   000774  EFB6  F003         	goto	u3095
  9011   000778  0E0F               	movlw	15
  9012   00077A  140D               	andwf	??_uint2string^0,w,c
  9013   00077C  6E14               	movwf	uint2string@dt^0,c
  9014   00077E  6A15               	clrf	(uint2string@dt+1)^0,c
  9015   000780                     
  9016                           ;main.c: 552:         *buf = CharConv[dt];
  9017   000780  0EAC               	movlw	low _CharConv
  9018   000782  2414               	addwf	uint2string@dt^0,w,c
  9019   000784  6ED9               	movwf	fsr2l,c
  9020   000786  0E00               	movlw	high _CharConv
  9021   000788  2015               	addwfc	(uint2string@dt+1)^0,w,c
  9022   00078A  6EDA               	movwf	fsr2h,c
  9023   00078C  C008  FFE1         	movff	uint2string@buf,fsr1l
  9024   000790  C009  FFE2         	movff	uint2string@buf+1,fsr1h
  9025   000794  CFDF FFE7          	movff	indf2,indf1
  9026   000798                     
  9027                           ;main.c: 553:         buf ++;
  9028   000798  4A08               	infsnz	uint2string@buf^0,f,c
  9029   00079A  2A09               	incf	(uint2string@buf+1)^0,f,c
  9030                           
  9031                           ;main.c: 555:         dt = data & 0x0f;
  9032   00079C  0E0F               	movlw	15
  9033   00079E  140A               	andwf	uint2string@data^0,w,c
  9034   0007A0  6E14               	movwf	uint2string@dt^0,c
  9035   0007A2  6A15               	clrf	(uint2string@dt+1)^0,c
  9036   0007A4                     
  9037                           ;main.c: 556:         *buf = CharConv[dt];
  9038   0007A4  0EAC               	movlw	low _CharConv
  9039   0007A6  2414               	addwf	uint2string@dt^0,w,c
  9040   0007A8  6ED9               	movwf	fsr2l,c
  9041   0007AA  0E00               	movlw	high _CharConv
  9042   0007AC  2015               	addwfc	(uint2string@dt+1)^0,w,c
  9043   0007AE  6EDA               	movwf	fsr2h,c
  9044   0007B0  C008  FFE1         	movff	uint2string@buf,fsr1l
  9045   0007B4  C009  FFE2         	movff	uint2string@buf+1,fsr1h
  9046   0007B8  CFDF FFE7          	movff	indf2,indf1
  9047   0007BC                     
  9048                           ;main.c: 557:         buf ++;
  9049   0007BC  4A08               	infsnz	uint2string@buf^0,f,c
  9050   0007BE  2A09               	incf	(uint2string@buf+1)^0,f,c
  9051   0007C0                     l4429:
  9052                           
  9053                           ;main.c: 561:     *buf =(char) ((void*)0);
  9054   0007C0  C008  FFD9         	movff	uint2string@buf,fsr2l
  9055   0007C4  C009  FFDA         	movff	uint2string@buf+1,fsr2h
  9056   0007C8  6ADF               	clrf	indf2,c
  9057   0007CA  0012               	return		;funcret
  9058   0007CC                     __end_of_uint2string:
  9059                           	callstack 0
  9060                           
  9061 ;; *************** function ___wmul *****************
  9062 ;; Defined at:
  9063 ;;		line 15 in file "C:\Program Files\Microchip\xc8\v2.41\pic\sources\c99\common\Umul16.c"
  9064 ;; Parameters:    Size  Location     Type
  9065 ;;  multiplier      2    0[COMRAM] unsigned int 
  9066 ;;  multiplicand    2    2[COMRAM] unsigned int 
  9067 ;; Auto vars:     Size  Location     Type
  9068 ;;  product         2    4[COMRAM] unsigned int 
  9069 ;; Return value:  Size  Location     Type
  9070 ;;                  2    0[COMRAM] unsigned int 
  9071 ;; Registers used:
  9072 ;;		wreg, status,2, status,0, prodl, prodh
  9073 ;; Tracked objects:
  9074 ;;		On entry : 0/0
  9075 ;;		On exit  : 0/0
  9076 ;;		Unchanged: 0/0
  9077 ;; Data sizes:     COMRAM   BANK0   BANK1   BANK2
  9078 ;;      Params:         4       0       0       0
  9079 ;;      Locals:         2       0       0       0
  9080 ;;      Temps:          0       0       0       0
  9081 ;;      Totals:         6       0       0       0
  9082 ;;Total ram usage:        6 bytes
  9083 ;; Hardware stack levels used: 1
  9084 ;; Hardware stack levels required when called: 1
  9085 ;; This function calls:
  9086 ;;		Nothing
  9087 ;; This function is called by:
  9088 ;;		_uint2string
  9089 ;; This function uses a non-reentrant model
  9090 ;;
  9091                           
  9092                           	psect	text46
  9093   002722                     __ptext46:
  9094                           	callstack 0
  9095   002722                     ___wmul:
  9096                           	callstack 26
  9097   002722  5001               	movf	___wmul@multiplier^0,w,c
  9098   002724  0203               	mulwf	___wmul@multiplicand^0,c
  9099   002726  CFF3 F005          	movff	prodl,___wmul@product
  9100   00272A  CFF4 F006          	movff	prodh,___wmul@product+1
  9101   00272E  5001               	movf	___wmul@multiplier^0,w,c
  9102   002730  0204               	mulwf	(___wmul@multiplicand+1)^0,c
  9103   002732  50F3               	movf	243,w,c
  9104   002734  2606               	addwf	(___wmul@product+1)^0,f,c
  9105   002736  5002               	movf	(___wmul@multiplier+1)^0,w,c
  9106   002738  0203               	mulwf	___wmul@multiplicand^0,c
  9107   00273A  50F3               	movf	243,w,c
  9108   00273C  2606               	addwf	(___wmul@product+1)^0,f,c
  9109   00273E  C005  F001         	movff	___wmul@product,?___wmul
  9110   002742  C006  F002         	movff	___wmul@product+1,?___wmul+1
  9111   002746  0012               	return		;funcret
  9112   002748                     __end_of___wmul:
  9113                           	callstack 0
  9114                           
  9115 ;; *************** function ___lwdiv *****************
  9116 ;; Defined at:
  9117 ;;		line 7 in file "C:\Program Files\Microchip\xc8\v2.41\pic\sources\c99\common\lwdiv.c"
  9118 ;; Parameters:    Size  Location     Type
  9119 ;;  dividend        2    0[COMRAM] unsigned int 
  9120 ;;  divisor         2    2[COMRAM] unsigned int 
  9121 ;; Auto vars:     Size  Location     Type
  9122 ;;  quotient        2    4[COMRAM] unsigned int 
  9123 ;;  counter         1    6[COMRAM] unsigned char 
  9124 ;; Return value:  Size  Location     Type
  9125 ;;                  2    0[COMRAM] unsigned int 
  9126 ;; Registers used:
  9127 ;;		wreg, status,2, status,0
  9128 ;; Tracked objects:
  9129 ;;		On entry : 0/0
  9130 ;;		On exit  : 0/0
  9131 ;;		Unchanged: 0/0
  9132 ;; Data sizes:     COMRAM   BANK0   BANK1   BANK2
  9133 ;;      Params:         4       0       0       0
  9134 ;;      Locals:         3       0       0       0
  9135 ;;      Temps:          0       0       0       0
  9136 ;;      Totals:         7       0       0       0
  9137 ;;Total ram usage:        7 bytes
  9138 ;; Hardware stack levels used: 1
  9139 ;; Hardware stack levels required when called: 1
  9140 ;; This function calls:
  9141 ;;		Nothing
  9142 ;; This function is called by:
  9143 ;;		_uint2string
  9144 ;; This function uses a non-reentrant model
  9145 ;;
  9146                           
  9147                           	psect	text47
  9148   0020CA                     __ptext47:
  9149                           	callstack 0
  9150   0020CA                     ___lwdiv:
  9151                           	callstack 26
  9152   0020CA  0E00               	movlw	0
  9153   0020CC  6E06               	movwf	(___lwdiv@quotient+1)^0,c
  9154   0020CE  0E00               	movlw	0
  9155   0020D0  6E05               	movwf	___lwdiv@quotient^0,c
  9156   0020D2  5003               	movf	___lwdiv@divisor^0,w,c
  9157   0020D4  1004               	iorwf	(___lwdiv@divisor+1)^0,w,c
  9158   0020D6  B4D8               	btfsc	status,2,c
  9159   0020D8  EF70  F010         	goto	u3001
  9160   0020DC  EF72  F010         	goto	u3000
  9161   0020E0                     u3001:
  9162   0020E0  EF9A  F010         	goto	l1385
  9163   0020E4                     u3000:
  9164   0020E4  0E01               	movlw	1
  9165   0020E6  6E07               	movwf	___lwdiv@counter^0,c
  9166   0020E8  EF7A  F010         	goto	l4351
  9167   0020EC                     l4349:
  9168   0020EC  90D8               	bcf	status,0,c
  9169   0020EE  3603               	rlcf	___lwdiv@divisor^0,f,c
  9170   0020F0  3604               	rlcf	(___lwdiv@divisor+1)^0,f,c
  9171   0020F2  2A07               	incf	___lwdiv@counter^0,f,c
  9172   0020F4                     l4351:
  9173   0020F4  AE04               	btfss	(___lwdiv@divisor+1)^0,7,c
  9174   0020F6  EF7F  F010         	goto	u3011
  9175   0020FA  EF81  F010         	goto	u3010
  9176   0020FE                     u3011:
  9177   0020FE  EF76  F010         	goto	l4349
  9178   002102                     u3010:
  9179   002102                     l4353:
  9180   002102  90D8               	bcf	status,0,c
  9181   002104  3605               	rlcf	___lwdiv@quotient^0,f,c
  9182   002106  3606               	rlcf	(___lwdiv@quotient+1)^0,f,c
  9183   002108  5003               	movf	___lwdiv@divisor^0,w,c
  9184   00210A  5C01               	subwf	___lwdiv@dividend^0,w,c
  9185   00210C  5004               	movf	(___lwdiv@divisor+1)^0,w,c
  9186   00210E  5802               	subwfb	(___lwdiv@dividend+1)^0,w,c
  9187   002110  A0D8               	btfss	status,0,c
  9188   002112  EF8D  F010         	goto	u3021
  9189   002116  EF8F  F010         	goto	u3020
  9190   00211A                     u3021:
  9191   00211A  EF94  F010         	goto	l4361
  9192   00211E                     u3020:
  9193   00211E  5003               	movf	___lwdiv@divisor^0,w,c
  9194   002120  5E01               	subwf	___lwdiv@dividend^0,f,c
  9195   002122  5004               	movf	(___lwdiv@divisor+1)^0,w,c
  9196   002124  5A02               	subwfb	(___lwdiv@dividend+1)^0,f,c
  9197   002126  8005               	bsf	___lwdiv@quotient^0,0,c
  9198   002128                     l4361:
  9199   002128  90D8               	bcf	status,0,c
  9200   00212A  3204               	rrcf	(___lwdiv@divisor+1)^0,f,c
  9201   00212C  3203               	rrcf	___lwdiv@divisor^0,f,c
  9202   00212E  2E07               	decfsz	___lwdiv@counter^0,f,c
  9203   002130  EF81  F010         	goto	l4353
  9204   002134                     l1385:
  9205   002134  C005  F001         	movff	___lwdiv@quotient,?___lwdiv
  9206   002138  C006  F002         	movff	___lwdiv@quotient+1,?___lwdiv+1
  9207   00213C  0012               	return		;funcret
  9208   00213E                     __end_of___lwdiv:
  9209                           	callstack 0
  9210                           
  9211 ;; *************** function _PutStringLF *****************
  9212 ;; Defined at:
  9213 ;;		line 276 in file "main.c"
  9214 ;; Parameters:    Size  Location     Type
  9215 ;;		None
  9216 ;; Auto vars:     Size  Location     Type
  9217 ;;  dummy           1    0        unsigned char 
  9218 ;; Return value:  Size  Location     Type
  9219 ;;                  1    wreg      void 
  9220 ;; Registers used:
  9221 ;;		wreg, status,2
  9222 ;; Tracked objects:
  9223 ;;		On entry : 0/0
  9224 ;;		On exit  : 0/0
  9225 ;;		Unchanged: 0/0
  9226 ;; Data sizes:     COMRAM   BANK0   BANK1   BANK2
  9227 ;;      Params:         0       0       0       0
  9228 ;;      Locals:         0       0       0       0
  9229 ;;      Temps:          0       0       0       0
  9230 ;;      Totals:         0       0       0       0
  9231 ;;Total ram usage:        0 bytes
  9232 ;; Hardware stack levels used: 1
  9233 ;; Hardware stack levels required when called: 1
  9234 ;; This function calls:
  9235 ;;		Nothing
  9236 ;; This function is called by:
  9237 ;;		_PutString01
  9238 ;;		_PutString03
  9239 ;; This function uses a non-reentrant model
  9240 ;;
  9241                           
  9242                           	psect	text48
  9243   0026F8                     __ptext48:
  9244                           	callstack 0
  9245   0026F8                     _PutStringLF:
  9246                           	callstack 26
  9247   0026F8                     l128:
  9248                           
  9249                           ;main.c: 279:         while(TXIF==0){
  9250   0026F8  A89E               	btfss	3998,4,c	;volatile
  9251   0026FA  EF81  F013         	goto	u2891
  9252   0026FE  EF83  F013         	goto	u2890
  9253   002702                     u2891:
  9254   002702  EF7C  F013         	goto	l128
  9255   002706                     u2890:
  9256   002706                     
  9257                           ;main.c: 282:         TXREG = 0x0d ;
  9258   002706  0E0D               	movlw	13
  9259   002708  6EAD               	movwf	173,c	;volatile
  9260   00270A  50AD               	movf	173,w,c	;volatile
  9261   00270C                     l131:
  9262                           
  9263                           ;main.c: 285:         while(TXIF==0) {
  9264   00270C  A89E               	btfss	3998,4,c	;volatile
  9265   00270E  EF8B  F013         	goto	u2901
  9266   002712  EF8D  F013         	goto	u2900
  9267   002716                     u2901:
  9268   002716  EF86  F013         	goto	l131
  9269   00271A                     u2900:
  9270   00271A                     
  9271                           ;main.c: 289:         TXREG = 0x0a ;
  9272   00271A  0E0A               	movlw	10
  9273   00271C  6EAD               	movwf	173,c	;volatile
  9274   00271E  50AD               	movf	173,w,c	;volatile
  9275   002720  0012               	return		;funcret
  9276   002722                     __end_of_PutStringLF:
  9277                           	callstack 0
  9278                           
  9279 ;; *************** function _PutString *****************
  9280 ;; Defined at:
  9281 ;;		line 257 in file "main.c"
  9282 ;; Parameters:    Size  Location     Type
  9283 ;;  string          2    0[COMRAM] PTR unsigned char 
  9284 ;;		 -> STR_9(13), PutString03@buf(20), STR_5(15), STR_4(15), 
  9285 ;;		 -> STR_2(14), 
  9286 ;; Auto vars:     Size  Location     Type
  9287 ;;  dummy           1    0        unsigned char 
  9288 ;; Return value:  Size  Location     Type
  9289 ;;                  1    wreg      void 
  9290 ;; Registers used:
  9291 ;;		wreg, fsr1l, fsr1h, status,2, status,0, tblptrl, tblptrh, tblptru
  9292 ;; Tracked objects:
  9293 ;;		On entry : 0/0
  9294 ;;		On exit  : 0/0
  9295 ;;		Unchanged: 0/0
  9296 ;; Data sizes:     COMRAM   BANK0   BANK1   BANK2
  9297 ;;      Params:         2       0       0       0
  9298 ;;      Locals:         0       0       0       0
  9299 ;;      Temps:          0       0       0       0
  9300 ;;      Totals:         2       0       0       0
  9301 ;;Total ram usage:        2 bytes
  9302 ;; Hardware stack levels used: 1
  9303 ;; Hardware stack levels required when called: 1
  9304 ;; This function calls:
  9305 ;;		Nothing
  9306 ;; This function is called by:
  9307 ;;		_PutString01
  9308 ;;		_PutString03
  9309 ;; This function uses a non-reentrant model
  9310 ;;
  9311                           
  9312                           	psect	text49
  9313   00213E                     __ptext49:
  9314                           	callstack 0
  9315   00213E                     _PutString:
  9316                           	callstack 26
  9317   00213E                     
  9318                           ;main.c: 257: void PutString(char *string);main.c: 259: {;main.c: 260:     char dummy;;m
      +                          ain.c: 262:     while( *string != (char)((void*)0) ){
  9319   00213E  EFBC  F010         	goto	l4233
  9320   002142                     l121:
  9321                           
  9322                           ;main.c: 263:         while(TXIF==0){
  9323   002142  A89E               	btfss	3998,4,c	;volatile
  9324   002144  EFA6  F010         	goto	u2851
  9325   002148  EFA8  F010         	goto	u2850
  9326   00214C                     u2851:
  9327   00214C  EFA1  F010         	goto	l121
  9328   002150                     u2850:
  9329   002150                     
  9330                           ;main.c: 268:         TXREG = *string ;
  9331   002150  C001  FFF6         	movff	PutString@string,tblptrl
  9332   002154  C002  FFF7         	movff	PutString@string+1,tblptrh
  9333   002158  6AF8               	clrf	tblptru,c
  9334   00215A  0E02               	movlw	(high __ramtop+-1)
  9335   00215C  64F7               	cpfsgt	tblptrh,c
  9336   00215E  D003               	bra	u2867
  9337   002160  0008               	tblrd		*
  9338   002162  50F5               	movf	tablat,w,c
  9339   002164  D005               	bra	u2860
  9340   002166                     u2867:
  9341   002166  CFF6 FFE1          	movff	tblptrl,fsr1l
  9342   00216A  CFF7 FFE2          	movff	tblptrh,fsr1h
  9343   00216E  50E7               	movf	indf1,w,c
  9344   002170                     u2860:
  9345   002170  6EAD               	movwf	173,c	;volatile
  9346   002172  50AD               	movf	173,w,c	;volatile
  9347   002174                     
  9348                           ;main.c: 270:         string ++;
  9349   002174  4A01               	infsnz	PutString@string^0,f,c
  9350   002176  2A02               	incf	(PutString@string+1)^0,f,c
  9351   002178                     l4233:
  9352                           
  9353                           ;main.c: 262:     while( *string != (char)((void*)0) ){
  9354   002178  C001  FFF6         	movff	PutString@string,tblptrl
  9355   00217C  C002  FFF7         	movff	PutString@string+1,tblptrh
  9356   002180  6AF8               	clrf	tblptru,c
  9357   002182  0E02               	movlw	(high __ramtop+-1)
  9358   002184  64F7               	cpfsgt	tblptrh,c
  9359   002186  D003               	bra	u2877
  9360   002188  0008               	tblrd		*
  9361   00218A  50F5               	movf	tablat,w,c
  9362   00218C  D005               	bra	u2870
  9363   00218E                     u2877:
  9364   00218E  CFF6 FFE1          	movff	tblptrl,fsr1l
  9365   002192  CFF7 FFE2          	movff	tblptrh,fsr1h
  9366   002196  50E7               	movf	indf1,w,c
  9367   002198                     u2870:
  9368   002198  0900               	iorlw	0
  9369   00219A  A4D8               	btfss	status,2,c
  9370   00219C  EFD2  F010         	goto	u2881
  9371   0021A0  EFD4  F010         	goto	u2880
  9372   0021A4                     u2881:
  9373   0021A4  EFA1  F010         	goto	l121
  9374   0021A8                     u2880:
  9375   0021A8  0012               	return		;funcret
  9376   0021AA                     __end_of_PutString:
  9377                           	callstack 0
  9378                           
  9379 ;; *************** function _GetChar *****************
  9380 ;; Defined at:
  9381 ;;		line 218 in file "main.c"
  9382 ;; Parameters:    Size  Location     Type
  9383 ;;		None
  9384 ;; Auto vars:     Size  Location     Type
  9385 ;;  rxdt            1    0[COMRAM] unsigned char 
  9386 ;; Return value:  Size  Location     Type
  9387 ;;                  1    wreg      unsigned char 
  9388 ;; Registers used:
  9389 ;;		wreg, status,2
  9390 ;; Tracked objects:
  9391 ;;		On entry : 0/0
  9392 ;;		On exit  : 0/0
  9393 ;;		Unchanged: 0/0
  9394 ;; Data sizes:     COMRAM   BANK0   BANK1   BANK2
  9395 ;;      Params:         0       0       0       0
  9396 ;;      Locals:         1       0       0       0
  9397 ;;      Temps:          0       0       0       0
  9398 ;;      Totals:         1       0       0       0
  9399 ;;Total ram usage:        1 bytes
  9400 ;; Hardware stack levels used: 1
  9401 ;; Hardware stack levels required when called: 1
  9402 ;; This function calls:
  9403 ;;		Nothing
  9404 ;; This function is called by:
  9405 ;;		_main
  9406 ;; This function uses a non-reentrant model
  9407 ;;
  9408                           
  9409                           	psect	text50
  9410   0027B2                     __ptext50:
  9411                           	callstack 0
  9412   0027B2                     _GetChar:
  9413                           	callstack 29
  9414   0027B2                     
  9415                           ;main.c: 220:     char rxdt;;main.c: 222:     if (PIR1bits.RCIF){
  9416   0027B2  AA9E               	btfss	158,5,c	;volatile
  9417   0027B4  EFDE  F013         	goto	u3801
  9418   0027B8  EFE0  F013         	goto	u3800
  9419   0027BC                     u3801:
  9420   0027BC  EFE4  F013         	goto	l4923
  9421   0027C0                     u3800:
  9422   0027C0                     
  9423                           ;main.c: 223:        rxdt = RCREG;
  9424   0027C0  CFAE F001          	movff	4014,GetChar@rxdt	;volatile
  9425                           
  9426                           ;main.c: 224:     }
  9427   0027C4  EFE6  F013         	goto	l107
  9428   0027C8                     l4923:
  9429                           
  9430                           ;main.c: 226:         rxdt = 0;
  9431   0027C8  0E00               	movlw	0
  9432   0027CA  6E01               	movwf	GetChar@rxdt^0,c
  9433   0027CC                     l107:
  9434                           
  9435                           ;main.c: 229:     return rxdt;
  9436   0027CC  5001               	movf	GetChar@rxdt^0,w,c
  9437   0027CE  0012               	return		;funcret
  9438   0027D0                     __end_of_GetChar:
  9439                           	callstack 0
  9440                           
  9441 ;; *************** function _SYS_InterruptHigh *****************
  9442 ;; Defined at:
  9443 ;;		line 88 in file "system.c"
  9444 ;; Parameters:    Size  Location     Type
  9445 ;;		None
  9446 ;; Auto vars:     Size  Location     Type
  9447 ;;		None
  9448 ;; Return value:  Size  Location     Type
  9449 ;;                  1    wreg      void 
  9450 ;; Registers used:
  9451 ;;		None
  9452 ;; Tracked objects:
  9453 ;;		On entry : 0/0
  9454 ;;		On exit  : 0/0
  9455 ;;		Unchanged: 0/0
  9456 ;; Data sizes:     COMRAM   BANK0   BANK1   BANK2
  9457 ;;      Params:         0       0       0       0
  9458 ;;      Locals:         0       0       0       0
  9459 ;;      Temps:          0       0       0       0
  9460 ;;      Totals:         0       0       0       0
  9461 ;;Total ram usage:        0 bytes
  9462 ;; Hardware stack levels used: 1
  9463 ;; This function calls:
  9464 ;;		Nothing
  9465 ;; This function is called by:
  9466 ;;		Interrupt level 2
  9467 ;; This function uses a non-reentrant model
  9468 ;;
  9469                           
  9470                           	psect	intcode
  9471   000008                     __pintcode:
  9472                           	callstack 0
  9473   000008                     _SYS_InterruptHigh:
  9474                           	callstack 20
  9475                           
  9476                           ;incstack = 0
  9477   000008  825E               	bsf	int$flags,1,c	;set compiler interrupt flag (level 2)
  9478   00000A  925E               	bcf	int$flags,1,c	;clear compiler interrupt flag (level 2)
  9479   00000C  0011               	retfie		f
  9480   00000E                     __end_of_SYS_InterruptHigh:
  9481                           	callstack 0
  9482                           
  9483                           	psect	rparam
  9484   000000                     
  9485                           	psect	temp
  9486   00005E                     btemp:
  9487                           	callstack 0
  9488   00005E                     	ds	1
  9489   000000                     int$flags	set	btemp
  9490   000000                     wtemp8	set	btemp+1
  9491   000000                     ttemp5	set	btemp+1
  9492   000000                     ttemp6	set	btemp+4
  9493   000000                     ttemp7	set	btemp+8
  9494                           
  9495                           	psect	idloc
  9496                           
  9497                           ;Config register IDLOC0 @ 0x200000
  9498                           ;	unspecified, using default values
  9499   200000                     	org	2097152
  9500   200000  FF                 	db	255
  9501                           
  9502                           ;Config register IDLOC1 @ 0x200001
  9503                           ;	unspecified, using default values
  9504   200001                     	org	2097153
  9505   200001  FF                 	db	255
  9506                           
  9507                           ;Config register IDLOC2 @ 0x200002
  9508                           ;	unspecified, using default values
  9509   200002                     	org	2097154
  9510   200002  FF                 	db	255
  9511                           
  9512                           ;Config register IDLOC3 @ 0x200003
  9513                           ;	unspecified, using default values
  9514   200003                     	org	2097155
  9515   200003  FF                 	db	255
  9516                           
  9517                           ;Config register IDLOC4 @ 0x200004
  9518                           ;	unspecified, using default values
  9519   200004                     	org	2097156
  9520   200004  FF                 	db	255
  9521                           
  9522                           ;Config register IDLOC5 @ 0x200005
  9523                           ;	unspecified, using default values
  9524   200005                     	org	2097157
  9525   200005  FF                 	db	255
  9526                           
  9527                           ;Config register IDLOC6 @ 0x200006
  9528                           ;	unspecified, using default values
  9529   200006                     	org	2097158
  9530   200006  FF                 	db	255
  9531                           
  9532                           ;Config register IDLOC7 @ 0x200007
  9533                           ;	unspecified, using default values
  9534   200007                     	org	2097159
  9535   200007  FF                 	db	255
  9536                           
  9537                           	psect	config
  9538                           
  9539                           ;Config register CONFIG1L @ 0x300000
  9540                           ;	CPU System Clock Selection bits
  9541                           ;	CPUDIV = NOCLKDIV, No CPU System Clock divide
  9542                           ;	USB Clock Selection bit
  9543                           ;	USBDIV = OFF, USB clock comes directly from the OSC1/OSC2 oscillator block; no divide
  9544   300000                     	org	3145728
  9545   300000  00                 	db	0
  9546                           
  9547                           ;Config register CONFIG1H @ 0x300001
  9548                           ;	Oscillator Selection bits
  9549                           ;	FOSC = HS, HS oscillator
  9550                           ;	4 X PLL Enable bit
  9551                           ;	PLLEN = ON, Oscillator multiplied by 4
  9552                           ;	Primary Clock Enable bit
  9553                           ;	PCLKEN = ON, Primary clock enabled
  9554                           ;	Fail-Safe Clock Monitor Enable
  9555                           ;	FCMEN = OFF, Fail-Safe Clock Monitor disabled
  9556                           ;	Internal/External Oscillator Switchover bit
  9557                           ;	IESO = OFF, Oscillator Switchover mode disabled
  9558   300001                     	org	3145729
  9559   300001  32                 	db	50
  9560                           
  9561                           ;Config register CONFIG2L @ 0x300002
  9562                           ;	Power-up Timer Enable bit
  9563                           ;	PWRTEN = OFF, PWRT disabled
  9564                           ;	Brown-out Reset Enable bits
  9565                           ;	BOREN = OFF, Brown-out Reset disabled in hardware and software
  9566                           ;	Brown-out Reset Voltage bits
  9567                           ;	BORV = 30, VBOR set to 3.0 V nominal
  9568   300002                     	org	3145730
  9569   300002  01                 	db	1
  9570                           
  9571                           ;Config register CONFIG2H @ 0x300003
  9572                           ;	Watchdog Timer Enable bit
  9573                           ;	WDTEN = OFF, WDT is controlled by SWDTEN bit of the WDTCON register
  9574                           ;	Watchdog Timer Postscale Select bits
  9575                           ;	WDTPS = 32768, 1:32768
  9576   300003                     	org	3145731
  9577   300003  1E                 	db	30
  9578                           
  9579                           ; Padding undefined space
  9580   300004                     	org	3145732
  9581   300004  FF                 	db	255
  9582                           
  9583                           ;Config register CONFIG3H @ 0x300005
  9584                           ;	HFINTOSC Fast Start-up bit
  9585                           ;	HFOFST = OFF, The system clock is held off until the HFINTOSC is stable.
  9586                           ;	MCLR Pin Enable bit
  9587                           ;	MCLRE = OFF, RA3 input pin enabled; MCLR disabled
  9588   300005                     	org	3145733
  9589   300005  00                 	db	0
  9590                           
  9591                           ;Config register CONFIG4L @ 0x300006
  9592                           ;	Stack Full/Underflow Reset Enable bit
  9593                           ;	STVREN = ON, Stack full/underflow will cause Reset
  9594                           ;	Single-Supply ICSP Enable bit
  9595                           ;	LVP = OFF, Single-Supply ICSP disabled
  9596                           ;	Boot Block Size Select bit
  9597                           ;	BBSIZ = OFF, 1kW boot block size
  9598                           ;	Extended Instruction Set Enable bit
  9599                           ;	XINST = OFF, Instruction set extension and Indexed Addressing mode disabled (Legacy mo
      +                          de)
  9600                           ;	Background Debugger Enable bit
  9601                           ;	DEBUG = 0x1, unprogrammed default
  9602   300006                     	org	3145734
  9603   300006  81                 	db	129
  9604                           
  9605                           ; Padding undefined space
  9606   300007                     	org	3145735
  9607   300007  FF                 	db	255
  9608                           
  9609                           ;Config register CONFIG5L @ 0x300008
  9610                           ;	Code Protection bit
  9611                           ;	CP0 = OFF, Block 0 not code-protected
  9612                           ;	Code Protection bit
  9613                           ;	CP1 = OFF, Block 1 not code-protected
  9614   300008                     	org	3145736
  9615   300008  03                 	db	3
  9616                           
  9617                           ;Config register CONFIG5H @ 0x300009
  9618                           ;	Boot Block Code Protection bit
  9619                           ;	CPB = OFF, Boot block not code-protected
  9620                           ;	Data EEPROM Code Protection bit
  9621                           ;	CPD = 0x1, unprogrammed default
  9622   300009                     	org	3145737
  9623   300009  C0                 	db	192
  9624                           
  9625                           ;Config register CONFIG6L @ 0x30000A
  9626                           ;	Table Write Protection bit
  9627                           ;	WRT0 = OFF, Block 0 not write-protected
  9628                           ;	Table Write Protection bit
  9629                           ;	WRT1 = OFF, Block 1 not write-protected
  9630   30000A                     	org	3145738
  9631   30000A  03                 	db	3
  9632                           
  9633                           ;Config register CONFIG6H @ 0x30000B
  9634                           ;	Configuration Register Write Protection bit
  9635                           ;	WRTC = OFF, Configuration registers not write-protected
  9636                           ;	Boot Block Write Protection bit
  9637                           ;	WRTB = OFF, Boot block not write-protected
  9638                           ;	Data EEPROM Write Protection bit
  9639                           ;	WRTD = 0x1, unprogrammed default
  9640   30000B                     	org	3145739
  9641   30000B  E0                 	db	224
  9642                           
  9643                           ;Config register CONFIG7L @ 0x30000C
  9644                           ;	Table Read Protection bit
  9645                           ;	EBTR0 = OFF, Block 0 not protected from table reads executed in other blocks
  9646                           ;	Table Read Protection bit
  9647                           ;	EBTR1 = OFF, Block 1 not protected from table reads executed in other blocks
  9648   30000C                     	org	3145740
  9649   30000C  03                 	db	3
  9650                           
  9651                           ;Config register CONFIG7H @ 0x30000D
  9652                           ;	Boot Block Table Read Protection bit
  9653                           ;	EBTRB = OFF, Boot block not protected from table reads executed in other blocks
  9654   30000D                     	org	3145741
  9655   30000D  40                 	db	64
  9656                           tosu	equ	0xFFF
  9657                           tosh	equ	0xFFE
  9658                           tosl	equ	0xFFD
  9659                           stkptr	equ	0xFFC
  9660                           pclatu	equ	0xFFB
  9661                           pclath	equ	0xFFA
  9662                           pcl	equ	0xFF9
  9663                           tblptru	equ	0xFF8
  9664                           tblptrh	equ	0xFF7
  9665                           tblptrl	equ	0xFF6
  9666                           tablat	equ	0xFF5
  9667                           prodh	equ	0xFF4
  9668                           prodl	equ	0xFF3
  9669                           indf0	equ	0xFEF
  9670                           postinc0	equ	0xFEE
  9671                           postdec0	equ	0xFED
  9672                           preinc0	equ	0xFEC
  9673                           plusw0	equ	0xFEB
  9674                           fsr0h	equ	0xFEA
  9675                           fsr0l	equ	0xFE9
  9676                           wreg	equ	0xFE8
  9677                           indf1	equ	0xFE7
  9678                           postinc1	equ	0xFE6
  9679                           postdec1	equ	0xFE5
  9680                           preinc1	equ	0xFE4
  9681                           plusw1	equ	0xFE3
  9682                           fsr1h	equ	0xFE2
  9683                           fsr1l	equ	0xFE1
  9684                           bsr	equ	0xFE0
  9685                           indf2	equ	0xFDF
  9686                           postinc2	equ	0xFDE
  9687                           postdec2	equ	0xFDD
  9688                           preinc2	equ	0xFDC
  9689                           plusw2	equ	0xFDB
  9690                           fsr2h	equ	0xFDA
  9691                           fsr2l	equ	0xFD9
  9692                           status	equ	0xFD8

Data Sizes:
    Strings     115
    Constant    201
    Data        34
    BSS         363
    Persistent  0
    Stack       0

Auto Spaces:
    Space          Size  Autos    Used
    COMRAM           94     62      93
    BANK0           160      0     110
    BANK1           256      0     256
    BANK2            64      0       0

Pointer List with Targets:

    USER_USB_CALLBACK_EVENT_HANDLER@pdata	PTR void  size(2) Largest target is 767
		 -> RAM(DATA[767]), USTATcopy(COMRAM[1]), USBActiveConfiguration(COMRAM[1]), BDT(BIGRAMl[48]), 
		 -> NULL(NULL[0]), 

    memset@dest	PTR void  size(2) Largest target is 48
		 -> USBAlternateInterface(BANK0[2]), BDT(BIGRAMl[48]), UEP1(BITBIGSFRlllll[1]), 

    memset@s	PTR unsigned char  size(2) Largest target is 48
		 -> USBAlternateInterface(BANK0[2]), BDT(BIGRAMl[48]), UEP1(BITBIGSFRlllll[1]), 

    memcpy@d1	PTR void  size(2) Largest target is 8
		 -> SetupPkt(BIGRAMh[8]), 

    memcpy@d	PTR unsigned char  size(2) Largest target is 8
		 -> SetupPkt(BIGRAMh[8]), 

    memcpy@s1	PTR const void  size(2) Largest target is 767
		 -> CtrlTrfData(BIGRAMh[8]), RAM(DATA[767]), SetupPkt(BIGRAMh[8]), 

    memcpy@s	PTR const unsigned char  size(2) Largest target is 767
		 -> CtrlTrfData(BIGRAMh[8]), RAM(DATA[767]), SetupPkt(BIGRAMh[8]), 

    putsUSBUSART@data	PTR unsigned char  size(2) Largest target is 30
		 -> UsbPutString03@string(COMRAM[30]), 

    putsUSBUSART@pData	PTR unsigned char  size(2) Largest target is 30
		 -> UsbPutString03@string(COMRAM[30]), 

    getsUSBUSART@buffer	PTR unsigned char  size(2) Largest target is 64
		 -> readBuffer(BANK1[64]), USB_Out_Buffer(BANK1[64]), 

    CDCDataInHandle	PTR void  size(2) Largest target is 767
		 -> RAM(DATA[767]), BDT(BIGRAMl[48]), NULL(NULL[0]), 

    CDCDataOutHandle	PTR void  size(2) Largest target is 767
		 -> RAM(DATA[767]), BDT(BIGRAMl[48]), NULL(NULL[0]), 

    pCDCDst.wRom	PTR const unsigned short  size(2) Largest target is 0

    pCDCDst.bRom	PTR const unsigned char  size(2) Largest target is 0

    pCDCDst.wRam	PTR unsigned short  size(2) Largest target is 0

    pCDCDst.bRam	PTR unsigned char  size(2) Largest target is 0

    S2023_POINTER$wRom	PTR const unsigned short  size(2) Largest target is 0

    pCDCSrc.wRom	PTR const unsigned short  size(2) Largest target is 0

    S2023_POINTER$bRom	PTR const unsigned char  size(2) Largest target is 0

    pCDCSrc.bRom	PTR const unsigned char  size(2) Largest target is 0

    S2023_POINTER$wRam	PTR unsigned short  size(2) Largest target is 0

    pCDCSrc.wRam	PTR unsigned short  size(2) Largest target is 0

    S2023_POINTER$bRam	PTR unsigned char  size(2) Largest target is 0

    pCDCSrc.bRam	PTR unsigned char  size(2) Largest target is 0

    USBStdFeatureReqHandler@pUEP	PTR unsigned char  size(2) Largest target is 1
		 -> UEP0(BITBIGSFRlllll[1]), 

    USBStdFeatureReqHandler@p	PTR struct __BDT size(2) Largest target is 767
		 -> RAM(DATA[767]), BDT(BIGRAMl[48]), NULL(NULL[0]), 

    sp__memcpy	PTR void  size(2) Largest target is 8
		 -> SetupPkt(BIGRAMh[8]), 

    USBStdGetStatusHandler@p	PTR struct __BDT size(2) Largest target is 767
		 -> RAM(DATA[767]), BDT(BIGRAMl[48]), NULL(NULL[0]), 

    pDst	PTR unsigned char  size(2) Largest target is 8
		 -> CtrlTrfData(BIGRAMh[8]), NULL(NULL[0]), 

    USBConfigureEndpoint@handle	PTR volatile struct __BDT size(2) Largest target is 48
		 -> BDT(BIGRAMl[48]), 

    pBDTEntryEP0OutCurrent	PTR volatile struct __BDT size(2) Largest target is 48
		 -> BDT(BIGRAMl[48]), NULL(NULL[0]), 

    pBDTEntryEP0OutNext	PTR volatile struct __BDT size(2) Largest target is 767
		 -> RAM(DATA[767]), BDT(BIGRAMl[48]), NULL(NULL[0]), 

    USBTransferOnePacket@data	PTR unsigned char  size(2) Largest target is 64
		 -> cdc_data_tx(BIGRAMh[64]), cdc_data_rx(BIGRAMh[64]), NULL(NULL[0]), 

    sp__USBTransferOnePacket	PTR void  size(2) Largest target is 767
		 -> RAM(DATA[767]), BDT(BIGRAMl[48]), NULL(NULL[0]), 

    USBTransferOnePacket@handle	PTR volatile struct __BDT size(2) Largest target is 767
		 -> RAM(DATA[767]), BDT(BIGRAMl[48]), NULL(NULL[0]), 

    USBEnableEndpoint@p	PTR unsigned char  size(2) Largest target is 1
		 -> UEP0(BITBIGSFRlllll[1]), 

    pBDTEntryOut	PTR volatile struct __BDT[3] size(2) Largest target is 767
		 -> RAM(DATA[767]), BDT(BIGRAMl[48]), NULL(NULL[0]), 

    pBDTEntryIn	PTR volatile struct __BDT[3] size(2) Largest target is 767
		 -> RAM(DATA[767]), BDT(BIGRAMl[48]), NULL(NULL[0]), 

    S517$pFunc	PTR FTN()void  size(2) Largest target is 0
		 -> NULL(NULL[0]), 

    outPipes.pFunc	PTR FTN()void  size(2) Largest target is 0
		 -> NULL(NULL[0]), 

    S507$wRam	PTR unsigned short  size(2) Largest target is 0

    outPipes.pDst.wRam	PTR unsigned short  size(2) Largest target is 0

    S507$bRam	PTR unsigned char  size(2) Largest target is 0

    outPipes.pDst.bRam	PTR unsigned char  size(2) Largest target is 0

    S483$wRom	PTR const unsigned short  size(2) Largest target is 0

    inPipes.pSrc.wRom	PTR const unsigned short  size(2) Largest target is 0

    S483$wRam	PTR unsigned short  size(2) Largest target is 0

    inPipes.pSrc.wRam	PTR unsigned short  size(2) Largest target is 0

    S483$bRom	PTR const unsigned char  size(2) Largest target is 0

    inPipes.pSrc.bRom	PTR const unsigned char  size(2) Largest target is 0

    S483$bRam	PTR unsigned char  size(2) Largest target is 0

    inPipes.pSrc.bRam	PTR unsigned char  size(2) Largest target is 0

    sp__memset	PTR void  size(2) Largest target is 48
		 -> USBAlternateInterface(BANK0[2]), BDT(BIGRAMl[48]), UEP1(BITBIGSFRlllll[1]), 

    USB_SD_Ptr	const PTR const unsigned char [3] size(2) Largest target is 52
		 -> sd002(CODE[52]), sd001(CODE[52]), sd000(CODE[4]), 

    USB_CD_Ptr	const PTR const unsigned char [1] size(2) Largest target is 67
		 -> configDescriptor1(CODE[67]), 

    uint2string@buf	PTR unsigned char  size(2) Largest target is 30
		 -> UsbPutString03@string(COMRAM[30]), PutString03@buf(COMRAM[20]), 

    UsbPutString03@str	PTR unsigned char  size(2) Largest target is 21
		 -> STR_8(CODE[21]), STR_7(CODE[20]), STR_6(CODE[21]), STR_3(CODE[11]), 
		 -> STR_1(CODE[14]), 

    skStrlen@str	PTR unsigned char  size(2) Largest target is 30
		 -> UsbPutString03@string(COMRAM[30]), 

    PutString@string	PTR unsigned char  size(2) Largest target is 20
		 -> STR_9(CODE[13]), PutString03@buf(COMRAM[20]), STR_5(CODE[15]), STR_4(CODE[15]), 
		 -> STR_2(CODE[14]), 

    PutString03@string	PTR unsigned char  size(2) Largest target is 15
		 -> STR_5(CODE[15]), STR_4(CODE[15]), STR_2(CODE[14]), 

    PutString01@string	PTR unsigned char  size(2) Largest target is 13
		 -> STR_9(CODE[13]), 


Critical Paths under _main in COMRAM

    _main->_UsbPutString03
    _skUSB_ini->_UsbPutString03
    _getsUSBUSART->_USBTransferOnePacket
    _UsbPutString03->_uint2string
    _PutString01->_PutString
    _CDCTxService->_USBTransferOnePacket
    _USBDeviceTasks->_USBCtrlEPService
    _USBWakeFromSuspend->_USER_USB_CALLBACK_EVENT_HANDLER
    _USBSuspend->_USER_USB_CALLBACK_EVENT_HANDLER
    _USBDeviceInit->_memset
    _USBCtrlTrfSetupHandler->_USBCheckStdRequest
    _USBCtrlEPAllowDataStage->_USBCtrlTrfTxService
    _USBCheckStdRequest->_USBStdFeatureReqHandler
    _USBStdSetCfgHandler->_USER_USB_CALLBACK_EVENT_HANDLER
    _USBStdFeatureReqHandler->_USER_USB_CALLBACK_EVENT_HANDLER
    _SYSTEM_Initialize->_BUTTON_Enable
    _SYSTEM_Initialize->_LED_Enable
    _CDCInitEP->_USBEnableEndpoint
    _USBEnableEndpoint->_USBConfigureEndpoint
    _APP_LEDUpdateUSBStatus->_LED_Off
    _APP_LEDUpdateUSBStatus->_LED_On
    _USBCtrlTrfOutHandler->_USBCtrlTrfRxService
    _USBCtrlTrfInHandler->_USBCtrlTrfTxService
    _PutString03->_uint2string
    _uint2string->___lwdiv

Critical Paths under _SYS_InterruptHigh in COMRAM

    None.

Critical Paths under _main in BANK0

    None.

Critical Paths under _SYS_InterruptHigh in BANK0

    None.

Critical Paths under _main in BANK1

    None.

Critical Paths under _SYS_InterruptHigh in BANK1

    None.

Critical Paths under _main in BANK2

    None.

Critical Paths under _SYS_InterruptHigh in BANK2

    None.

Call Graph Tables:

 ---------------------------------------------------------------------------------
 (Depth) Function   	        Calls       Base Space   Used Autos Params    Refs
 ---------------------------------------------------------------------------------
 (0) _main                                                 4     4      0  129941
                                             58 COMRAM     4     4      0
                            _GetChar
                        _PutString03
                     _USBDeviceTasks
                     _UsbPutString03
                       _getsUSBUSART
                          _skUSB_ini
 ---------------------------------------------------------------------------------
 (1) _skUSB_ini                                            1     1      0   60795
                      _USBDeviceInit
                     _USBDeviceTasks
                     _UsbPutString03
                               _Wait
                       _getsUSBUSART
 ---------------------------------------------------------------------------------
 (2) _getsUSBUSART                                         4     1      3    2490
                                             11 COMRAM     4     1      3
               _USBTransferOnePacket
 ---------------------------------------------------------------------------------
 (2) _Wait                                                 5     3      2     313
                                              0 COMRAM     5     3      2
 ---------------------------------------------------------------------------------
 (2) _UsbPutString03                                      38    32      6   14120
                                             21 COMRAM    37    31      6
                       _CDCTxService
                        _PutString01
                       _putsUSBUSART
                           _skStrlen
                        _uint2string
 ---------------------------------------------------------------------------------
 (3) _skStrlen                                             5     2      3     495
                                              0 COMRAM     4     1      3
 ---------------------------------------------------------------------------------
 (3) _putsUSBUSART                                         5     3      2     291
                                              0 COMRAM     5     3      2
 ---------------------------------------------------------------------------------
 (3) _PutString01                                          4     0      4     537
                                              2 COMRAM     4     0      4
                          _PutString
                        _PutStringLF
 ---------------------------------------------------------------------------------
 (3) _CDCTxService                                         2     2      0    1848
                                             11 COMRAM     2     2      0
               _USBTransferOnePacket
 ---------------------------------------------------------------------------------
 (2) _USBDeviceTasks                                       1     1      0   41882
                                             32 COMRAM     1     1      0
          _USBCtrlEPAllowStatusStage
                   _USBCtrlEPService
                      _USBDeviceInit
      _USBIncrement1msInternalTimers
                    _USBStallHandler
                         _USBSuspend
                 _USBWakeFromSuspend
    _USER_USB_CALLBACK_EVENT_HANDLER
 ---------------------------------------------------------------------------------
 (3) _USBWakeFromSuspend                                   0     0      0    5246
    _USER_USB_CALLBACK_EVENT_HANDLER
 ---------------------------------------------------------------------------------
 (3) _USBSuspend                                           0     0      0    5246
    _USER_USB_CALLBACK_EVENT_HANDLER
 ---------------------------------------------------------------------------------
 (3) _USBStallHandler                                      1     1      0       0
                                              0 COMRAM     1     1      0
 ---------------------------------------------------------------------------------
 (3) _USBIncrement1msInternalTimers                        0     0      0       0
 ---------------------------------------------------------------------------------
 (3) _USBDeviceInit                                        1     1      0    1989
                                             12 COMRAM     1     1      0
                             _memset
 ---------------------------------------------------------------------------------
 (3) _USBCtrlEPService                                     1     1      0   24109
                                             31 COMRAM     1     1      0
                _USBCtrlTrfInHandler
               _USBCtrlTrfOutHandler
             _USBCtrlTrfSetupHandler
                             _memcpy
 ---------------------------------------------------------------------------------
 (4) _memcpy                                              11     5      6     410
                                              0 COMRAM    11     5      6
 ---------------------------------------------------------------------------------
 (4) _USBCtrlTrfSetupHandler                               0     0      0   23470
                 _USBCheckStdRequest
           _USBCtrlEPServiceComplete
    _USER_USB_CALLBACK_EVENT_HANDLER
 ---------------------------------------------------------------------------------
 (5) _USBCtrlEPServiceComplete                             0     0      0      92
            _USBCtrlEPAllowDataStage
          _USBCtrlEPAllowStatusStage
 ---------------------------------------------------------------------------------
 (6) _USBCtrlEPAllowDataStage                              0     0      0      92
                _USBCtrlTrfTxService
 ---------------------------------------------------------------------------------
 (5) _USBCheckStdRequest                                   2     2      0   18132
                                             29 COMRAM     2     2      0
            _USBStdFeatureReqHandler
                _USBStdGetDscHandler
             _USBStdGetStatusHandler
                _USBStdSetCfgHandler
    _USER_USB_CALLBACK_EVENT_HANDLER
 ---------------------------------------------------------------------------------
 (6) _USBStdSetCfgHandler                                  1     1      0    7123
                                             22 COMRAM     1     1      0
    _USER_USB_CALLBACK_EVENT_HANDLER
                             _memset
 ---------------------------------------------------------------------------------
 (4) _memset                                              12     6      6    1787
                                              0 COMRAM    12     6      6
 ---------------------------------------------------------------------------------
 (6) _USBStdGetStatusHandler                               4     4      0      46
                                              0 COMRAM     4     4      0
 ---------------------------------------------------------------------------------
 (6) _USBStdGetDscHandler                                  2     2      0       0
                                              0 COMRAM     2     2      0
 ---------------------------------------------------------------------------------
 (6) _USBStdFeatureReqHandler                              7     7      0    5717
                                             22 COMRAM     7     7      0
    _USER_USB_CALLBACK_EVENT_HANDLER
 ---------------------------------------------------------------------------------
 (3) _USER_USB_CALLBACK_EVENT_HANDLER                      8     2      6    5246
                                             14 COMRAM     8     2      6
   _APP_DeviceCDCBasicDemoInitialize
             _APP_LEDUpdateUSBStatus
                          _CDCInitEP
                  _SYSTEM_Initialize
                 _USBCheckCDCRequest
 ---------------------------------------------------------------------------------
 (4) _USBCheckCDCRequest                                   2     2      0       0
                                              0 COMRAM     2     2      0
 ---------------------------------------------------------------------------------
 (4) _SYSTEM_Initialize                                    3     3      0      66
                                              3 COMRAM     3     3      0
                      _BUTTON_Enable
                         _LED_Enable
 ---------------------------------------------------------------------------------
 (5) _LED_Enable                                           3     3      0      22
                                              0 COMRAM     3     3      0
 ---------------------------------------------------------------------------------
 (5) _BUTTON_Enable                                        3     3      0      22
                                              0 COMRAM     3     3      0
 ---------------------------------------------------------------------------------
 (4) _CDCInitEP                                            0     0      0    2444
                  _USBEnableEndpoint
               _USBTransferOnePacket
 ---------------------------------------------------------------------------------
 (3) _USBTransferOnePacket                                11     7      4    1711
                                              0 COMRAM    11     7      4
 ---------------------------------------------------------------------------------
 (5) _USBEnableEndpoint                                    4     3      1     733
                                             10 COMRAM     4     3      1
               _USBConfigureEndpoint
 ---------------------------------------------------------------------------------
 (6) _USBConfigureEndpoint                                10     9      1     400
                                              0 COMRAM    10     9      1
 ---------------------------------------------------------------------------------
 (4) _APP_LEDUpdateUSBStatus                               2     2      0      44
                                              3 COMRAM     2     2      0
                            _LED_Off
                             _LED_On
 ---------------------------------------------------------------------------------
 (5) _LED_On                                               3     3      0      22
                                              0 COMRAM     3     3      0
 ---------------------------------------------------------------------------------
 (5) _LED_Off                                              3     3      0      22
                                              0 COMRAM     3     3      0
 ---------------------------------------------------------------------------------
 (4) _APP_DeviceCDCBasicDemoInitialize                     0     0      0       0
 ---------------------------------------------------------------------------------
 (4) _USBCtrlTrfOutHandler                                 0     0      0     114
                _USBCtrlTrfRxService
 ---------------------------------------------------------------------------------
 (5) _USBCtrlTrfRxService                                  2     2      0     114
                                              0 COMRAM     2     2      0
          _USBCtrlEPAllowStatusStage
 ---------------------------------------------------------------------------------
 (6) _USBCtrlEPAllowStatusStage                            0     0      0       0
 ---------------------------------------------------------------------------------
 (4) _USBCtrlTrfInHandler                                  1     1      0     115
                                              1 COMRAM     1     1      0
                _USBCtrlTrfTxService
 ---------------------------------------------------------------------------------
 (7) _USBCtrlTrfTxService                                  1     1      0      92
                                              0 COMRAM     1     1      0
 ---------------------------------------------------------------------------------
 (1) _PutString03                                         28    20      8   10428
                                             21 COMRAM    28    20      8
                          _PutString
                        _PutStringLF
                        _uint2string
 ---------------------------------------------------------------------------------
 (3) _uint2string                                         14     9      5    8893
                                              7 COMRAM    14     9      5
                            ___lwdiv
                             ___wmul
 ---------------------------------------------------------------------------------
 (4) ___wmul                                               6     2      4    7141
                                              0 COMRAM     6     2      4
 ---------------------------------------------------------------------------------
 (4) ___lwdiv                                              7     3      4     518
                                              0 COMRAM     7     3      4
 ---------------------------------------------------------------------------------
 (4) _PutStringLF                                          1     1      0       2
 ---------------------------------------------------------------------------------
 (4) _PutString                                            3     1      2     313
                                              0 COMRAM     2     0      2
 ---------------------------------------------------------------------------------
 (1) _GetChar                                              1     1      0      24
                                              0 COMRAM     1     1      0
 ---------------------------------------------------------------------------------
 Estimated maximum stack depth 7
 ---------------------------------------------------------------------------------
 (Depth) Function   	        Calls       Base Space   Used Autos Params    Refs
 ---------------------------------------------------------------------------------
 (11) _SYS_InterruptHigh                                   0     0      0       0
 ---------------------------------------------------------------------------------
 Estimated maximum stack depth 11
 ---------------------------------------------------------------------------------

 Call Graph Graphs:

 _main (ROOT)
   _GetChar
   _PutString03
     _PutString
     _PutStringLF
     _uint2string
       ___lwdiv
       ___wmul
   _USBDeviceTasks
     _USBCtrlEPAllowStatusStage
     _USBCtrlEPService
       _USBCtrlTrfInHandler
         _USBCtrlTrfTxService
       _USBCtrlTrfOutHandler
         _USBCtrlTrfRxService
           _USBCtrlEPAllowStatusStage
       _USBCtrlTrfSetupHandler
         _USBCheckStdRequest
           _USBStdFeatureReqHandler
             _USER_USB_CALLBACK_EVENT_HANDLER
               _APP_DeviceCDCBasicDemoInitialize
               _APP_LEDUpdateUSBStatus
                 _LED_Off
                 _LED_On
               _CDCInitEP
                 _USBEnableEndpoint
                   _USBConfigureEndpoint
                 _USBTransferOnePacket
               _SYSTEM_Initialize
                 _BUTTON_Enable
                 _LED_Enable
               _USBCheckCDCRequest
           _USBStdGetDscHandler
           _USBStdGetStatusHandler
           _USBStdSetCfgHandler
             _USER_USB_CALLBACK_EVENT_HANDLER
             _memset
           _USER_USB_CALLBACK_EVENT_HANDLER
         _USBCtrlEPServiceComplete
           _USBCtrlEPAllowDataStage
             _USBCtrlTrfTxService
           _USBCtrlEPAllowStatusStage
         _USER_USB_CALLBACK_EVENT_HANDLER
       _memcpy
     _USBDeviceInit
       _memset
     _USBIncrement1msInternalTimers
     _USBStallHandler
     _USBSuspend
       _USER_USB_CALLBACK_EVENT_HANDLER
     _USBWakeFromSuspend
       _USER_USB_CALLBACK_EVENT_HANDLER
     _USER_USB_CALLBACK_EVENT_HANDLER
   _UsbPutString03
     _CDCTxService
       _USBTransferOnePacket
     _PutString01
       _PutString
       _PutStringLF
     _putsUSBUSART
     _skStrlen
     _uint2string
   _getsUSBUSART
     _USBTransferOnePacket
   _skUSB_ini
     _USBDeviceInit
     _USBDeviceTasks
     _UsbPutString03
     _Wait
     _getsUSBUSART

 _SYS_InterruptHigh (ROOT)

 Address spaces:
Name               Size   Autos  Total    Cost      Usage
BIGRAMl            1FF      0       0      23        0.0%
EEDATA             100      0       0       0        0.0%
BITBANK1           100      0       0       6        0.0%
BANK1              100      0     100       7      100.0%
BITBANK0            A0      0       0       4        0.0%
BANK0               A0      0      6E       5       68.8%
BITCOMRAM           5E      0       0       0        0.0%
COMRAM              5E     3E      5D       1       98.9%
BIGRAMh             40      0       0      22        0.0%
BITBANK2            40      0       0       8        0.0%
BANK2               40      0       0       9        0.0%
BITBIGSFRhh         2C      0       0      10        0.0%
BITBIGSFRhlhhh      1A      0       0      11        0.0%
BITBIGSFRllh        19      0       0      18        0.0%
BITBIGSFRhlhlhh      9      0       0      13        0.0%
BITBIGSFRhlhll       9      0       0      15        0.0%
BITBIGSFRhlhhlh      8      0       0      12        0.0%
BITBIGSFRhllll       8      0       0      17        0.0%
BITBIGSFRhlllh       6      0       0      16        0.0%
BITBIGSFRlllll       6      0       0      20        0.0%
BITBIGSFRllllh       2      0       0      19        0.0%
BITBIGSFRhlhlhl      1      0       0      14        0.0%
BIGSFR               0      0       0     200        0.0%
BITSFR_1             0      0       0     200        0.0%
SFR_1                0      0       0     200        0.0%
BITSFR               0      0       0     200        0.0%
SFR                  0      0       0     200        0.0%
STACK                0      0       0       2        0.0%
NULL                 0      0       0       0        0.0%
ABS                  0      0     1CB      21        0.0%
DATA                 0      0     1CB       3        0.0%
CODE                 0      0       0       0        0.0%


Microchip Technology PIC18 Macro Assembler V2.41 build 20230208172133 
Symbol Table                                                                                   Thu Apr 27 16:26:58 2023

                              _USB_SD_Ptr 3EC3                                        l16 26F6  
                             ?_LED_Enable 0001                              uint2string@i 0012  
                           _USBDeviceInit 0EBE                       ___wmul@multiplicand 0003  
                            _putsUSBUSART 21AA      USER_USB_CALLBACK_EVENT_HANDLER@event 000F  
    USER_USB_CALLBACK_EVENT_HANDLER@pdata 0011                                       l112 276A  
                                     l121 2142                                       l107 27CC  
                                     l131 270C                                       l108 27CE  
                                     l204 07CA                                       l116 25EE  
                                     l125 21A8                                       l134 2720  
                                     l128 26F8                                       l216 25A6  
                                     l153 2650                                       l156 2666  
                                     l430 1ABC               __end_of_USBStdGetDscHandler 0D74  
                                     l415 1284                                       l511 1294  
                                     l175 227A                                       l600 021E  
                                     l440 1F18                                       l168 16CE  
                                     l409 255C                                       l185 1FC2  
                                     l434 1ABC                                       l522 139E  
                                     l514 1382                                       l530 26C8  
                                     l507 0D72                                       l515 12B0  
                                     l612 036A                                       l516 12B6  
                                     l380 0398                                       l445 1E6A  
                                     l525 233E                                       l381 0396  
                                     l374 1002                                       l527 2340  
                                     l560 17C0                                       l608 02CC  
                                     l448 0E12                                       l544 1C56  
                                     l536 2630                                       l704 2212  
                                     l473 15C2                                       l369 0F26  
                                     l617 269A                                       l554 20C8  
                                     l458 0EBC                                       l378 05D4  
                                     l386 040E                                       l547 2052  
                                     l395 052A                                       l484 1130  
                                     l572 14B2                                       l396 05D2  
                                     l724 0884                                       l493 1B9E  
                                     l397 053C                                       l486 1146  
                                     l574 13BC                                       l718 095A  
                                     l567 17D0                                       l823 19CC  
                                     l671 1854                                       l583 140A  
                                     l719 0810                                       l568 17D6  
                                     l664 18D8                                       l673 188C  
                                     l761 1DBA                                       l851 2404  
                                     l827 194E                                       _BDT 0200  
                                     l861 2466                                       l845 23AA  
                                     l677 22DE                                       l589 005C  
                                     l790 278E                                       l855 240C  
                                     l847 23B0                                       l848 23B6  
                                     l696 1D0A                                       l857 2412  
                                     l849 23BC                                       l858 2418  
                                     l859 241E                                       l891 23A2  
                                     l885 2348                                       l894 2746  
                                     l887 234E                                       l888 2354  
                                     l889 235A                                       _UIE 0F60  
                                     _UIR 0F62                    _APP_LEDUpdateUSBStatus 18DA  
                           uint2string@dt 0014                                _USBSuspend 269C  
                           uint2string@sw 0010                      USBStdSetCfgHandler@i 0017  
                                     prod 0FF3                                       wreg 0FE8  
                          _USBDeviceTasks 036C                            _USBDeviceState 005B  
                           _BUTTON_Enable 26CA                     ??_USBCtrlTrfRxService 0001  
                          ??_getsUSBUSART 000F                  USBEnableEndpoint@options 000B  
                         __end_of_LED_Off 2468                                      l4011 004C  
                                    l4003 0012                                      l4021 00AC  
                                    l4013 0056                                      l4005 0024  
                                    l4101 0DDE                                      l4031 0126  
                                    l4023 00BE                                      l4015 006E  
                                    l4007 0038                                      l4111 0E3C  
                                    l4103 0DEA                                      l1392 213C  
                                    l1385 2134                                      l4041 0174  
                                    l4033 013E                                      l4025 00CE  
                                    l4017 0082                                      l4009 003A  
                                    l4201 13F2                                      l4121 0E62  
                                    l4113 0E42                                      l4105 0E02  
                                    l4051 01EA                                      l4043 0196  
                                    l4035 014C                                      l4027 00EC  
                                    l4019 0096                                      l4211 140C  
                                    l4203 13FA                                      l4131 0EA4  
                                    l4123 0E72                                      l4115 0E46  
                                    l4107 0E22                                      l1571 2510  
              USBConfigureEndpoint@handle 0009                                      l4301 16EA  
                                    l4141 102C                                      l4061 0266  
                                    l4053 0206                                      l4045 01B4  
                                    l4037 015C                                      l4029 0108  
                                    l4213 1420                                      l4133 0EA8  
                                    l4125 0E86                                      l4117 0E56  
                                    l4109 0E38                                      l4231 2174  
                                    l4303 16FC                                      l4311 1722  
                                    l4151 105C                                      l4143 1030  
                                    l4071 02B6                                      l4063 0272  
                                    l4047 01C6                                      l4055 023A  
                                    l4039 0166                                      l1575 0AD0  
                                    l4127 0E92                                      l4119 0E5E  
                                    l4233 2178                                      l4225 213E  
                                    l4241 271A                                      l4401 06BC  
                                    l4321 1768                                      l4313 1732  
                                    l4305 1706                                      l4161 10BC  
                                    l4153 105E                                      l4145 1038  
                                    l4137 1004                                      l3601 2424  
                                    l3521 1DC6                                      l4073 02DC  
                                    l4081 033C                                      l4065 0292  
                                    l4057 0244                                      l4049 01DC  
                                    l4217 1440                                      l4129 0E9E  
                                    l4227 2150                                      l4243 271E  
                                    l4235 26F8                                      l4411 0712  
                                    l4403 06D2                                      l4331 17B0  
                                    l4323 1778                                      l4315 1746  
                                    l4307 1716                                      l4171 1118  
                                    l4163 10C8                                      l4155 1070  
                                    l4147 1040                                      l4139 1014  
                                    l3611 23C2                                      l3531 1E52  
                                    l3523 1E04                                      l4083 0348  
                                    l4075 02F8                                      l4067 029E  
                                    l4059 025A                                      l4091 0D94  
                                    l4251 24E6                                      l4229 2172  
                                    l4237 2706                                      l4421 0780  
                                    l4413 072A                                      l4405 06DE  
                                    l4325 1788                                      l4317 174A  
                                    l4309 171E                                      l4173 1124  
                                    l4165 10D8                                      l4157 1082  
                                    l4149 1058                                      l3701 1922  
                                    l3533 1E5C                                      l3525 1E0E  
                                    l4085 035E                                      l4077 0310  
                                    l4069 02A8                                      l4181 13A0  
                                    l4093 0DA8                                      l4261 1FEA  
                                    l4253 24F2                                      l4245 24C2  
                                    l4501 0EEE                                      l4239 270A  
                                    l4351 20F4                                      l4343 20CA  
                                    l4423 0798                                      l4415 072E  
                                    l4407 06E2                                      l4335 17D2  
                                    l4327 1794                                      l4319 175C  
                                    l4167 10E4                                      l4159 10A6  
                                    l3607 23A6                                      l3711 196E  
                                    l3703 192C                                      l3527 1E1E  
                                    l3519 1DBE                                      l3535 26CC  
                                    l3623 2574                                      l4079 031C  
                                    l4191 13D6                                      l4095 0DAC  
                                    l4087 0D74                                      l4271 201A  
                                    l4263 1FF4                                      l4247 24D6  
                                    l4255 24F6                                      l4511 0EFC  
                                    l4503 0EF4                                      l4431 07CC  
                                    l4361 2128                                      l4353 2102  
                                    l4345 20D2                                      l4337 2722  
                                    l4425 07A4                                      l4417 075C  
                                    l4409 06F2                                      l3801 14FA  
                                    l4329 17A4                                      l4177 1132  
                                    l4169 10F4                                      l5401 23D6  
                                    l3713 1982                                      l3705 1942  
                                    l3721 19A6                                      l3529 1E3A  
                                    l3561 253A                                      l3545 2344  
                                    l3617 2560                                      l3633 17F2  
                                    l4193 13DE                                      l4185 13BE  
                                    l4097 0DB2                                      l4089 0D84  
                                    l4281 204E                                      l4273 2022  
                                    l4265 2000                                      l4257 1FC4  
                                    l4249 24E2                                      l4521 0F30  
                                    l4513 0F14                                      l4505 0EF8  
                                    l4433 07E0                                      l4601 21CA  
                                    l4363 212E                                      l4355 2108  
                                    l4347 20E4                                      l4339 273E  
                                    l4427 07BC                                      l4419 0760  
                                    l4371 05D6                                      l3803 14FE  
                                    l4179 1142                                      l4291 20A8  
                                    l4283 2054                                      l5403 2438  
                                    l3715 198C                                      l3707 1952  
                                    l3723 19C8                                      l3563 2544  
                                    l3555 2514                                      l3571 1176  
                                    l3539 26CC                                      l3619 2564  
                                    l3651 1848                                      l3643 1830  
                                    l3731 095C                                      l4195 13E0  
                                    l4187 13C6                                      l4099 0DBA  
                                    l4275 2026                                      l4267 200A  
                                    l4259 1FDE                                      l4531 0F46  
                                    l4523 0F32                                      l4515 0F16  
                                    l4451 086C                                      l4443 0824  
                                    l4611 2204                                      l4603 21CC  
                                    l4357 211E                                      l4349 20EC  
                                    l4429 07C0                                      l4373 05DE  
                                    l3813 1532                                      l3821 1568  
                                    l3805 1506                                      l4293 20B4  
                                    l4285 2066                                      l3709 1964  
                                    l3565 2550                                      l3557 2522  
                                    l3581 11D0                                      l3573 118E  
                                    l3549 2360                                      l3661 187C  
                                    l3645 1838                                      l3637 180C  
                                    l3629 17D8                                      l3741 09BC  
                                    l3901 1AFE                                      l4197 13E4  
                                    l4189 13CE                                      l4277 202E  
                                    l4269 2016                                      l4541 0F94  
                                    l4533 0F54                                      l4525 0F34  
                                    l4517 0F28                                      l4621 2612  
                                    l4701 03AA                                      l4453 087C  
                                    l4445 0836                                      l4437 07FA  
                                    l4365 2748                                      l4613 2208  
                                    l4359 2126                                      l4391 0658  
                                    l4383 0600                                      l4375 05E6  
                                    l3823 157C                                      l3815 155C  
                                    l3831 15B2                                      l3807 1516  
                                    l4295 20C4                                      l4287 206E  
                                    l3559 252C                                      l3591 1242  
                                    l3583 11DC                                      l3575 11A0  
                                    l3567 114A                                      l3663 1884  
                                    l3655 185C                                      l3647 1840  
                                    l3639 181C                                      l3743 0A14  
                                    l3735 097A                                      l3911 1B4A  
                                    l3903 1B1A                                      l4199 13EA  
                                    l4279 2032                                      l4551 0FCA  
                                    l4543 0FA2                                      l4527 0F38  
                                    l4519 0F2E                                      l4631 269C  
                                    l4623 2614                                      l4703 03BA  
                                    l4711 03D8                                      l4463 08AE  
                                    l4471 08CC                                      l4455 0888  
                                    l4447 0854                                      l4439 080C  
                                    l4367 2754                                      l4615 220E  
                                    l4607 21E0                                      l4393 0664  
                                    l4385 061C                                      l4377 05F8  
                                    l3825 15A6                                      l3817 1560  
                                    l3809 1520                                      l4297 16D0  
                                    l3841 1A0A                                      l3833 19CE  
                                    l4289 2084                                      l3729 276C  
                                    l3593 127C                                      l3585 11E8  
                                    l3569 115A                                      l3681 22A8  
                                    l3657 186E                                      l3649 1842  
                                    l3761 0ABE                                      l3753 0A74  
                                    l3737 0986                                      l3921 1B76  
                                    l3913 1B52                                      l3905 1B1C  
                                    l4561 0FE4                                      l4553 0FD0  
                                    l4545 0FB0                                      l4529 0F3E  
                                    l4641 26AC                                      l4633 269E  
                                    l4625 261A                                      l4617 25F0  
                                    l4721 0408                                      l4713 03E6  
                                    l4705 03C8                                      l4473 08E0  
                                    l4465 08C2                                      l4481 08FE  
                                    l4457 0896                                      l4449 085C  
                                    l4369 2766                                      l4609 21FC  
                                    l4801 1C58                                      l4395 067C  
                                    l4387 062E                                      l3827 15AA  
                                    l3819 1566                                      l4299 16E0  
                                    l3851 1A48                                      l3843 1A18  
                                    l3835 19E0                                      l3691 18E8  
                                    l3587 11F4                                      l3579 11AC  
                                    l3683 22B2                                      l3659 1874  
                                    l3667 1896                                      l3771 1D34  
                                    l3763 1D0C                                      l3931 0C40  
                                    l3755 0AA8                                      l3747 0A2E  
                                    l3923 1B7E                                      l3915 1B5A  
                                    l3907 1B2C                                      l4563 0FE8  
                                    l4555 0FDA                                      l4547 0FB2  
                                    l4539 0F6C                                      l4651 2698  
                                    l4643 2668                                      l4635 26A0  
                                    l4627 261C                                      l4619 25F6  
                                    l4723 041C                                      l4731 0434  
                                    l4715 03F4                                      l4707 03D0  
                                    l4491 093C                                      l4475 08F4  
                                    l4483 090E                                      l4467 08C6  
                                    l4459 089A                                      l4571 221C  
                                    l4811 1CB2                                      l4803 1C5C  
                                    l4397 069C                                      l4389 0640  
                                    l3829 15B0                                      l3861 1A88  
                                    l3853 1A58                                      l3845 1A24  
                                    l3837 19F4                                      l3597 2408  
                                    l3589 1204                                      l3685 22D0  
                                    l3677 227C                                      l3773 1D38  
                                    l3765 1D10                                      l3941 0CAE  
                                    l3933 0C48                                      l3757 0AB4  
                                    l3749 0A5A                                      l3925 1B9A  
                                    l3917 1B62                                      l3909 1B48  
                                    l5381 1454                                      l4565 0FFA  
                                    l4557 0FDE                                      l4549 0FC2  
                                    l4493 0EBE                                      l4645 2676  
                                    l4661 2330                                      l4653 22E0  
                                    l4637 26A2                                      l4629 262A  
                                    l4741 0470                                      l4733 0442  
                                    l4725 042A                                      l4717 03F6  
                                    l4709 03D2                                      l4485 091E  
                                    l4477 08F8                                      l4469 08CA  
                                    l4581 225A                                      l4573 2222  
                                    l4813 1CBA                                      l4821 1D08  
                                    l4805 1C6E                                      l4901 1684  
                                    l4399 06A0                                      l4911 25B4  
                                    l3791 14B8                                      l3863 1A98  
                                    l3855 1A6C                                      l3847 1A34  
                                    l3839 19F8                                      l3695 18F2  
                                    l3687 22DA                                      l3679 229E  
                                    l5391 18AA                                      l3775 1D40  
                                    l3767 1D18                                      l3943 0CE0  
                                    l3935 0C54                                      l3927 0C24  
                                    l5383 1364                                      l3759 0ABA  
                                    l3919 1B66                                      l3871 1E88  
                                    l4671 1BD6                                      l4567 0FFE  
                                    l4559 0FE2                                      l4495 0EC0  
                                    l4647 2686                                      l4663 233C  
                                    l4655 22F0                                      l4639 26A8  
                                    l4751 04A4                                      l4743 048C  
                                    l4735 0450                                      l4727 042E  
                                    l4719 03FA                                      l4487 0930  
                                    l4479 08FC                                      l4583 2268  
                                    l4575 223A                                      l4831 1F40  
                                    l4815 1CD6                                      l4807 1C84  
                                    l4903 1690                                      l4921 27C0  
                                    l4913 25CC                                      l3793 14CE  
                                    l3865 1AAC                                      l3857 1A78  
                                    l3849 1A44                                      l3697 1904  
                                    l3689 18DA                                      l5393 2588  
                                    l3769 1D26                                      l5385 0D54  
                                    l3945 0CE8                                      l3937 0C64  
                                    l3929 0C38                                      l3881 1EE8  
                                    l3873 1EAC                                      l4681 1C36  
                                    l4673 1BDE                                      l4665 1BA0  
                                    l4497 0ECE                                      l4649 2688  
                                    l4657 230A                                      l4761 04D8  
                                    l4753 04B4                                      l4745 048E  
                                    l4737 0454                                      l4729 0432  
                                    l4489 0938                                      l4593 21AA  
                                    l4585 226C                                      l4577 224A  
                                    l4569 2214                                      l4841 1F8E  
                                    l4833 1F42                                      l4825 1F1A  
                                    l4817 1CD8                                      l4809 1CA2  
                                    l4905 16A0                                      l4923 27C8  
                                    l4915 25D8                                      l3795 14D2  
                                    l3859 1A84                                      l3699 190E  
                                    l5395 2374                                      l5387 1D66  
                                    l3779 1D48                                      l3947 0CF8  
                                    l3939 0C80                                      l3971 12A8  
                                    l3891 1AC0                                      l3883 1EEC  
                                    l3875 1EB8                                      l3867 1E6C  
                                    l4675 1BE8                                      l4683 1C3E  
                                    l4667 1BA4                                      l4499 0EEA  
                                    l4659 2324                                      l4771 0524  
                                    l4763 04E6                                      l4747 0492  
                                    l4739 0462                                      l4755 04B8  
                                    l4587 226E                                      l4579 2256  
                                    l4843 1F9E                                      l4835 1F5E  
                                    l4827 1F22                                      l4851 263E  
                                    l4819 1CEA                                      l4907 16AE  
                                    l4917 25EA                                      l4909 25A8  
                                    l3797 14E2                                      l3789 14B4  
                                    l5397 26E0                                      l5389 1DAC  
                                    l3949 0D14                                      l3957 0D40  
                                    l3981 131A                                      l3973 12B8  
                                    l3965 1286                                      l3893 1AF8  
                                    l3885 1F00                                      l3877 1EC8  
                                    l3869 1E76                                      l4685 1C52  
                                    l4677 1C06                                      l4669 1BBA  
                                    l4781 054E                                      l4773 0538  
                                    l4765 04F4                                      l4757 04C6  
                                    l4749 04A2                                      l4597 21BE  
                                    l4589 2278                                      l4845 1FB2  
                                    l4837 1F7A                                      l4829 1F3C  
                                    l4853 264C                                      l4919 27B2  
                                    l3799 14EA                                      l5399 19BA  
                                    l3991 1390                                      l3983 1330  
                                    l3975 12CC                                      l3895 1AFA  
                                    l3887 1F0C                                      l3879 1EE0  
                                    l4679 1C2E                                      l4791 058C  
                                    l4783 0558                                      l4767 050E  
                                    l4759 04D4                                      l4695 036C  
                                    l4687 036C                                      l4599 21C2  
                                    l4847 1FBE                                      l4839 1F8A  
                                    l3993 1398                                      l3985 1346  
                                    l3977 12DA                                      l3969 1296  
                                    l3889 1ABE                                      l4793 059C  
                                    l4785 055A                                      l4769 0514  
                                    l4697 037C                                      l4849 2632  
                                    l4881 15EC                                      l4873 15C4  
                                    l4961 0AD2                                      l3995 139A  
                                    l3979 12FC                                      l4795 05A4  
                                    l4787 0568                                      l4779 054A  
                                    l4699 03A6                                      l4891 1632  
                                    l4883 15FA                                      l4875 15CC  
                                    l4971 0B30                                      l4963 0B06  
                                    l3989 134E                                      l4797 05C0  
                                    l4789 057C                                      l4893 163E  
                                    l4885 15FE                                      l4877 15D0  
                                    l4973 0B6C                                      l4981 0BE4  
                                    l4965 0B0A                                      l4799 05C2  
                                    l4895 164E                                      l4887 160E  
                                    l4879 15DC                                      l4983 0BEA  
                                    l4975 0B74                                      l4967 0B0E  
                                    l4897 165C                                      l4889 162E  
                                    l4985 0BFA                                      l4977 0BD0  
                                    l4969 0B20                                      l4899 1680  
                                    l4979 0BD2                                      STR_1 3FD9  
                                    STR_2 3FD9                                      STR_3 3FF4  
                                    STR_4 3FCA                                      STR_5 3FCA  
                                    STR_6 3F8C                                      STR_7 3FB6  
                                    STR_8 3FA1                                      STR_9 3FE7  
                                    u2100 17EE                                      u2101 17EA  
                                    u2110 1808                                      u2111 1804  
                                    u3000 20E4                                      u2200 19A2  
                                    u2040 1E1E                                      u2120 181C  
                                    u3001 20E0                                      u2201 199E  
                                    u2041 1E1A                                      u2121 1818  
                                    u3010 2102                                      u2050 2522  
                                    u2130 182C                                      u2210 0976  
                                    u3011 20FE                                      u2051 251E  
                                    u2131 1828                                      u2211 0972  
                                    u3020 211E                                      u2300 155A  
                                    u2140 18E8                                      u2060 253A  
                                    u2220 09B8                                      u3100 07E0  
                                    u3021 211A                                      u2141 18E4  
                                    u2061 2536                                      u2221 09B4  
                                    u3101 07DC                                      u2310 1578  
                                    u2150 1904                                      u2070 115A  
                                    u2230 0A2A                                      u3110 07F6  
                                    u3030 2766                                      u2311 1574  
                                    u2151 1900                                      u2071 1156  
                                    u2231 0A26                                      u3111 07F2  
                                    u3031 2762                                      u3040 05F8  
                                    u2320 15A4                                      u2160 1922  
                                    u2080 11A0                                      u2240 0A70  
                                    u2400 1B2C                                      u3200 091E  
                                    u3120 080C                                      u3041 05F4  
                                    u2161 191E                                      u2081 119C  
                                    u2241 0A6C                                      u2401 1B28  
                                    u3201 091A                                      u3121 0808  
                                    u3050 062E                                      u2330 15C2  
                                    u2170 1942                                      u2090 1204  
                                    u2250 0AD0                                      u2410 1B76  
                                    u3210 0930                                      u3130 0820  
                                    u3051 062A                                      u2331 15BE  
                                    u2307 1550                                      u2171 193E  
                                    u2091 1200                                      u2251 0ACC  
                                    u2411 1B72                                      u3211 092C  
                                    u3131 081C                                      u3060 0640  
                                    u2260 14CE                                      u2340 19E0  
                                    u2180 1964                                      u2420 0C38  
                                    u2500 12DA                                      u3220 0F26  
                                    u3300 262A                                      u3140 0836  
                                    u3061 063C                                      u2261 14CA  
                                    u2341 19DC                                      u2181 1960  
                                    u2421 0C34                                      u2501 12D6  
                                    u3221 0F22                                      u3301 2626  
                                    u3141 0832                                      u3070 06CE  
                                    u2270 14E2                                      u2350 19F4  
                                    u2190 1982                                      u2430 0C64  
                                    u2510 1330                                      u3230 0F54  
                                    u3310 2686                                      u3150 086C  
                                    u3071 06CA                                      u2327 159A  
                                    u2271 14DE                                      u2351 19F0  
                                    u2191 197E                                      u2431 0C60  
                                    u2511 132C                                      u3231 0F50  
                                    u3311 2682                                      u3151 0868  
                                    u2280 14FA                                      u2360 1A0A  
                                    u2600 00AC                                      u2440 0CAC  
                                    u2520 1346                                      u3240 0FC2  
                                    u3320 2698                                      u3400 03A6  
                                    u3160 087C                                      u2281 14F6  
                                    u2361 1A06                                      u2601 00A8  
                                    u2521 1342                                      u3241 0FBE  
                                    u3321 2694                                      u3401 03A2  
                                    u3161 0878                                      u2290 152E  
                                    u2370 1A44                                      u2610 00BE  
                                    u2450 0CDA                                      u2530 1390  
                                    u3330 22F0                                      u3410 03BA  
                                    u3170 08AA                                      u3250 223A  
                                    u2291 152A                                      u2371 1A40  
                                    u2611 00BA                                      u2531 138C  
                                    u3331 22EC                                      u3411 03B6  
                                    u3171 08A6                                      u3251 2236  
                                    u2700 02CC                                      u2620 00CE  
                                    u2540 0024                                      u2460 0CF8  
                                    u2380 1E88                                      u3340 230A  
                                    u3500 0462                                      u3420 03C8  
                                    u3180 08DC                                      u3260 224A  
                                    u3085 06FE                                      u2701 02C8  
                                    u2621 00CA                                      u2541 0020  
                                    u2461 0CF4                                      u2381 1E84  
                                    u3341 2306                                      u3501 045E  
                                    u3421 03C4                                      u3181 08D8  
                                    u3261 2246                                      u4037 2644  
                                    u2710 02DC                                      u2630 014C  
                                    u2550 0038                                      u2470 0D34  
                                    u2390 1EE0                                      u3350 2324  
                                    u3510 0470                                      u3430 03E6  
                                    u3190 090E                                      u3270 21BA  
                                    u3095 076C                                      u2711 02D8  
                                    u2631 0148                                      u2551 0034  
                                    u2447 0CA2                                      u2391 1EDC  
                                    u3351 2320                                      u3511 046C  
                                    u3431 03E2                                      u3191 090A  
                                    u3271 21B6                                      u2800 1070  
                                    u2640 0174                                      u2560 004C  
                                    u2480 12A8                                      u2720 0D84  
                                    u3360 1BBA                                      u3600 054A  
                                    u3520 04A2                                      u3440 03F4  
                                    u3280 21DC                                      u2801 106C  
                                    u2641 0170                                      u2561 0048  
                                    u2457 0CD0                                      u2481 12A4  
                                    u2721 0D80                                      u3361 1BB6  
                                    u3601 0546                                      u3521 049E  
                                    u3441 03F0                                      u3281 21D8  
                                    u2810 1082                                      u2650 01C6  
                                    u2570 006E                                      u2490 12CC  
                                    u2730 0D94                                      u3370 1C06  
                                    u3610 0568                                      u3530 04B4  
                                    u3450 0408                                      u3290 21FC  
                                    u2811 107E                                      u2651 01C2  
                                    u2571 006A                                      u2491 12C8  
                                    u2731 0D90                                      u3371 1C02  
                                    u3611 0564                                      u3531 04B0  
                                    u3451 0404                                      u3291 21F8  
                                    u2900 271A                                      u2820 10BC  
                                    u2660 01DC                                      u2580 0082  
                                    u2740 0DA8                                      u3380 1C52  
                                    u3620 059C                                      u3540 04C6  
                                    u3460 041C                                      u3700 2666  
                                    u2901 2716                                      u2821 10B8  
                                    u2661 01D8                                      u2581 007E  
                                    u2477 0D2A                                      u2741 0DA4  
                                    u3381 1C4E                                      u3621 0598  
                                    u3541 04C2                                      u3461 0418  
                                    u3701 2662                                      u2830 1142  
                                    u2670 01EA                                      u2590 0096  
                                    u2750 0E22                                      u2910 2510  
                                    u3630 05D2                                      u3550 04D4  
                                    u3470 042A                                      u3390 037C  
                                    u2831 113E                                      u2671 01E6  
                                    u2591 0092                                      u2751 0E1E  
                                    u2911 250C                                      u3631 05CE  
                                    u3551 04D0                                      u3471 0426  
                                    u3391 0378                                      u3800 27C0  
                                    u2920 2066                                      u2680 025A  
                                    u2840 13B8                                      u2760 0E38  
                                    u3560 04E6                                      u3480 0442  
                                    u3640 1C6E                                      u3801 27BC  
                                    u2921 2062                                      u2681 0256  
                                    u2841 13B4                                      u2761 0E34  
                                    u3561 04E2                                      u3481 043E  
                                    u3641 1C6A                                      u2850 2150  
                                    u2930 2084                                      u2690 02B6  
                                    u2770 0E56                                      u3570 04F4  
                                    u3490 0450                                      u3650 1C84  
                                    u3730 15EC                                      u2851 214C  
                                    u2931 2080                                      u2691 02B2  
                                    u2771 0E52                                      u3571 04F0  
                                    u3491 044C                                      u3651 1C80  
                                    u3731 15E8                                      u2860 2170  
                                    u2940 16FC                                      u2780 0EB8  
                                    u3580 0524                                      u3660 1CA2  
                                    u3740 15FA                                      u2941 16F8  
                                    u2781 0EB4                                      u3581 0520  
                                    u3661 1C9E                                      u3741 15F6  
                                    u2870 2198                                      u2950 1716  
                                    u2790 102C                                      u3590 0538  
                                    u3670 1CEA                                      u3750 164E  
                                    u2951 1712                                      u2791 1028  
                                    u3591 0534                                      u3671 1CE6  
                                    u3751 164A                                      u2880 21A8  
                                    u2960 1732                                      u3680 1F5E  
                                    u3760 165C                                      u2881 21A4  
                                    u2961 172E                                      u3681 1F5A  
                                    u3761 1658                                      u2890 2706  
                                    u2970 175C                                      u3690 1F9E  
                                    u3770 16A0                                      u3850 0B30  
                                    u2867 2166                                      u2891 2702  
                                    u2971 1758                                      u3691 1F9A  
                                    u3771 169C                                      u3851 0B2C  
                                    u2980 1788                                      u3780 16AE  
                                    u3860 0BE4                                      u2877 218E  
                                    u2981 1784                                      u3781 16AA  
                                    u3861 0BE0                                      u3790 25EA  
                                    u2990 17D0                                      u3870 0BFA  
                                    u3791 25E6                                      u2991 17CC  
                                    u3871 0BF6                     ??_USBCtrlTrfTxService 0001  
                                    _UCFG 0F61                                      _UEP0 0F53  
                                    _UEP1 0F54                                      _UEIE 0F5B  
                                    _UEIR 0F5F                                      _UCON 0F64  
                                    _TXIF 7CF4                                      _Wait 2632  
                         _CDCDataInHandle 008C    USBStdFeatureReqHandler@current_ep_data 001B  
                                    _pDst 008E                                      _main 0AD2  
                          uint2string@flg 000C                            uint2string@buf 0008  
                                    fsr1h 0FE2                                      fsr2h 0FDA  
                                    indf1 0FE7                               _BaudRateGen 0078  
                                    indf2 0FDF                                      fsr1l 0FE1  
                                    fsr2l 0FD9                                      btemp 005E  
                                    prodh 0FF4                                      prodl 0FF3  
                                    start 000E                           __end_of_GetChar 27D0  
              __end_of_USBCheckStdRequest 14B4                    ??_USBCtrlTrfOutHandler 0003  
                            ___param_bank 0000                 ??_USBStdFeatureReqHandler 0017  
                ??_USBStdGetStatusHandler 0001                            ?_USBDeviceInit 0001  
                                   ?_Wait 0001                               _writeBuffer 0100  
                                   ?_main 0001                             _USB_In_Buffer 01C0  
                                   _ANSEL 0F7E                    __end_of_USBDeviceTasks 05D6  
               ?_USBCtrlEPServiceComplete 0001                           __end_of___lwdiv 213E  
                                   i2l221 000A                                     _UADDR 0F5C  
                                   _RCREG 0FAE                                     _RCSTA 0FAB  
                                   _SPBRG 0FAF                                     _PORTA 0F80  
                                   _PORTB 0F81                                     _PORTC 0F82  
                                   _TRISA 0F92                                     _TRISB 0F93  
                                   _TRISC 0F94                                     _USTAT 0F63  
                                   _TXREG 0FAD                                     _TXSTA 0FAC  
                                   Wait@i 0004                            ?_BUTTON_Enable 0001  
         __end_of_USBCtrlEPAllowDataStage 1F1A                                     _sd000 3F88  
                                   _sd001 3F42                                     _sd002 3F0E  
          ?_USBIncrement1msInternalTimers 0001                           uint2string@data 000A  
                                   main@i 003D                                     tablat 0FF5  
                                   plusw2 0FDB                         __end_of_CDCInitEP 22E0  
                                   ttemp5 005F                                     ttemp6 0062  
                                   ttemp7 0066                                     status 0FD8  
                                   wtemp8 005F                           __initialization 2468  
                            __end_of_Wait 2668                              __end_of_main 0C24  
                   _control_signal_bitmap 0091                                    ??_Wait 0003  
                                  ??_main 003B                             __activetblptr 0002  
                         ?_USBDeviceTasks 0001                               ?_USBSuspend 0001  
                               ??_LED_Off 0001                              _cdc_mem_type 0092  
                        _CDCDataOutHandle 004D                                    _ANSELH 0F7F  
                         getsUSBUSART@len 000E                    SYSTEM_Initialize@state 0006  
                                  _LED_On 23A4                                 ??_GetChar 0001  
                                  _OSCCON 0FD3                             CDCTxService@i 000C  
                       _shortPacketStatus 0059                           USBDeviceTasks@i 0021  
             USBStdFeatureReqHandler@pUEP 0019                  USBTransferOnePacket@data 0002  
              USBCtrlTrfInHandler@lastDTS 0002                           ??_USBDeviceInit 000D  
                                  ___wmul 2722                      __end_of_getsUSBUSART 1D0C  
                               ??___lwdiv 0005                         _USBEnableEndpoint 2512  
                                  _memcpy 24C2                                    _memset 095C  
                                  clear_0 2490                                    clear_1 24A2  
                                  clear_2 24AE                                    isa$std 0001  
                      ?_USBEnableEndpoint 000B                          __end_of_skStrlen 227C  
                         ??_BUTTON_Enable 0001                              _CDCTxService 07CC  
                            __mediumconst 3EC2                                    tblptrh 0FF7  
                                  tblptrl 0FF6                                    tblptru 0FF8  
                     ??_USBEnableEndpoint 000C                              ?_uint2string 0008  
                             _CtrlTrfData 0238                      _controlTransferState 0058  
                       _SYSTEM_Initialize 255E                                __accesstop 0060  
                 __end_of__initialization 24B4                        ?_SYSTEM_Initialize 0001  
                           ___rparam_used 0001                             ??_PutString01 0007  
                           ??_PutString03 001E                             ??_PutStringLF 0001  
                          __pcstackCOMRAM 0001                 __end_of_USBEnableEndpoint 255E  
                           __end_of_sd000 3F8C                             __end_of_sd001 3F76  
                           __end_of_sd002 3F42                              __pidataBANK0 2790  
                     ??_SYSTEM_Initialize 0004                                 LED_On@led 0003  
                            ??_LED_Enable 0001               __end_of_USBCtrlTrfInHandler 17D8  
                 ?_APP_LEDUpdateUSBStatus 0001                                _cdc_notice 0060  
                              _cdc_rx_len 0054                                _cdc_tx_len 0053  
                           _buttonMessage 00BC                  ??_USBCtrlTrfSetupHandler 0020  
                 _USBTicksSinceSuspendEnd 0093                            _USB_Out_Buffer 0180  
               __end_of_SYSTEM_Initialize 25A8                    _USBStdGetStatusHandler 1286  
                           _buttonPressed 0090                                __pbssBANK0 0060  
                              __pbssBANK1 0100                                   ?_LED_On 0001  
__end_of_APP_DeviceCDCBasicDemoInitialize 2790        ??_APP_DeviceCDCBasicDemoInitialize 0001  
       ?_APP_DeviceCDCBasicDemoInitialize 0001          _APP_DeviceCDCBasicDemoInitialize 276C  
                      __end_of_LED_Enable 23A4                               _pBDTEntryIn 0045  
        __end_of_USBCtrlEPServiceComplete 0EBE                      USBCtrlTrfRxService@i 0001  
                       __end_of_PutString 21AA                             LED_Enable@led 0003  
                                 ?___wmul 0001            __end_of_APP_LEDUpdateUSBStatus 19CE  
                     __end_of_PutString01 276C                       __end_of_PutString03 25F0  
                                 ?_memcpy 0001                                   _BAUDCON 0FB8  
                     __end_of_PutStringLF 2722                                   ?_memset 0001  
                              _device_dsc 3F76                          _USBCtrlEPService 1BA0  
                              _ep_data_in 0089               __end_of_USBCtrlTrfRxService 1148  
                      _USBCheckStdRequest 13A0                         _configDescriptor1 3ECB  
                             skStrlen@flg 0003                               skStrlen@rtn 0004  
                             skStrlen@str 0001                                   _LED_Off 2406  
             __end_of_USBCtrlTrfTxService 15C4                       _USBStdSetCfgHandler 1ABE  
                     ?_USBCheckStdRequest 0001                      UsbPutString03@string 001C  
                                 _UIEbits 0F60                                   _UIRbits 0F62  
                                 _GetChar 27B2                             _cdc_trf_state 005A  
                         putsUSBUSART@len 0005            APP_LEDUpdateUSBStatus@ledCount 004B  
                                 _pCDCDst 0080                                   _pCDCSrc 0083  
                               ?_skStrlen 0001                                   Wait@num 0001  
                                 __Hparam 0000           ??_USBIncrement1msInternalTimers 0001  
                    ?_USBStdSetCfgHandler 0001                                 _CDCInitEP 227C  
                                 __Lparam 0000                                _readBuffer 0140  
                    ??_USBCheckStdRequest 001E                          ??_USBDeviceTasks 0021  
                                 ___lwdiv 20CA                         ??_USBStallHandler 0001  
                                 __pcinit 2468                        getsUSBUSART@buffer 000C  
                       __end_of_skUSB_ini 16D0                 __end_of_configDescriptor1 3F0E  
                                 __ramtop 0300                                   __ptext0 0AD2  
                                 __ptext1 15C4                                   __ptext2 1C58  
                                 __ptext3 2632                                   __ptext4 1F1A  
                                 __ptext5 2214                                   __ptext6 21AA  
                                 __ptext7 2748                                   __ptext8 07CC  
                                 __ptext9 036C                                   _inPipes 003F  
             _USBDeferOUTDataStagePackets 0094                              ??_USBSuspend 0017  
                      __end_of_USB_CD_Ptr 3ECB                      end_of_initialization 24B4  
                            _getsUSBUSART 1C58                        __end_of_USB_SD_Ptr 3EC9  
                         UsbPutString03@i 003A                                   memcpy@d 0007  
                                 memcpy@n 0005                                   memcpy@s 0009  
                     _pBDTEntryEP0OutNext 004F                                   memset@c 0003  
                                 memset@k 0009                                   memset@n 0005  
                                 memset@s 000B                             __Lmediumconst 3EC2  
                         _USB1msTickCount 007C           _dummy_encapsulated_cmd_response 009B  
                ?_USBStdFeatureReqHandler 0001                     ??_USBStdSetCfgHandler 0017  
                              ??_skStrlen 0004                                ?_CDCInitEP 0001  
                             _PutString01 2748                               _PutString03 25A8  
                             _PutStringLF 26F8                        __end_of_USBSuspend 26CA  
                 _USBCtrlEPAllowDataStage 1E6C                                   postdec1 0FE5  
                                 postdec2 0FDD                                   postinc0 0FEE  
                                 postinc2 0FDE                  _USBCtrlEPServiceComplete 0D74  
              _USBStatusStageEnabledFlag1 0097                _USBStatusStageEnabledFlag2 0096  
                      USBEnableEndpoint@p 000C                                 _PORTAbits 0F80  
                               _TRISCbits 0F94                        _BothEP0OutUOWNsSet 0098  
               USBConfigureEndpoint@EPNum 0008                                main@RxData 003C  
              ?_USBCtrlEPAllowStatusStage 0001       USER_USB_CALLBACK_EVENT_HANDLER@size 0013  
                               _USTATcopy 005C              __end_of_USBTransferOnePacket 1286  
                          __end_of_LED_On 2406                    _USBCtrlTrfSetupHandler 1FC4  
                       putsUSBUSART@pData 0003                     __end_of_USBDeviceInit 1004  
   __end_of_USBIncrement1msInternalTimers 269C             _USBIncrement1msInternalTimers 2668  
                              LED_Off@led 0003                            __end_of___wmul 2748  
                           ?_putsUSBUSART 0001                            __end_of_memcpy 2512  
                          __end_of_memset 0AD2                         _USBBusIsSuspended 0099  
                     start_initialization 2468                   ?_USBStdGetStatusHandler 0001  
                   __end_of_BUTTON_Enable 26F8             USBCtrlTrfRxService@byteToRead 0002  
                             _cdc_data_rx 0280                               _cdc_data_tx 0240  
            __end_of_USBConfigureEndpoint 1E6C           __end_of_USBStdFeatureReqHandler 036C  
                                ??_LED_On 0001         __end_of_USBCtrlEPAllowStatusStage 1ABE  
                __end_of_USBCtrlEPService 1C58                        UsbPutString03@data 0018  
                      UsbPutString03@keta 001B                            _UsbPutString03 1F1A  
               ??_USBCtrlEPAllowDataStage 0002                               ??_CDCInitEP 000F  
                          USBDeviceInit@i 000D                    _pBDTEntryEP0OutCurrent 0051  
                 USBTransferOnePacket@dir 0001                   USBTransferOnePacket@len 0004  
                                ??___wmul 0005                       _USBStdGetDscHandler 0C24  
                             __pdataBANK0 00AC                                  ??_memcpy 0007  
                                ??_memset 0007                            ??_putsUSBUSART 0003  
                               _PutString 213E                                memset@dest 0001  
                       PutString01@string 0003                         PutString03@string 0016  
                  _USBActiveConfiguration 005D            __end_of_USBStdGetStatusHandler 13A0  
                                ?_LED_Off 0001                               __pbssCOMRAM 003F  
                    ?_USBStdGetDscHandler 0001                                  ?_GetChar 0001  
              __end_of_USBWakeFromSuspend 2632                    __end_of_UsbPutString03 1FC4  
                         _USBStallHandler 22E0                              _pBDTEntryOut 0072  
              __end_of_USBCheckCDCRequest 18DA                          ___lwdiv@dividend 0001  
                               __pintcode 0008                             __pmediumconst 3EC2  
                                ?___lwdiv 0001                                ?_PutString 0001  
                    _USBTransferOnePacket 1148                          main@numBytesRead 003E  
                               _skUSB_ini 15C4              __end_of_USBCtrlTrfOutHandler 20CA  
                   ??_USBStdGetDscHandler 0001                               _ep_data_out 0086  
                        ___lwdiv@quotient 0005             USBConfigureEndpoint@direction 0001  
                         ?_UsbPutString03 0016                            ___wmul@product 0005  
                                _LATCbits 0F8B                ??_USBCtrlEPServiceComplete 0002  
                                _PIE2bits 0FA0                              ?_PutString01 0003  
                            ?_PutString03 0016                              ?_PutStringLF 0001  
                                _PIR1bits 0F9E                                  _PIR2bits 0FA1  
                                _UEP0bits 0F53                _USBDeferINDataStagePackets 0095  
                                _UCONbits 0F64                      _USBConfigureEndpoint 1DBC  
                       ___wmul@multiplier 0001                     ?_USBTransferOnePacket 0001  
                                _CharConv 00AC                         _SYS_InterruptHigh 0008  
                           ?_CDCTxService 0001                                ?_skUSB_ini 0001  
                            _RemoteWakeup 009A                             ??_uint2string 000D  
                      ?_SYS_InterruptHigh 0001                          putsUSBUSART@data 0001  
                 __end_of_USBStallHandler 2342                                 copy_data0 247C  
             ??_USBCtrlEPAllowStatusStage 0001               __end_of_USBStdSetCfgHandler 1BA0  
                     ??_SYS_InterruptHigh 0001                      __end_of_putsUSBUSART 2214  
                      __end_of_device_dsc 3F88                  ??_APP_LEDUpdateUSBStatus 0004  
                 ?_USBCtrlTrfSetupHandler 0001                         UsbPutString03@flg 001A  
                 USBStdGetStatusHandler@p 0003                                  __Hrparam 0000  
                       UsbPutString03@str 0016                                 memcpy@tmp 000B  
                                __Lrparam 0000                    USBTransferOnePacket@ep 0009  
                                _SetupPkt 0230                               GetChar@rxdt 0001  
                   ?_USBConfigureEndpoint 0001                               ??_PutString 0003  
               __end_of_SYS_InterruptHigh 000E                               _line_coding 00A3  
                          ??_CDCTxService 000C                           ___lwdiv@divisor 0003  
                         ___lwdiv@counter 0007                                  __ptext10 25F0  
                                __ptext11 269C                                  __ptext20 13A0  
                                __ptext12 22E0                                  __ptext21 1ABE  
                                __ptext13 2668                                  __ptext30 26CA  
                                __ptext22 095C                                  __ptext14 0EBE  
                                __ptext31 227C                                  __ptext23 1286  
                                __ptext15 1BA0                                  __ptext40 1004  
                                __ptext32 1148                                  __ptext24 0C24  
                                __ptext16 24C2                                  __ptext41 19CE  
                                __ptext33 2512                                  __ptext25 0012  
                                __ptext17 1FC4                                  __ptext50 27B2  
                                __ptext42 16D0                                  __ptext34 1DBC  
                                __ptext26 1D0C                                  __ptext18 0D74  
                                __ptext43 14B4                                  __ptext35 18DA  
                                __ptext27 17D8                                  __ptext19 1E6C  
                                __ptext44 25A8                                  __ptext36 23A4  
                                __ptext28 255E                                  __ptext45 05D6  
                                __ptext37 2406                                  __ptext29 2342  
                                __ptext46 2722                                  __ptext38 276C  
                                __ptext47 20CA                                  __ptext39 2054  
                                __ptext48 26F8                                  __ptext49 213E  
                     __end_of_uint2string 07CC            __end_of_USBCtrlTrfSetupHandler 2054  
                       ?_USBCtrlEPService 0001                        ??_USBCtrlEPService 0020  
                                _skStrlen 2214                       _USBCtrlTrfInHandler 16D0  
                                isa$xinst 0000                       BUTTON_Enable@button 0003  
                                _outPipes 006A                      _USBCtrlTrfOutHandler 2054  
                                int$flags 005E                 _USBCtrlEPAllowStatusStage 19CE  
                              _LED_Enable 2342                    ??_USBTransferOnePacket 0005  
               _USBDeferStatusStagePacket 0055                  CDCTxService@byte_to_send 000D  
                             ??_skUSB_ini 003B                      ?_USBCtrlTrfInHandler 0001  
                                memcpy@d1 0001                                  memcpy@s1 0003  
           USBCtrlTrfTxService@byteToSend 0001                           PutString03@data 0018  
                         PutString03@keta 001C                          ?_USBStallHandler 0001  
                USBStdFeatureReqHandler@p 001C                                  intlevel2 0000  
 __end_of_USER_USB_CALLBACK_EVENT_HANDLER 1DBC         ??_USER_USB_CALLBACK_EVENT_HANDLER 0015  
        ?_USER_USB_CALLBACK_EVENT_HANDLER 000F           _USER_USB_CALLBACK_EVENT_HANDLER 1D0C  
                  ??_USBConfigureEndpoint 0002                     ?_USBCtrlTrfOutHandler 0001  
                     _USBCtrlTrfRxService 1004                        _USBWakeFromSuspend 25F0  
                 _USBStdFeatureReqHandler 0012                        _USBCheckCDCRequest 17D8  
                     _USBCtrlTrfTxService 14B4                            PutString01@flg 0005  
                          PutString03@flg 001A                            PutString03@buf 001E  
                     ?_USBWakeFromSuspend 0001                     ??_USBCtrlTrfInHandler 0002  
                   _USBAlternateInterface 00AA                       ?_USBCheckCDCRequest 0001  
                         PutString@string 0001                       USBEnableEndpoint@ep 000E  
                             _uint2string 05D6                           _endpoint_number 0057  
                        ??_UsbPutString03 001C                      ?_USBCtrlTrfRxService 0001  
                           ?_getsUSBUSART 000C                  ?_USBCtrlEPAllowDataStage 0001  
                    ?_USBCtrlTrfTxService 0001              _USBStatusStageTimeoutCounter 0056  
                    ??_USBWakeFromSuspend 0017                USBTransferOnePacket@handle 000A  
                    __end_of_CDCTxService 095C                      ??_USBCheckCDCRequest 0001  
                              _USB_CD_Ptr 3EC9  
