

Microchip MPLAB XC8 Assembler V2.41 build 20230208172133 
                                                                                               Wed Apr 26 13:31:28 2023

Microchip MPLAB XC8 C Compiler v2.41 (Free license) build 20230208172133 Og1 
     1                           	processor	18F14K50
     2                           	fnconf	rparam,??,?,0
     3                           	pagewidth 120
     4                           	opt	flic
     5                           	psect	idataBANK0,global,class=CODE,delta=1,noexec
     6                           	psect	smallconst,global,reloc=2,class=SMALLCONST,delta=1,noexec
     7                           	psect	cinit,global,reloc=2,class=CODE,delta=1
     8                           	psect	bssCOMRAM,global,class=COMRAM,space=1,delta=1,lowdata,noexec
     9                           	psect	bssBANK0,global,class=BANK0,space=1,delta=1,lowdata,noexec
    10                           	psect	dataBANK0,global,class=BANK0,space=1,delta=1,lowdata,noexec
    11                           	psect	bssBANK1,global,class=BANK1,space=1,delta=1,lowdata,noexec
    12                           	psect	cstackCOMRAM,global,class=COMRAM,space=1,delta=1,lowdata,noexec
    13                           	psect	text0,global,reloc=2,class=CODE,delta=1
    14                           	psect	text1,global,reloc=2,class=CODE,delta=1
    15                           	psect	text2,global,reloc=2,class=CODE,delta=1
    16                           	psect	text3,global,reloc=2,class=CODE,delta=1
    17                           	psect	text4,global,reloc=2,class=CODE,delta=1
    18                           	psect	text5,global,reloc=2,class=CODE,delta=1
    19                           	psect	text6,global,reloc=2,class=CODE,delta=1
    20                           	psect	text7,global,reloc=2,class=CODE,delta=1
    21                           	psect	text8,global,reloc=2,class=CODE,delta=1,group=2
    22                           	psect	text9,global,reloc=2,class=CODE,delta=1
    23                           	psect	text10,global,reloc=2,class=CODE,delta=1
    24                           	psect	text11,global,reloc=2,class=CODE,delta=1
    25                           	psect	text12,global,reloc=2,class=CODE,delta=1
    26                           	psect	text13,global,reloc=2,class=CODE,delta=1
    27                           	psect	text14,global,reloc=2,class=CODE,delta=1,group=2
    28                           	psect	text15,global,reloc=2,class=CODE,delta=1
    29                           	psect	text16,global,reloc=2,class=CODE,delta=1
    30                           	psect	text17,global,reloc=2,class=CODE,delta=1
    31                           	psect	text18,global,reloc=2,class=CODE,delta=1
    32                           	psect	text19,global,reloc=2,class=CODE,delta=1
    33                           	psect	text20,global,reloc=2,class=CODE,delta=1
    34                           	psect	text21,global,reloc=2,class=CODE,delta=1
    35                           	psect	text22,global,reloc=2,class=CODE,delta=1
    36                           	psect	text23,global,reloc=2,class=CODE,delta=1
    37                           	psect	text24,global,reloc=2,class=CODE,delta=1
    38                           	psect	text25,global,reloc=2,class=CODE,delta=1
    39                           	psect	text26,global,reloc=2,class=CODE,delta=1
    40                           	psect	text27,global,reloc=2,class=CODE,delta=1
    41                           	psect	text28,global,reloc=2,class=CODE,delta=1
    42                           	psect	text29,global,reloc=2,class=CODE,delta=1
    43                           	psect	text30,global,reloc=2,class=CODE,delta=1
    44                           	psect	text31,global,reloc=2,class=CODE,delta=1
    45                           	psect	text32,global,reloc=2,class=CODE,delta=1
    46                           	psect	text33,global,reloc=2,class=CODE,delta=1
    47                           	psect	text34,global,reloc=2,class=CODE,delta=1
    48                           	psect	text35,global,reloc=2,class=CODE,delta=1
    49                           	psect	text36,global,reloc=2,class=CODE,delta=1
    50                           	psect	text37,global,reloc=2,class=CODE,delta=1
    51                           	psect	text38,global,reloc=2,class=CODE,delta=1
    52                           	psect	text39,global,reloc=2,class=CODE,delta=1
    53                           	psect	intcode,global,reloc=2,class=CODE,delta=1
    54                           	psect	intsave_regs,global,class=BIGRAM,space=1,delta=1,noexec
    55                           	psect	rparam,global,class=COMRAM,space=1,delta=1,noexec
    56                           	psect	temp,global,ovrld,common,class=COMRAM,space=1,delta=1
    57                           	psect	idloc,global,abs,ovrld,class=IDLOC,space=5,delta=1,noexec
    58                           	psect	config,global,abs,ovrld,class=CONFIG,space=4,delta=1,noexec
    59                           	dabs	1,0x200,48,_BDT
    60                           	dabs	1,0x280,64,_cdc_data_rx
    61                           	dabs	1,0x240,64,_cdc_data_tx
    62                           	dabs	1,0x238,8,_CtrlTrfData
    63                           	dabs	1,0x230,8,_SetupPkt
    64   000000                     
    65                           ; Generated 06/04/2022 GMT
    66                           ; 
    67                           ; Copyright © 2022, Microchip Technology Inc. and its subsidiaries ("Microchip")
    68                           ; All rights reserved.
    69                           ; 
    70                           ; This software is developed by Microchip Technology Inc. and its subsidiaries ("Microch
      +                          ip").
    71                           ; 
    72                           ; Redistribution and use in source and binary forms, with or without modification, are
    73                           ; permitted provided that the following conditions are met:
    74                           ; 
    75                           ;     1. Redistributions of source code must retain the above copyright notice, this lis
      +                          t of
    76                           ;        conditions and the following disclaimer.
    77                           ; 
    78                           ;     2. Redistributions in binary form must reproduce the above copyright notice, this 
      +                          list
    79                           ;        of conditions and the following disclaimer in the documentation and/or other
    80                           ;        materials provided with the distribution. Publication is not required when
    81                           ;        this file is used in an embedded application.
    82                           ; 
    83                           ;     3. Microchip's name may not be used to endorse or promote products derived from th
      +                          is
    84                           ;        software without specific prior written permission.
    85                           ; 
    86                           ; THIS SOFTWARE IS PROVIDED BY MICROCHIP "AS IS" AND ANY EXPRESS OR IMPLIED WARRANTIES,
    87                           ; INCLUDING, BUT NOT LIMITED TO, THE IMPLIED WARRANTIES OF MERCHANTABILITY AND FITNESS F
      +                          OR
    88                           ; PURPOSE ARE DISCLAIMED.  IN NO EVENT SHALL MICROCHIP BE LIABLE FOR ANY DIRECT, INDIREC
      +                          T,
    89                           ; INCIDENTAL, SPECIAL, EXEMPLARY, OR CONSEQUENTIAL DAMAGES (INCLUDING BUT NOT LIMITED TO
    90                           ; PROCUREMENT OF SUBSTITUTE GOODS OR SERVICES; LOSS OF USE, DATA OR PROFITS; OR BUSINESS
    91                           ; INTERRUPTION) HOWSOEVER CAUSED AND ON ANY THEORY OF LIABILITY, WHETHER IN CONTRACT, ST
      +                          RICT
    92                           ; LIABILITY, OR TORT (INCLUDING NEGLIGENCE OR OTHERWISE) ARISING IN ANY WAY OUT OF THE U
      +                          SE OF
    93                           ; THIS SOFTWARE, EVEN IF ADVISED OF THE POSSIBILITY OF SUCH DAMAGE.
    94                           ; 
    95                           ; 
    96                           ; Code-generator required, PIC18F14K50 Definitions
    97                           ; 
    98                           ; SFR Addresses
    99   000000                     
   100                           	psect	idataBANK0
   101   0024C6                     __pidataBANK0:
   102                           	callstack 0
   103                           
   104                           ;initializer for _buttonMessage
   105   0024C6  42                 	db	66
   106   0024C7  75                 	db	117
   107   0024C8  74                 	db	116
   108   0024C9  74                 	db	116
   109   0024CA  6F                 	db	111
   110   0024CB  6E                 	db	110
   111   0024CC  20                 	db	32
   112   0024CD  70                 	db	112
   113   0024CE  72                 	db	114
   114   0024CF  65                 	db	101
   115   0024D0  73                 	db	115
   116   0024D1  73                 	db	115
   117   0024D2  65                 	db	101
   118   0024D3  64                 	db	100
   119   0024D4  2E                 	db	46
   120   0024D5  0D                 	db	13
   121   0024D6  0A                 	db	10
   122   0024D7  00                 	db	0
   123                           
   124                           	psect	smallconst
   125   000300                     __psmallconst:
   126                           	callstack 0
   127   000300  00                 	db	0
   128   000301                     _USB_SD_Ptr:
   129                           	callstack 0
   130   000301  C6                 	db	low _sd000
   131   000302  03                 	db	high _sd000
   132   000303  80                 	db	low _sd001
   133   000304  03                 	db	high _sd001
   134   000305  4C                 	db	low _sd002
   135   000306  03                 	db	high _sd002
   136   000307                     __end_of_USB_SD_Ptr:
   137                           	callstack 0
   138   000307                     _USB_CD_Ptr:
   139                           	callstack 0
   140   000307  09                 	db	low _configDescriptor1
   141   000308  03                 	db	high _configDescriptor1
   142   000309                     __end_of_USB_CD_Ptr:
   143                           	callstack 0
   144   000309                     _configDescriptor1:
   145                           	callstack 0
   146   000309  09                 	db	9
   147   00030A  02                 	db	2
   148   00030B  43                 	db	67
   149   00030C  00                 	db	0
   150   00030D  02                 	db	2
   151   00030E  01                 	db	1
   152   00030F  00                 	db	0
   153   000310  C0                 	db	192
   154   000311  32                 	db	50
   155   000312  09                 	db	9
   156   000313  04                 	db	4
   157   000314  00                 	db	0
   158   000315  00                 	db	0
   159   000316  01                 	db	1
   160   000317  02                 	db	2
   161   000318  02                 	db	2
   162   000319  01                 	db	1
   163   00031A  00                 	db	0
   164   00031B  05                 	db	5
   165   00031C  24                 	db	36
   166   00031D  00                 	db	0
   167   00031E  10                 	db	16
   168   00031F  01                 	db	1
   169   000320  04                 	db	4
   170   000321  24                 	db	36
   171   000322  02                 	db	2
   172   000323  02                 	db	2
   173   000324  05                 	db	5
   174   000325  24                 	db	36
   175   000326  06                 	db	6
   176   000327  00                 	db	0
   177   000328  01                 	db	1
   178   000329  05                 	db	5
   179   00032A  24                 	db	36
   180   00032B  01                 	db	1
   181   00032C  00                 	db	0
   182   00032D  01                 	db	1
   183   00032E  07                 	db	7
   184   00032F  05                 	db	5
   185   000330  81                 	db	129
   186   000331  03                 	db	3
   187   000332  0A                 	db	10
   188   000333  00                 	db	0
   189   000334  02                 	db	2
   190   000335  09                 	db	9
   191   000336  04                 	db	4
   192   000337  01                 	db	1
   193   000338  00                 	db	0
   194   000339  02                 	db	2
   195   00033A  0A                 	db	10
   196   00033B  00                 	db	0
   197   00033C  00                 	db	0
   198   00033D  00                 	db	0
   199   00033E  07                 	db	7
   200   00033F  05                 	db	5
   201   000340  02                 	db	2
   202   000341  02                 	db	2
   203   000342  40                 	db	64
   204   000343  00                 	db	0
   205   000344  00                 	db	0
   206   000345  07                 	db	7
   207   000346  05                 	db	5
   208   000347  82                 	db	130
   209   000348  02                 	db	2
   210   000349  40                 	db	64
   211   00034A  00                 	db	0
   212   00034B  00                 	db	0
   213   00034C                     __end_of_configDescriptor1:
   214                           	callstack 0
   215   00034C                     _sd002:
   216                           	callstack 0
   217   00034C  34                 	db	52
   218   00034D  03                 	db	3
   219   00034E  0043               	dw	67
   220   000350  0044               	dw	68
   221   000352  0043               	dw	67
   222   000354  0020               	dw	32
   223   000356  0052               	dw	82
   224   000358  0053               	dw	83
   225   00035A  002D               	dw	45
   226   00035C  0032               	dw	50
   227   00035E  0033               	dw	51
   228   000360  0032               	dw	50
   229   000362  0020               	dw	32
   230   000364  0045               	dw	69
   231   000366  006D               	dw	109
   232   000368  0075               	dw	117
   233   00036A  006C               	dw	108
   234   00036C  0061               	dw	97
   235   00036E  0074               	dw	116
   236   000370  0069               	dw	105
   237   000372  006F               	dw	111
   238   000374  006E               	dw	110
   239   000376  0020               	dw	32
   240   000378  0044               	dw	68
   241   00037A  0065               	dw	101
   242   00037C  006D               	dw	109
   243   00037E  006F               	dw	111
   244   000380                     __end_of_sd002:
   245                           	callstack 0
   246   000380                     _sd001:
   247                           	callstack 0
   248   000380  34                 	db	52
   249   000381  03                 	db	3
   250   000382  004D               	dw	77
   251   000384  0069               	dw	105
   252   000386  0063               	dw	99
   253   000388  0072               	dw	114
   254   00038A  006F               	dw	111
   255   00038C  0063               	dw	99
   256   00038E  0068               	dw	104
   257   000390  0069               	dw	105
   258   000392  0070               	dw	112
   259   000394  0020               	dw	32
   260   000396  0054               	dw	84
   261   000398  0065               	dw	101
   262   00039A  0063               	dw	99
   263   00039C  0068               	dw	104
   264   00039E  006E               	dw	110
   265   0003A0  006F               	dw	111
   266   0003A2  006C               	dw	108
   267   0003A4  006F               	dw	111
   268   0003A6  0067               	dw	103
   269   0003A8  0079               	dw	121
   270   0003AA  0020               	dw	32
   271   0003AC  0049               	dw	73
   272   0003AE  006E               	dw	110
   273   0003B0  0063               	dw	99
   274   0003B2  002E               	dw	46
   275   0003B4                     __end_of_sd001:
   276                           	callstack 0
   277   0003B4                     _device_dsc:
   278                           	callstack 0
   279   0003B4  12                 	db	18
   280   0003B5  01                 	db	1
   281   0003B6  0200               	dw	512
   282   0003B8  02                 	db	2
   283   0003B9  00                 	db	0
   284   0003BA  00                 	db	0
   285   0003BB  08                 	db	8
   286   0003BC  04D8               	dw	1240
   287   0003BE  000A               	dw	10
   288   0003C0  0100               	dw	256
   289   0003C2  01                 	db	1
   290   0003C3  02                 	db	2
   291   0003C4  00                 	db	0
   292   0003C5  01                 	db	1
   293   0003C6                     __end_of_device_dsc:
   294                           	callstack 0
   295   0003C6                     _sd000:
   296                           	callstack 0
   297   0003C6  04                 	db	4
   298   0003C7  03                 	db	3
   299   0003C8  0409               	dw	1033
   300   0003CA                     __end_of_sd000:
   301                           	callstack 0
   302   000000                     _USTAT	set	3939
   303   000000                     _UIE	set	3936
   304   000000                     _UCFG	set	3937
   305   000000                     _UIR	set	3938
   306   000000                     _TRISB	set	3987
   307   000000                     _ANSELH	set	3967
   308   000000                     _UEP0bits	set	3923
   309   000000                     _UIEbits	set	3936
   310   000000                     _UCON	set	3940
   311   000000                     _UIRbits	set	3938
   312   000000                     _PORTA	set	3968
   313   000000                     _TRISC	set	3988
   314   000000                     _UEIE	set	3931
   315   000000                     _UEIR	set	3935
   316   000000                     _UCONbits	set	3940
   317   000000                     _UEP1	set	3924
   318   000000                     _UEP0	set	3923
   319   000000                     _ANSEL	set	3966
   320   000000                     _PORTAbits	set	3968
   321   000000                     _PORTC	set	3970
   322   000000                     _PORTB	set	3969
   323   000000                     _LATCbits	set	3979
   324   000000                     _TRISA	set	3986
   325   000000                     _TRISCbits	set	3988
   326   000000                     _PIE2bits	set	4000
   327   000000                     _OSCCON	set	4051
   328   000000                     _PIR2bits	set	4001
   329   000000                     _UADDR	set	3932
   330   0003CA  00                 	db	0	; dummy byte at the end
   331   000000                     
   332                           ; #config settings
   333                           
   334                           	psect	cinit
   335   002240                     __pcinit:
   336                           	callstack 0
   337   002240                     start_initialization:
   338                           	callstack 0
   339   002240                     __initialization:
   340                           	callstack 0
   341                           
   342                           ; Initialize objects allocated to BANK0 (18 bytes)
   343                           ; load TBLPTR registers with __pidataBANK0
   344   002240  0EC6               	movlw	low __pidataBANK0
   345   002242  6EF6               	movwf	tblptrl,c
   346   002244  0E24               	movlw	high __pidataBANK0
   347   002246  6EF7               	movwf	tblptrh,c
   348   002248  0E00               	movlw	low (__pidataBANK0 shr (0+16))
   349   00224A  6EF8               	movwf	tblptru,c
   350   00224C  EE00  F0D0         	lfsr	0,__pdataBANK0
   351   002250  EE10 F012          	lfsr	1,18
   352   002254                     copy_data0:
   353   002254  0009               	tblrd		*+
   354   002256  CFF5 FFEE          	movff	tablat,postinc0
   355   00225A  50E5               	movf	postdec1,w,c
   356   00225C  50E1               	movf	fsr1l,w,c
   357   00225E  E1FA               	bnz	copy_data0
   358                           
   359                           ; Clear objects allocated to BANK1 (192 bytes)
   360   002260  EE01  F000         	lfsr	0,__pbssBANK1
   361   002264  0EC0               	movlw	192
   362   002266                     clear_0:
   363   002266  6AEE               	clrf	postinc0,c
   364   002268  06E8               	decf	wreg,f,c
   365   00226A  E1FD               	bnz	clear_0
   366                           
   367                           ; Clear objects allocated to BANK0 (112 bytes)
   368   00226C  EE00  F060         	lfsr	0,__pbssBANK0
   369   002270  0E70               	movlw	112
   370   002272                     clear_1:
   371   002272  6AEE               	clrf	postinc0,c
   372   002274  06E8               	decf	wreg,f,c
   373   002276  E1FD               	bnz	clear_1
   374                           
   375                           ; Clear objects allocated to COMRAM (59 bytes)
   376   002278  EE00  F001         	lfsr	0,__pbssCOMRAM
   377   00227C  0E3B               	movlw	59
   378   00227E                     clear_2:
   379   00227E  6AEE               	clrf	postinc0,c
   380   002280  06E8               	decf	wreg,f,c
   381   002282  E1FD               	bnz	clear_2
   382   002284                     end_of_initialization:
   383                           	callstack 0
   384   002284                     __end_of__initialization:
   385                           	callstack 0
   386   002284  905D               	bcf	int$flags,0,c	;clear compiler interrupt flag (level 1)
   387   002286  925D               	bcf	int$flags,1,c	;clear compiler interrupt flag (level 2)
   388   002288  0E00               	movlw	low (__Lmediumconst shr (0+16))
   389   00228A  6EF8               	movwf	tblptru,c
   390   00228C  0100               	movlb	0
   391   00228E  EFDB  F011         	goto	_main	;jump to C main() function
   392                           
   393                           	psect	bssCOMRAM
   394   000001                     __pbssCOMRAM:
   395                           	callstack 0
   396   000001                     _outPipes:
   397                           	callstack 0
   398   000001                     	ds	8
   399   000009                     _inPipes:
   400                           	callstack 0
   401   000009                     	ds	6
   402   00000F                     _pBDTEntryIn:
   403                           	callstack 0
   404   00000F                     	ds	6
   405   000015                     _ep_data_in:
   406                           	callstack 0
   407   000015                     	ds	3
   408   000018                     _CDCDataInHandle:
   409                           	callstack 0
   410   000018                     	ds	2
   411   00001A                     _CDCDataOutHandle:
   412                           	callstack 0
   413   00001A                     	ds	2
   414   00001C                     _pDst:
   415                           	callstack 0
   416   00001C                     	ds	2
   417   00001E                     _pBDTEntryEP0OutNext:
   418                           	callstack 0
   419   00001E                     	ds	2
   420   000020                     _pBDTEntryEP0OutCurrent:
   421                           	callstack 0
   422   000020                     	ds	2
   423   000022                     APP_LEDUpdateUSBStatus@ledCount:
   424                           	callstack 0
   425   000022                     	ds	2
   426   000024                     _control_signal_bitmap:
   427                           	callstack 0
   428   000024                     	ds	1
   429   000025                     _cdc_mem_type:
   430                           	callstack 0
   431   000025                     	ds	1
   432   000026                     _cdc_tx_len:
   433                           	callstack 0
   434   000026                     	ds	1
   435   000027                     _cdc_rx_len:
   436                           	callstack 0
   437   000027                     	ds	1
   438   000028                     _USBTicksSinceSuspendEnd:
   439                           	callstack 0
   440   000028                     	ds	1
   441   000029                     _USBDeferOUTDataStagePackets:
   442                           	callstack 0
   443   000029                     	ds	1
   444   00002A                     _USBDeferINDataStagePackets:
   445                           	callstack 0
   446   00002A                     	ds	1
   447   00002B                     _USBStatusStageEnabledFlag2:
   448                           	callstack 0
   449   00002B                     	ds	1
   450   00002C                     _USBStatusStageEnabledFlag1:
   451                           	callstack 0
   452   00002C                     	ds	1
   453   00002D                     _USBDeferStatusStagePacket:
   454                           	callstack 0
   455   00002D                     	ds	1
   456   00002E                     _USBStatusStageTimeoutCounter:
   457                           	callstack 0
   458   00002E                     	ds	1
   459   00002F                     _BothEP0OutUOWNsSet:
   460                           	callstack 0
   461   00002F                     	ds	1
   462   000030                     _endpoint_number:
   463                           	callstack 0
   464   000030                     	ds	1
   465   000031                     _USBBusIsSuspended:
   466                           	callstack 0
   467   000031                     	ds	1
   468   000032                     _RemoteWakeup:
   469                           	callstack 0
   470   000032                     	ds	1
   471   000033                     _controlTransferState:
   472                           	callstack 0
   473   000033                     	ds	1
   474   000034                     _shortPacketStatus:
   475                           	callstack 0
   476   000034                     	ds	1
   477   000035                     _buttonPressed:
   478                           	callstack 0
   479   000035                     	ds	1
   480   000036                     _cdc_trf_state:
   481                           	callstack 0
   482   000036                     	ds	1
   483   000037                     _USBDeviceState:
   484                           	callstack 0
   485   000037                     	ds	1
   486   000038                     _USBAlternateInterface:
   487                           	callstack 0
   488   000038                     	ds	2
   489   00003A                     _USTATcopy:
   490                           	callstack 0
   491   00003A                     	ds	1
   492   00003B                     _USBActiveConfiguration:
   493                           	callstack 0
   494   00003B                     	ds	1
   495                           
   496                           	psect	bssBANK0
   497   000060                     __pbssBANK0:
   498                           	callstack 0
   499   000060                     _cdc_notice:
   500                           	callstack 0
   501   000060                     	ds	10
   502   00006A                     _pBDTEntryOut:
   503                           	callstack 0
   504   00006A                     	ds	6
   505   000070                     _BaudRateGen:
   506                           	callstack 0
   507   000070                     	ds	4
   508   000074                     _USB1msTickCount:
   509                           	callstack 0
   510   000074                     	ds	4
   511   000078                     _pCDCDst:
   512                           	callstack 0
   513   000078                     	ds	3
   514   00007B                     _pCDCSrc:
   515                           	callstack 0
   516   00007B                     	ds	3
   517   00007E                     _ep_data_out:
   518                           	callstack 0
   519   00007E                     	ds	3
   520   000081                     _readBuffer:
   521                           	callstack 0
   522   000081                     	ds	64
   523   0000C1                     _dummy_encapsulated_cmd_response:
   524                           	callstack 0
   525   0000C1                     	ds	8
   526   0000C9                     _line_coding:
   527                           	callstack 0
   528   0000C9                     	ds	7
   529                           
   530                           	psect	dataBANK0
   531   0000D0                     __pdataBANK0:
   532                           	callstack 0
   533   0000D0                     _buttonMessage:
   534                           	callstack 0
   535   0000D0                     	ds	18
   536                           
   537                           	psect	bssBANK1
   538   000100                     __pbssBANK1:
   539                           	callstack 0
   540   000100                     _USB_Out_Buffer:
   541                           	callstack 0
   542   000100                     	ds	64
   543   000140                     _USB_In_Buffer:
   544                           	callstack 0
   545   000140                     	ds	64
   546   000180                     _writeBuffer:
   547                           	callstack 0
   548   000180                     	ds	64
   549                           
   550                           	psect	cstackCOMRAM
   551   00003C                     __pcstackCOMRAM:
   552                           	callstack 0
   553   00003C                     ??_LED_Off:
   554   00003C                     ??_LED_On:
   555   00003C                     ??_BUTTON_Enable:
   556   00003C                     ??_LED_Enable:
   557   00003C                     ??_USBStdGetDscHandler:
   558   00003C                     ??_USBStdGetStatusHandler:
   559   00003C                     ??_USBCheckCDCRequest:
   560   00003C                     ?_USBTransferOnePacket:
   561                           	callstack 0
   562   00003C                     USBTransferOnePacket@dir:
   563                           	callstack 0
   564   00003C                     USBConfigureEndpoint@direction:
   565                           	callstack 0
   566   00003C                     USBCtrlTrfTxService@byteToSend:
   567                           	callstack 0
   568   00003C                     USBCtrlTrfRxService@i:
   569                           	callstack 0
   570   00003C                     putUSBUSART@data:
   571                           	callstack 0
   572   00003C                     memcpy@d1:
   573                           	callstack 0
   574   00003C                     memset@dest:
   575                           	callstack 0
   576                           
   577                           ; 2 bytes @ 0x0
   578   00003C                     	ds	1
   579   00003D                     ??_USBConfigureEndpoint:
   580   00003D                     USBCtrlTrfRxService@byteToRead:
   581                           	callstack 0
   582   00003D                     USBCtrlTrfInHandler@lastDTS:
   583                           	callstack 0
   584   00003D                     USBTransferOnePacket@data:
   585                           	callstack 0
   586                           
   587                           ; 2 bytes @ 0x1
   588   00003D                     	ds	1
   589   00003E                     BUTTON_Enable@button:
   590                           	callstack 0
   591   00003E                     LED_On@led:
   592                           	callstack 0
   593   00003E                     LED_Off@led:
   594                           	callstack 0
   595   00003E                     LED_Enable@led:
   596                           	callstack 0
   597   00003E                     putUSBUSART@length:
   598                           	callstack 0
   599   00003E                     USBStdGetStatusHandler@p:
   600                           	callstack 0
   601   00003E                     memcpy@s1:
   602                           	callstack 0
   603   00003E                     memset@c:
   604                           	callstack 0
   605                           
   606                           ; 2 bytes @ 0x2
   607   00003E                     	ds	1
   608   00003F                     ??_APP_LEDUpdateUSBStatus:
   609   00003F                     ??_SYSTEM_Initialize:
   610   00003F                     USBTransferOnePacket@len:
   611                           	callstack 0
   612                           
   613                           ; 1 bytes @ 0x3
   614   00003F                     	ds	1
   615   000040                     ??_USBTransferOnePacket:
   616   000040                     memcpy@n:
   617                           	callstack 0
   618   000040                     memset@n:
   619                           	callstack 0
   620                           
   621                           ; 2 bytes @ 0x4
   622   000040                     	ds	1
   623   000041                     SYSTEM_Initialize@state:
   624                           	callstack 0
   625                           
   626                           ; 1 bytes @ 0x5
   627   000041                     	ds	1
   628   000042                     ??_memset:
   629   000042                     memcpy@d:
   630                           	callstack 0
   631                           
   632                           ; 2 bytes @ 0x6
   633   000042                     	ds	1
   634   000043                     USBConfigureEndpoint@EPNum:
   635                           	callstack 0
   636                           
   637                           ; 1 bytes @ 0x7
   638   000043                     	ds	1
   639   000044                     USBTransferOnePacket@ep:
   640                           	callstack 0
   641   000044                     USBConfigureEndpoint@handle:
   642                           	callstack 0
   643   000044                     memcpy@s:
   644                           	callstack 0
   645   000044                     memset@k:
   646                           	callstack 0
   647                           
   648                           ; 2 bytes @ 0x8
   649   000044                     	ds	1
   650   000045                     USBTransferOnePacket@handle:
   651                           	callstack 0
   652                           
   653                           ; 2 bytes @ 0x9
   654   000045                     	ds	1
   655   000046                     USBEnableEndpoint@options:
   656                           	callstack 0
   657   000046                     memcpy@tmp:
   658                           	callstack 0
   659   000046                     memset@s:
   660                           	callstack 0
   661                           
   662                           ; 2 bytes @ 0xA
   663   000046                     	ds	1
   664   000047                     CDCTxService@i:
   665                           	callstack 0
   666   000047                     USBEnableEndpoint@p:
   667                           	callstack 0
   668   000047                     getsUSBUSART@buffer:
   669                           	callstack 0
   670                           
   671                           ; 2 bytes @ 0xB
   672   000047                     	ds	1
   673   000048                     USBDeviceInit@i:
   674                           	callstack 0
   675   000048                     CDCTxService@byte_to_send:
   676                           	callstack 0
   677                           
   678                           ; 1 bytes @ 0xC
   679   000048                     	ds	1
   680   000049                     USBEnableEndpoint@ep:
   681                           	callstack 0
   682   000049                     getsUSBUSART@len:
   683                           	callstack 0
   684                           
   685                           ; 1 bytes @ 0xD
   686   000049                     	ds	1
   687   00004A                     USER_USB_CALLBACK_EVENT_HANDLER@event:
   688                           	callstack 0
   689                           
   690                           ; 2 bytes @ 0xE
   691   00004A                     	ds	1
   692   00004B                     ??_ProcessUSB:
   693                           
   694                           ; 1 bytes @ 0xF
   695   00004B                     	ds	1
   696   00004C                     USER_USB_CALLBACK_EVENT_HANDLER@pdata:
   697                           	callstack 0
   698                           
   699                           ; 2 bytes @ 0x10
   700   00004C                     	ds	1
   701   00004D                     ProcessUSB@numBytesRead:
   702                           	callstack 0
   703                           
   704                           ; 1 bytes @ 0x11
   705   00004D                     	ds	1
   706   00004E                     ProcessUSB@i:
   707                           	callstack 0
   708   00004E                     USER_USB_CALLBACK_EVENT_HANDLER@size:
   709                           	callstack 0
   710                           
   711                           ; 2 bytes @ 0x12
   712   00004E                     	ds	2
   713   000050                     ??_USER_USB_CALLBACK_EVENT_HANDLER:
   714                           
   715                           ; 1 bytes @ 0x14
   716   000050                     	ds	2
   717   000052                     ??_USBStdFeatureReqHandler:
   718   000052                     USBStdSetCfgHandler@i:
   719                           	callstack 0
   720                           
   721                           ; 1 bytes @ 0x16
   722   000052                     	ds	2
   723   000054                     USBStdFeatureReqHandler@pUEP:
   724                           	callstack 0
   725                           
   726                           ; 2 bytes @ 0x18
   727   000054                     	ds	2
   728   000056                     USBStdFeatureReqHandler@current_ep_data:
   729                           	callstack 0
   730                           
   731                           ; 1 bytes @ 0x1A
   732   000056                     	ds	1
   733   000057                     USBStdFeatureReqHandler@p:
   734                           	callstack 0
   735                           
   736                           ; 2 bytes @ 0x1B
   737   000057                     	ds	2
   738   000059                     ??_USBCheckStdRequest:
   739                           
   740                           ; 1 bytes @ 0x1D
   741   000059                     	ds	2
   742   00005B                     ??_USBCtrlEPService:
   743   00005B                     
   744                           ; 1 bytes @ 0x1F
   745   00005B                     	ds	1
   746   00005C                     USBDeviceTasks@i:
   747                           	callstack 0
   748                           
   749                           ; 1 bytes @ 0x20
   750   00005C                     	ds	1
   751   00005D                     
   752                           ; 1 bytes @ 0x21
   753 ;;
   754 ;;Main: autosize = 0, tempsize = 0, incstack = 0, save=0
   755 ;;
   756 ;; *************** function _main *****************
   757 ;; Defined at:
   758 ;;		line 98 in file "main.c"
   759 ;; Parameters:    Size  Location     Type
   760 ;;		None
   761 ;; Auto vars:     Size  Location     Type
   762 ;;		None
   763 ;; Return value:  Size  Location     Type
   764 ;;                  1    wreg      void 
   765 ;; Registers used:
   766 ;;		wreg, fsr0l, fsr0h, fsr1l, fsr1h, fsr2l, fsr2h, status,2, status,0, tblptrl, tblptrh, tblptru, prodl, prodh, cstack
   767 ;; Tracked objects:
   768 ;;		On entry : 0/0
   769 ;;		On exit  : 0/0
   770 ;;		Unchanged: 0/0
   771 ;; Data sizes:     COMRAM   BANK0   BANK1   BANK2
   772 ;;      Params:         0       0       0       0
   773 ;;      Locals:         0       0       0       0
   774 ;;      Temps:          0       0       0       0
   775 ;;      Totals:         0       0       0       0
   776 ;;Total ram usage:        0 bytes
   777 ;; Hardware stack levels required when called: 10
   778 ;; This function calls:
   779 ;;		_ProcessUSB
   780 ;;		_USBDeviceInit
   781 ;;		_USBDeviceTasks
   782 ;; This function is called by:
   783 ;;		Startup code after reset
   784 ;; This function uses a non-reentrant model
   785 ;;
   786                           
   787                           	psect	text0
   788   0023B6                     __ptext0:
   789                           	callstack 0
   790   0023B6                     _main:
   791                           	callstack 21
   792   0023B6                     
   793                           ;main.c: 101:      OSCCON = 0b00000000 ;
   794   0023B6  0E00               	movlw	0
   795   0023B8  6ED3               	movwf	211,c	;volatile
   796                           
   797                           ;main.c: 102:      ANSEL = 0b00000000 ;
   798   0023BA  0E00               	movlw	0
   799   0023BC  6E7E               	movwf	126,c	;volatile
   800                           
   801                           ;main.c: 103:      ANSELH = 0b00000000 ;
   802   0023BE  0E00               	movlw	0
   803   0023C0  6E7F               	movwf	127,c	;volatile
   804                           
   805                           ;main.c: 104:      TRISA = 0b00000000 ;
   806   0023C2  0E00               	movlw	0
   807   0023C4  6E92               	movwf	146,c	;volatile
   808                           
   809                           ;main.c: 105:      TRISB = 0b00000000 ;
   810   0023C6  0E00               	movlw	0
   811   0023C8  6E93               	movwf	147,c	;volatile
   812                           
   813                           ;main.c: 106:      TRISC = 0b00000000 ;
   814   0023CA  0E00               	movlw	0
   815   0023CC  6E94               	movwf	148,c	;volatile
   816                           
   817                           ;main.c: 107:      PORTA = 0b00000000 ;
   818   0023CE  0E00               	movlw	0
   819   0023D0  6E80               	movwf	128,c	;volatile
   820                           
   821                           ;main.c: 108:      PORTB = 0b00000000 ;
   822   0023D2  0E00               	movlw	0
   823   0023D4  6E81               	movwf	129,c	;volatile
   824                           
   825                           ;main.c: 109:      PORTC = 0b00000000 ;
   826   0023D6  0E00               	movlw	0
   827   0023D8  6E82               	movwf	130,c	;volatile
   828   0023DA                     
   829                           ;main.c: 111:      USBDeviceInit() ;
   830   0023DA  ECED  F006         	call	_USBDeviceInit	;wreg free
   831   0023DE                     l4425:
   832                           
   833                           ;main.c: 122:                USBDeviceTasks() ;
   834   0023DE  EC8E  F003         	call	_USBDeviceTasks	;wreg free
   835   0023E2                     
   836                           ;main.c: 125:           ProcessUSB() ;
   837   0023E2  EC0C  F00C         	call	_ProcessUSB	;wreg free
   838   0023E6  EFEF  F011         	goto	l4425
   839   0023EA  EF07  F000         	goto	start
   840   0023EE                     __end_of_main:
   841                           	callstack 0
   842                           
   843 ;; *************** function _USBDeviceTasks *****************
   844 ;; Defined at:
   845 ;;		line 481 in file "usb_device.c"
   846 ;; Parameters:    Size  Location     Type
   847 ;;		None
   848 ;; Auto vars:     Size  Location     Type
   849 ;;  i               1   32[COMRAM] unsigned char 
   850 ;; Return value:  Size  Location     Type
   851 ;;                  1    wreg      void 
   852 ;; Registers used:
   853 ;;		wreg, fsr0l, fsr0h, fsr1l, fsr1h, fsr2l, fsr2h, status,2, status,0, tblptrl, tblptrh, tblptru, prodl, prodh, cstack
   854 ;; Tracked objects:
   855 ;;		On entry : 0/0
   856 ;;		On exit  : 0/0
   857 ;;		Unchanged: 0/0
   858 ;; Data sizes:     COMRAM   BANK0   BANK1   BANK2
   859 ;;      Params:         0       0       0       0
   860 ;;      Locals:         1       0       0       0
   861 ;;      Temps:          0       0       0       0
   862 ;;      Totals:         1       0       0       0
   863 ;;Total ram usage:        1 bytes
   864 ;; Hardware stack levels used: 1
   865 ;; Hardware stack levels required when called: 9
   866 ;; This function calls:
   867 ;;		_USBCtrlEPAllowStatusStage
   868 ;;		_USBCtrlEPService
   869 ;;		_USBDeviceInit
   870 ;;		_USBIncrement1msInternalTimers
   871 ;;		_USBStallHandler
   872 ;;		_USBSuspend
   873 ;;		_USBWakeFromSuspend
   874 ;;		_USER_USB_CALLBACK_EVENT_HANDLER
   875 ;; This function is called by:
   876 ;;		_main
   877 ;; This function uses a non-reentrant model
   878 ;;
   879                           
   880                           	psect	text1
   881   00071C                     __ptext1:
   882                           	callstack 0
   883   00071C                     _USBDeviceTasks:
   884                           	callstack 21
   885   00071C                     
   886                           ;usb_device.c: 570:     if(USBDeviceState == DETACHED_STATE)
   887   00071C  5037               	movf	_USBDeviceState^0,w,c
   888   00071E  A4D8               	btfss	status,2,c
   889   000720  EF94  F003         	goto	u2891
   890   000724  EF96  F003         	goto	u2890
   891   000728                     u2891:
   892   000728  EFAD  F003         	goto	l4203
   893   00072C                     u2890:
   894   00072C                     
   895                           ;usb_device.c: 571:     {;usb_device.c: 573:         UCON = 0;
   896   00072C  0E00               	movlw	0
   897   00072E  6E64               	movwf	100,c	;volatile
   898                           
   899                           ;usb_device.c: 576:         UIE = 0;
   900   000730  0E00               	movlw	0
   901   000732  6E60               	movwf	96,c	;volatile
   902                           
   903                           ;usb_device.c: 580:         { UCFG = 0x10 | 0x00 | 0x04 | 0x02; UEIE = 0x9F; UIE = 0x39 
      +                          | 0x40 | 0x02; };
   904   000734  0E16               	movlw	22
   905   000736  6E61               	movwf	97,c	;volatile
   906   000738  0E9F               	movlw	159
   907   00073A  010F               	movlb	15	; () banked
   908   00073C  6F5B               	movwf	91,b	;volatile
   909   00073E  0E7B               	movlw	123
   910   000740  6E60               	movwf	96,c	;volatile
   911                           
   912                           ;usb_device.c: 583:         while(!UCONbits.USBEN){UCONbits.USBEN = 1;}
   913   000742  EFA4  F003         	goto	l386
   914   000746                     l387:
   915   000746  8664               	bsf	100,3,c	;volatile
   916   000748                     l386:
   917   000748  A664               	btfss	100,3,c	;volatile
   918   00074A  EFA9  F003         	goto	u2901
   919   00074E  EFAB  F003         	goto	u2900
   920   000752                     u2901:
   921   000752  EFA3  F003         	goto	l387
   922   000756                     u2900:
   923   000756                     
   924                           ;usb_device.c: 586:         USBDeviceState = ATTACHED_STATE;
   925   000756  0E01               	movlw	1
   926   000758  6E37               	movwf	_USBDeviceState^0,c
   927   00075A                     l4203:
   928                           
   929                           ;usb_device.c: 594:     if(USBDeviceState == ATTACHED_STATE)
   930   00075A  0437               	decf	_USBDeviceState^0,w,c
   931   00075C  A4D8               	btfss	status,2,c
   932   00075E  EFB3  F003         	goto	u2911
   933   000762  EFB5  F003         	goto	u2910
   934   000766                     u2911:
   935   000766  EFC4  F003         	goto	l4213
   936   00076A                     u2910:
   937   00076A                     
   938                           ;usb_device.c: 595:     {;usb_device.c: 605:         if(!UCONbits.SE0)
   939   00076A  BA64               	btfsc	100,5,c	;volatile
   940   00076C  EFBA  F003         	goto	u2921
   941   000770  EFBC  F003         	goto	u2920
   942   000774                     u2921:
   943   000774  EFC4  F003         	goto	l4213
   944   000778                     u2920:
   945   000778                     
   946                           ;usb_device.c: 606:         {;usb_device.c: 612:                 {UIR = 0;};
   947   000778  0E00               	movlw	0
   948   00077A  6E62               	movwf	98,c	;volatile
   949                           
   950                           ;usb_device.c: 616:                 UIE=0;
   951   00077C  0E00               	movlw	0
   952   00077E  6E60               	movwf	96,c	;volatile
   953   000780                     
   954                           ;usb_device.c: 618:             UIEbits.URSTIE = 1;
   955   000780  8060               	bsf	96,0,c	;volatile
   956   000782                     
   957                           ;usb_device.c: 619:             UIEbits.IDLEIE = 1;
   958   000782  8860               	bsf	96,4,c	;volatile
   959                           
   960                           ;usb_device.c: 620:             USBDeviceState = POWERED_STATE;
   961   000784  0E02               	movlw	2
   962   000786  6E37               	movwf	_USBDeviceState^0,c
   963   000788                     l4213:
   964                           
   965                           ;usb_device.c: 638:     if(UIRbits.ACTVIF && UIEbits.ACTVIE)
   966   000788  A462               	btfss	98,2,c	;volatile
   967   00078A  EFC9  F003         	goto	u2931
   968   00078E  EFCB  F003         	goto	u2930
   969   000792                     u2931:
   970   000792  EFD5  F003         	goto	l4221
   971   000796                     u2930:
   972   000796  A460               	btfss	96,2,c	;volatile
   973   000798  EFD0  F003         	goto	u2941
   974   00079C  EFD2  F003         	goto	u2940
   975   0007A0                     u2941:
   976   0007A0  EFD5  F003         	goto	l4221
   977   0007A4                     u2940:
   978   0007A4                     
   979                           ;usb_device.c: 639:     {;usb_device.c: 640:         (UIR &= 0xFB);
   980   0007A4  9462               	bcf	98,2,c	;volatile
   981   0007A6                     
   982                           ;usb_device.c: 644:             USBWakeFromSuspend();
   983   0007A6  ECBC  F011         	call	_USBWakeFromSuspend	;wreg free
   984   0007AA                     l4221:
   985                           
   986                           ;usb_device.c: 651:     if(UCONbits.SUSPND==1)
   987   0007AA  A264               	btfss	100,1,c	;volatile
   988   0007AC  EFDA  F003         	goto	u2951
   989   0007B0  EFDC  F003         	goto	u2950
   990   0007B4                     u2951:
   991   0007B4  EFDF  F003         	goto	l392
   992   0007B8                     u2950:
   993   0007B8                     
   994                           ;usb_device.c: 652:     {;usb_device.c: 653:         {PIR2bits.USBIF = 0;};
   995   0007B8  94A1               	bcf	161,2,c	;volatile
   996                           
   997                           ;usb_device.c: 654:         return;
   998   0007BA  EFC1  F004         	goto	l384
   999   0007BE                     l392:
  1000                           
  1001                           ;usb_device.c: 667:     if(UIRbits.URSTIF && UIEbits.URSTIE)
  1002   0007BE  A062               	btfss	98,0,c	;volatile
  1003   0007C0  EFE4  F003         	goto	u2961
  1004   0007C4  EFE6  F003         	goto	u2960
  1005   0007C8                     u2961:
  1006   0007C8  EFF2  F003         	goto	l4233
  1007   0007CC                     u2960:
  1008   0007CC  A060               	btfss	96,0,c	;volatile
  1009   0007CE  EFEB  F003         	goto	u2971
  1010   0007D2  EFED  F003         	goto	u2970
  1011   0007D6                     u2971:
  1012   0007D6  EFF2  F003         	goto	l4233
  1013   0007DA                     u2970:
  1014   0007DA                     
  1015                           ;usb_device.c: 668:     {;usb_device.c: 669:         USBDeviceInit();
  1016   0007DA  ECED  F006         	call	_USBDeviceInit	;wreg free
  1017   0007DE                     
  1018                           ;usb_device.c: 675:         USBDeviceState = DEFAULT_STATE;
  1019   0007DE  0E04               	movlw	4
  1020   0007E0  6E37               	movwf	_USBDeviceState^0,c
  1021   0007E2                     
  1022                           ;usb_device.c: 685:         (UIR &= 0xFE);
  1023   0007E2  9062               	bcf	98,0,c	;volatile
  1024   0007E4                     l4233:
  1025                           
  1026                           ;usb_device.c: 691:     if(UIRbits.IDLEIF && UIEbits.IDLEIE)
  1027   0007E4  A862               	btfss	98,4,c	;volatile
  1028   0007E6  EFF7  F003         	goto	u2981
  1029   0007EA  EFF9  F003         	goto	u2980
  1030   0007EE                     u2981:
  1031   0007EE  EF02  F004         	goto	l4239
  1032   0007F2                     u2980:
  1033   0007F2  A860               	btfss	96,4,c	;volatile
  1034   0007F4  EFFE  F003         	goto	u2991
  1035   0007F8  EF00  F004         	goto	u2990
  1036   0007FC                     u2991:
  1037   0007FC  EF02  F004         	goto	l4239
  1038   000800                     u2990:
  1039   000800                     
  1040                           ;usb_device.c: 692:     {;usb_device.c: 698:             USBSuspend();
  1041   000800  EC28  F012         	call	_USBSuspend	;wreg free
  1042   000804                     l4239:
  1043                           
  1044                           ;usb_device.c: 712:     if(UIRbits.SOFIF)
  1045   000804  AC62               	btfss	98,6,c	;volatile
  1046   000806  EF07  F004         	goto	u3001
  1047   00080A  EF09  F004         	goto	u3000
  1048   00080E                     u3001:
  1049   00080E  EF34  F004         	goto	l4257
  1050   000812                     u3000:
  1051   000812                     
  1052                           ;usb_device.c: 713:     {;usb_device.c: 715:         if(UIEbits.SOFIE)
  1053   000812  AC60               	btfss	96,6,c	;volatile
  1054   000814  EF0E  F004         	goto	u3011
  1055   000818  EF10  F004         	goto	u3010
  1056   00081C                     u3011:
  1057   00081C  EF1E  F004         	goto	l4245
  1058   000820                     u3010:
  1059   000820                     
  1060                           ;usb_device.c: 716:         {;usb_device.c: 717:             USER_USB_CALLBACK_EVENT_HAN
      +                          DLER((USB_EVENT)EVENT_SOF,0,1);
  1061   000820  0E00               	movlw	0
  1062   000822  6E4B               	movwf	(USER_USB_CALLBACK_EVENT_HANDLER@event+1)^0,c
  1063   000824  0E73               	movlw	115
  1064   000826  6E4A               	movwf	USER_USB_CALLBACK_EVENT_HANDLER@event^0,c
  1065   000828  0E00               	movlw	0
  1066   00082A  6E4C               	movwf	USER_USB_CALLBACK_EVENT_HANDLER@pdata^0,c
  1067   00082C  0E00               	movlw	0
  1068   00082E  6E4D               	movwf	(USER_USB_CALLBACK_EVENT_HANDLER@pdata+1)^0,c
  1069   000830  0E00               	movlw	0
  1070   000832  6E4F               	movwf	(USER_USB_CALLBACK_EVENT_HANDLER@size+1)^0,c
  1071   000834  0E01               	movlw	1
  1072   000836  6E4E               	movwf	USER_USB_CALLBACK_EVENT_HANDLER@size^0,c
  1073   000838  ECA4  F00E         	call	_USER_USB_CALLBACK_EVENT_HANDLER	;wreg free
  1074   00083C                     l4245:
  1075                           
  1076                           ;usb_device.c: 719:         (UIR &= 0xBF);
  1077   00083C  9C62               	bcf	98,6,c	;volatile
  1078   00083E                     
  1079                           ;usb_device.c: 722:             USBIncrement1msInternalTimers();
  1080   00083E  ECF7  F011         	call	_USBIncrement1msInternalTimers	;wreg free
  1081   000842                     
  1082                           ;usb_device.c: 739:             if(USBStatusStageTimeoutCounter != 0u)
  1083   000842  502E               	movf	_USBStatusStageTimeoutCounter^0,w,c
  1084   000844  B4D8               	btfsc	status,2,c
  1085   000846  EF27  F004         	goto	u3021
  1086   00084A  EF29  F004         	goto	u3020
  1087   00084E                     u3021:
  1088   00084E  EF2A  F004         	goto	l4253
  1089   000852                     u3020:
  1090   000852                     
  1091                           ;usb_device.c: 740:             {;usb_device.c: 741:                 USBStatusStageTimeo
      +                          utCounter--;
  1092   000852  062E               	decf	_USBStatusStageTimeoutCounter^0,f,c
  1093   000854                     l4253:
  1094                           
  1095                           ;usb_device.c: 748:             if(USBStatusStageTimeoutCounter == 0)
  1096   000854  502E               	movf	_USBStatusStageTimeoutCounter^0,w,c
  1097   000856  A4D8               	btfss	status,2,c
  1098   000858  EF30  F004         	goto	u3031
  1099   00085C  EF32  F004         	goto	u3030
  1100   000860                     u3031:
  1101   000860  EF34  F004         	goto	l4257
  1102   000864                     u3030:
  1103   000864                     
  1104                           ;usb_device.c: 749:             {;usb_device.c: 750:                 USBCtrlEPAllowStatu
      +                          sStage();
  1105   000864  EC06  F00D         	call	_USBCtrlEPAllowStatusStage	;wreg free
  1106   000868                     l4257:
  1107                           
  1108                           ;usb_device.c: 755:     if(UIRbits.STALLIF && UIEbits.STALLIE)
  1109   000868  AA62               	btfss	98,5,c	;volatile
  1110   00086A  EF39  F004         	goto	u3041
  1111   00086E  EF3B  F004         	goto	u3040
  1112   000872                     u3041:
  1113   000872  EF44  F004         	goto	l4263
  1114   000876                     u3040:
  1115   000876  AA60               	btfss	96,5,c	;volatile
  1116   000878  EF40  F004         	goto	u3051
  1117   00087C  EF42  F004         	goto	u3050
  1118   000880                     u3051:
  1119   000880  EF44  F004         	goto	l4263
  1120   000884                     u3050:
  1121   000884                     
  1122                           ;usb_device.c: 756:     {;usb_device.c: 757:         USBStallHandler();
  1123   000884  EC2B  F010         	call	_USBStallHandler	;wreg free
  1124   000888                     l4263:
  1125                           
  1126                           ;usb_device.c: 760:     if(UIRbits.UERRIF && UIEbits.UERRIE)
  1127   000888  A262               	btfss	98,1,c	;volatile
  1128   00088A  EF49  F004         	goto	u3061
  1129   00088E  EF4B  F004         	goto	u3060
  1130   000892                     u3061:
  1131   000892  EF62  F004         	goto	l4271
  1132   000896                     u3060:
  1133   000896  A260               	btfss	96,1,c	;volatile
  1134   000898  EF50  F004         	goto	u3071
  1135   00089C  EF52  F004         	goto	u3070
  1136   0008A0                     u3071:
  1137   0008A0  EF62  F004         	goto	l4271
  1138   0008A4                     u3070:
  1139   0008A4                     
  1140                           ;usb_device.c: 761:     {;usb_device.c: 762:         USER_USB_CALLBACK_EVENT_HANDLER((US
      +                          B_EVENT)EVENT_BUS_ERROR,0,1);
  1141   0008A4  0E7F               	movlw	127
  1142   0008A6  6E4B               	movwf	(USER_USB_CALLBACK_EVENT_HANDLER@event+1)^0,c
  1143   0008A8  684A               	setf	USER_USB_CALLBACK_EVENT_HANDLER@event^0,c
  1144   0008AA  0E00               	movlw	0
  1145   0008AC  6E4C               	movwf	USER_USB_CALLBACK_EVENT_HANDLER@pdata^0,c
  1146   0008AE  0E00               	movlw	0
  1147   0008B0  6E4D               	movwf	(USER_USB_CALLBACK_EVENT_HANDLER@pdata+1)^0,c
  1148   0008B2  0E00               	movlw	0
  1149   0008B4  6E4F               	movwf	(USER_USB_CALLBACK_EVENT_HANDLER@size+1)^0,c
  1150   0008B6  0E01               	movlw	1
  1151   0008B8  6E4E               	movwf	USER_USB_CALLBACK_EVENT_HANDLER@size^0,c
  1152   0008BA  ECA4  F00E         	call	_USER_USB_CALLBACK_EVENT_HANDLER	;wreg free
  1153   0008BE                     
  1154                           ;usb_device.c: 763:         {UEIR = 0;};
  1155   0008BE  0E00               	movlw	0
  1156   0008C0  010F               	movlb	15	; () banked
  1157   0008C2  6F5F               	movwf	95,b	;volatile
  1158   0008C4                     l4271:
  1159                           
  1160                           ;usb_device.c: 778:     if(USBDeviceState < DEFAULT_STATE)
  1161   0008C4  0E04               	movlw	4
  1162   0008C6  6037               	cpfslt	_USBDeviceState^0,c
  1163   0008C8  EF68  F004         	goto	u3081
  1164   0008CC  EF6A  F004         	goto	u3080
  1165   0008D0                     u3081:
  1166   0008D0  EF6D  F004         	goto	l401
  1167   0008D4                     u3080:
  1168   0008D4                     
  1169                           ;usb_device.c: 779:     {;usb_device.c: 780:         {PIR2bits.USBIF = 0;};
  1170   0008D4  94A1               	bcf	161,2,c	;volatile
  1171                           
  1172                           ;usb_device.c: 781:         return;
  1173   0008D6  EFC1  F004         	goto	l384
  1174   0008DA                     l401:
  1175                           
  1176                           ;usb_device.c: 787:     if(UIEbits.TRNIE)
  1177   0008DA  A660               	btfss	96,3,c	;volatile
  1178   0008DC  EF72  F004         	goto	u3091
  1179   0008E0  EF74  F004         	goto	u3090
  1180   0008E4                     u3091:
  1181   0008E4  EFC0  F004         	goto	l402
  1182   0008E8                     u3090:
  1183   0008E8                     
  1184                           ;usb_device.c: 788:     {;usb_device.c: 789:         for(i = 0; i < 4u; i++)
  1185   0008E8  0E00               	movlw	0
  1186   0008EA  6E5C               	movwf	USBDeviceTasks@i^0,c
  1187   0008EC                     l403:
  1188                           
  1189                           ;usb_device.c: 790:         {;usb_device.c: 791:             if(UIRbits.TRNIF)
  1190   0008EC  A662               	btfss	98,3,c	;volatile
  1191   0008EE  EF7B  F004         	goto	u3101
  1192   0008F2  EF7D  F004         	goto	u3100
  1193   0008F6                     u3101:
  1194   0008F6  EFC0  F004         	goto	l402
  1195   0008FA                     u3100:
  1196   0008FA                     
  1197                           ;usb_device.c: 792:             {;usb_device.c: 794:                 USTATcopy.Val = UST
      +                          AT;
  1198   0008FA  CF63 F03A          	movff	3939,_USTATcopy	;volatile
  1199   0008FE                     
  1200                           ;usb_device.c: 795:                 endpoint_number = USTATcopy.endpoint_number;
  1201   0008FE  303A               	rrcf	_USTATcopy^0,w,c
  1202   000900  32E8               	rrcf	wreg,f,c
  1203   000902  32E8               	rrcf	wreg,f,c
  1204   000904  0B0F               	andlw	15
  1205   000906  6E30               	movwf	_endpoint_number^0,c
  1206   000908                     
  1207                           ;usb_device.c: 797:                 (UIR &= 0xF7);
  1208   000908  9662               	bcf	98,3,c	;volatile
  1209   00090A                     
  1210                           ;usb_device.c: 802:                 if(USTATcopy.direction == 0)
  1211   00090A  B43A               	btfsc	_USTATcopy^0,2,c
  1212   00090C  EF8A  F004         	goto	u3111
  1213   000910  EF8C  F004         	goto	u3110
  1214   000914                     u3111:
  1215   000914  EF96  F004         	goto	l4291
  1216   000918                     u3110:
  1217   000918                     
  1218                           ;usb_device.c: 803:                 {;usb_device.c: 804:                     ep_data_out
      +                          [endpoint_number].bits.ping_pong_state ^= 1;
  1219   000918  0E7E               	movlw	low _ep_data_out
  1220   00091A  2430               	addwf	_endpoint_number^0,w,c
  1221   00091C  6ED9               	movwf	fsr2l,c
  1222   00091E  6ADA               	clrf	fsr2h,c
  1223   000920  0E00               	movlw	high _ep_data_out
  1224   000922  22DA               	addwfc	fsr2h,f,c
  1225   000924  0100               	movlb	0	; () banked
  1226   000926  70DF               	btg	indf2,0,c
  1227                           
  1228                           ;usb_device.c: 805:                 }
  1229   000928  EF9D  F004         	goto	l4293
  1230   00092C                     l4291:
  1231                           
  1232                           ;usb_device.c: 807:                 {;usb_device.c: 808:                     ep_data_in[
      +                          endpoint_number].bits.ping_pong_state ^= 1;
  1233   00092C  0E15               	movlw	low _ep_data_in
  1234   00092E  2430               	addwf	_endpoint_number^0,w,c
  1235   000930  6ED9               	movwf	fsr2l,c
  1236   000932  6ADA               	clrf	fsr2h,c
  1237   000934  0E00               	movlw	high _ep_data_in
  1238   000936  22DA               	addwfc	fsr2h,f,c
  1239   000938  70DF               	btg	indf2,0,c
  1240   00093A                     l4293:
  1241                           
  1242                           ;usb_device.c: 814:                 if(endpoint_number == 0)
  1243   00093A  5030               	movf	_endpoint_number^0,w,c
  1244   00093C  A4D8               	btfss	status,2,c
  1245   00093E  EFA3  F004         	goto	u3121
  1246   000942  EFA5  F004         	goto	u3120
  1247   000946                     u3121:
  1248   000946  EFA9  F004         	goto	l4297
  1249   00094A                     u3120:
  1250   00094A                     
  1251                           ;usb_device.c: 815:                 {;usb_device.c: 816:                     USBCtrlEPSe
      +                          rvice();
  1252   00094A  ECEE  F00D         	call	_USBCtrlEPService	;wreg free
  1253                           
  1254                           ;usb_device.c: 817:                 }
  1255   00094E  EFB7  F004         	goto	l4299
  1256   000952                     l4297:
  1257                           
  1258                           ;usb_device.c: 819:                 {;usb_device.c: 820:                     USER_USB_CA
      +                          LLBACK_EVENT_HANDLER((USB_EVENT)EVENT_TRANSFER,(uint8_t*)&USTATcopy.Val,0);
  1259   000952  0E00               	movlw	0
  1260   000954  6E4B               	movwf	(USER_USB_CALLBACK_EVENT_HANDLER@event+1)^0,c
  1261   000956  0E72               	movlw	114
  1262   000958  6E4A               	movwf	USER_USB_CALLBACK_EVENT_HANDLER@event^0,c
  1263   00095A  0E3A               	movlw	low _USTATcopy
  1264   00095C  6E4C               	movwf	USER_USB_CALLBACK_EVENT_HANDLER@pdata^0,c
  1265   00095E  0E00               	movlw	high _USTATcopy
  1266   000960  6E4D               	movwf	(USER_USB_CALLBACK_EVENT_HANDLER@pdata+1)^0,c
  1267   000962  0E00               	movlw	0
  1268   000964  6E4F               	movwf	(USER_USB_CALLBACK_EVENT_HANDLER@size+1)^0,c
  1269   000966  0E00               	movlw	0
  1270   000968  6E4E               	movwf	USER_USB_CALLBACK_EVENT_HANDLER@size^0,c
  1271   00096A  ECA4  F00E         	call	_USER_USB_CALLBACK_EVENT_HANDLER	;wreg free
  1272   00096E                     l4299:
  1273                           
  1274                           ;usb_device.c: 827:         }
  1275   00096E  2A5C               	incf	USBDeviceTasks@i^0,f,c
  1276   000970  0E03               	movlw	3
  1277   000972  645C               	cpfsgt	USBDeviceTasks@i^0,c
  1278   000974  EFBE  F004         	goto	u3131
  1279   000978  EFC0  F004         	goto	u3130
  1280   00097C                     u3131:
  1281   00097C  EF76  F004         	goto	l403
  1282   000980                     u3130:
  1283   000980                     l402:
  1284                           
  1285                           ;usb_device.c: 830:     {PIR2bits.USBIF = 0;};
  1286   000980  94A1               	bcf	161,2,c	;volatile
  1287   000982                     l384:
  1288   000982  0012               	return		;funcret
  1289   000984                     __end_of_USBDeviceTasks:
  1290                           	callstack 0
  1291                           
  1292 ;; *************** function _USBWakeFromSuspend *****************
  1293 ;; Defined at:
  1294 ;;		line 2310 in file "usb_device.c"
  1295 ;; Parameters:    Size  Location     Type
  1296 ;;		None
  1297 ;; Auto vars:     Size  Location     Type
  1298 ;;		None
  1299 ;; Return value:  Size  Location     Type
  1300 ;;                  1    wreg      void 
  1301 ;; Registers used:
  1302 ;;		wreg, fsr2l, fsr2h, status,2, status,0, prodl, prodh, cstack
  1303 ;; Tracked objects:
  1304 ;;		On entry : 0/0
  1305 ;;		On exit  : 0/0
  1306 ;;		Unchanged: 0/0
  1307 ;; Data sizes:     COMRAM   BANK0   BANK1   BANK2
  1308 ;;      Params:         0       0       0       0
  1309 ;;      Locals:         0       0       0       0
  1310 ;;      Temps:          0       0       0       0
  1311 ;;      Totals:         0       0       0       0
  1312 ;;Total ram usage:        0 bytes
  1313 ;; Hardware stack levels used: 1
  1314 ;; Hardware stack levels required when called: 5
  1315 ;; This function calls:
  1316 ;;		_USER_USB_CALLBACK_EVENT_HANDLER
  1317 ;; This function is called by:
  1318 ;;		_USBDeviceTasks
  1319 ;; This function uses a non-reentrant model
  1320 ;;
  1321                           
  1322                           	psect	text2
  1323   002378                     __ptext2:
  1324                           	callstack 0
  1325   002378                     _USBWakeFromSuspend:
  1326                           	callstack 24
  1327   002378                     
  1328                           ;usb_device.c: 2312:     USBBusIsSuspended = 0;
  1329   002378  0E00               	movlw	0
  1330   00237A  6E31               	movwf	_USBBusIsSuspended^0,c
  1331   00237C                     
  1332                           ;usb_device.c: 2318:     USER_USB_CALLBACK_EVENT_HANDLER((USB_EVENT)EVENT_RESUME,0,0);
  1333   00237C  0E00               	movlw	0
  1334   00237E  6E4B               	movwf	(USER_USB_CALLBACK_EVENT_HANDLER@event+1)^0,c
  1335   002380  0E74               	movlw	116
  1336   002382  6E4A               	movwf	USER_USB_CALLBACK_EVENT_HANDLER@event^0,c
  1337   002384  0E00               	movlw	0
  1338   002386  6E4C               	movwf	USER_USB_CALLBACK_EVENT_HANDLER@pdata^0,c
  1339   002388  0E00               	movlw	0
  1340   00238A  6E4D               	movwf	(USER_USB_CALLBACK_EVENT_HANDLER@pdata+1)^0,c
  1341   00238C  0E00               	movlw	0
  1342   00238E  6E4F               	movwf	(USER_USB_CALLBACK_EVENT_HANDLER@size+1)^0,c
  1343   002390  0E00               	movlw	0
  1344   002392  6E4E               	movwf	USER_USB_CALLBACK_EVENT_HANDLER@size^0,c
  1345   002394  ECA4  F00E         	call	_USER_USB_CALLBACK_EVENT_HANDLER	;wreg free
  1346   002398                     
  1347                           ;usb_device.c: 2325:         UCONbits.SUSPND = 0;
  1348   002398  9264               	bcf	100,1,c	;volatile
  1349   00239A                     
  1350                           ;usb_device.c: 2330:     UIEbits.ACTVIE = 0;
  1351   00239A  9460               	bcf	96,2,c	;volatile
  1352                           
  1353                           ;usb_device.c: 2348:     while(UIRbits.ACTVIF)
  1354   00239C  EFD1  F011         	goto	l4129
  1355   0023A0                     l4127:
  1356                           
  1357                           ;usb_device.c: 2350:     {;usb_device.c: 2351:         (UIR &= 0xFB);
  1358   0023A0  9462               	bcf	98,2,c	;volatile
  1359   0023A2                     l4129:
  1360                           
  1361                           ;usb_device.c: 2348:     while(UIRbits.ACTVIF)
  1362   0023A2  B462               	btfsc	98,2,c	;volatile
  1363   0023A4  EFD6  F011         	goto	u2801
  1364   0023A8  EFD8  F011         	goto	u2800
  1365   0023AC                     u2801:
  1366   0023AC  EFD0  F011         	goto	l4127
  1367   0023B0                     u2800:
  1368   0023B0                     
  1369                           ;usb_device.c: 2354:     USBTicksSinceSuspendEnd = 0;
  1370   0023B0  0E00               	movlw	0
  1371   0023B2  6E28               	movwf	_USBTicksSinceSuspendEnd^0,c
  1372   0023B4  0012               	return		;funcret
  1373   0023B6                     __end_of_USBWakeFromSuspend:
  1374                           	callstack 0
  1375                           
  1376 ;; *************** function _USBSuspend *****************
  1377 ;; Defined at:
  1378 ;;		line 2252 in file "usb_device.c"
  1379 ;; Parameters:    Size  Location     Type
  1380 ;;		None
  1381 ;; Auto vars:     Size  Location     Type
  1382 ;;		None
  1383 ;; Return value:  Size  Location     Type
  1384 ;;                  1    wreg      void 
  1385 ;; Registers used:
  1386 ;;		wreg, fsr2l, fsr2h, status,2, status,0, prodl, prodh, cstack
  1387 ;; Tracked objects:
  1388 ;;		On entry : 0/0
  1389 ;;		On exit  : 0/0
  1390 ;;		Unchanged: 0/0
  1391 ;; Data sizes:     COMRAM   BANK0   BANK1   BANK2
  1392 ;;      Params:         0       0       0       0
  1393 ;;      Locals:         0       0       0       0
  1394 ;;      Temps:          0       0       0       0
  1395 ;;      Totals:         0       0       0       0
  1396 ;;Total ram usage:        0 bytes
  1397 ;; Hardware stack levels used: 1
  1398 ;; Hardware stack levels required when called: 5
  1399 ;; This function calls:
  1400 ;;		_USER_USB_CALLBACK_EVENT_HANDLER
  1401 ;; This function is called by:
  1402 ;;		_USBDeviceTasks
  1403 ;; This function uses a non-reentrant model
  1404 ;;
  1405                           
  1406                           	psect	text3
  1407   002450                     __ptext3:
  1408                           	callstack 0
  1409   002450                     _USBSuspend:
  1410                           	callstack 24
  1411   002450                     
  1412                           ;usb_device.c: 2277:     UIEbits.ACTVIE = 1;
  1413   002450  8460               	bsf	96,2,c	;volatile
  1414   002452                     
  1415                           ;usb_device.c: 2278:     (UIR &= 0xEF);
  1416   002452  9862               	bcf	98,4,c	;volatile
  1417   002454                     
  1418                           ;usb_device.c: 2281:         UCONbits.SUSPND = 1;
  1419   002454  8264               	bsf	100,1,c	;volatile
  1420   002456                     
  1421                           ;usb_device.c: 2284:     USBBusIsSuspended = 1;
  1422   002456  0E01               	movlw	1
  1423   002458  6E31               	movwf	_USBBusIsSuspended^0,c
  1424   00245A                     
  1425                           ;usb_device.c: 2285:     USBTicksSinceSuspendEnd = 0;
  1426   00245A  0E00               	movlw	0
  1427   00245C  6E28               	movwf	_USBTicksSinceSuspendEnd^0,c
  1428   00245E                     
  1429                           ;usb_device.c: 2292:     USER_USB_CALLBACK_EVENT_HANDLER((USB_EVENT)EVENT_SUSPEND,0,0);
  1430   00245E  0E00               	movlw	0
  1431   002460  6E4B               	movwf	(USER_USB_CALLBACK_EVENT_HANDLER@event+1)^0,c
  1432   002462  0E75               	movlw	117
  1433   002464  6E4A               	movwf	USER_USB_CALLBACK_EVENT_HANDLER@event^0,c
  1434   002466  0E00               	movlw	0
  1435   002468  6E4C               	movwf	USER_USB_CALLBACK_EVENT_HANDLER@pdata^0,c
  1436   00246A  0E00               	movlw	0
  1437   00246C  6E4D               	movwf	(USER_USB_CALLBACK_EVENT_HANDLER@pdata+1)^0,c
  1438   00246E  0E00               	movlw	0
  1439   002470  6E4F               	movwf	(USER_USB_CALLBACK_EVENT_HANDLER@size+1)^0,c
  1440   002472  0E00               	movlw	0
  1441   002474  6E4E               	movwf	USER_USB_CALLBACK_EVENT_HANDLER@size^0,c
  1442   002476  ECA4  F00E         	call	_USER_USB_CALLBACK_EVENT_HANDLER	;wreg free
  1443   00247A  0012               	return		;funcret
  1444   00247C                     __end_of_USBSuspend:
  1445                           	callstack 0
  1446                           
  1447 ;; *************** function _USBStallHandler *****************
  1448 ;; Defined at:
  1449 ;;		line 2209 in file "usb_device.c"
  1450 ;; Parameters:    Size  Location     Type
  1451 ;;		None
  1452 ;; Auto vars:     Size  Location     Type
  1453 ;;		None
  1454 ;; Return value:  Size  Location     Type
  1455 ;;                  1    wreg      void 
  1456 ;; Registers used:
  1457 ;;		wreg, fsr2l, fsr2h, status,2, status,0
  1458 ;; Tracked objects:
  1459 ;;		On entry : 0/0
  1460 ;;		On exit  : 0/0
  1461 ;;		Unchanged: 0/0
  1462 ;; Data sizes:     COMRAM   BANK0   BANK1   BANK2
  1463 ;;      Params:         0       0       0       0
  1464 ;;      Locals:         0       0       0       0
  1465 ;;      Temps:          1       0       0       0
  1466 ;;      Totals:         1       0       0       0
  1467 ;;Total ram usage:        1 bytes
  1468 ;; Hardware stack levels used: 1
  1469 ;; Hardware stack levels required when called: 1
  1470 ;; This function calls:
  1471 ;;		Nothing
  1472 ;; This function is called by:
  1473 ;;		_USBDeviceTasks
  1474 ;; This function uses a non-reentrant model
  1475 ;;
  1476                           
  1477                           	psect	text4
  1478   002056                     __ptext4:
  1479                           	callstack 0
  1480   002056                     _USBStallHandler:
  1481                           	callstack 28
  1482   002056                     
  1483                           ;usb_device.c: 2221:     if(UEP0bits.EPSTALL == 1)
  1484   002056  010F               	movlb	15	; () banked
  1485   002058  A153               	btfss	83,0,b	;volatile
  1486   00205A  EF31  F010         	goto	u2831
  1487   00205E  EF33  F010         	goto	u2830
  1488   002062                     u2831:
  1489   002062  EF5A  F010         	goto	l531
  1490   002066                     u2830:
  1491   002066                     
  1492                           ; BSR set to: 15
  1493                           ;usb_device.c: 2222:     {;usb_device.c: 2224:         if((pBDTEntryEP0OutCurrent->STAT.
      +                          Val == 0x80) && (pBDTEntryIn[0]->STAT.Val == (0x80|0x04)))
  1494   002066  C020  FFD9         	movff	_pBDTEntryEP0OutCurrent,fsr2l
  1495   00206A  C021  FFDA         	movff	_pBDTEntryEP0OutCurrent+1,fsr2h
  1496   00206E  0E80               	movlw	128
  1497   002070  18DE               	xorwf	postinc2,w,c
  1498   002072  A4D8               	btfss	status,2,c
  1499   002074  EF3E  F010         	goto	u2841
  1500   002078  EF40  F010         	goto	u2840
  1501   00207C                     u2841:
  1502   00207C  EF59  F010         	goto	l4165
  1503   002080                     u2840:
  1504   002080                     
  1505                           ; BSR set to: 15
  1506   002080  C00F  FFD9         	movff	_pBDTEntryIn,fsr2l
  1507   002084  C010  FFDA         	movff	_pBDTEntryIn+1,fsr2h
  1508   002088  0E84               	movlw	132
  1509   00208A  18DE               	xorwf	postinc2,w,c
  1510   00208C  A4D8               	btfss	status,2,c
  1511   00208E  EF4B  F010         	goto	u2851
  1512   002092  EF4D  F010         	goto	u2850
  1513   002096                     u2851:
  1514   002096  EF59  F010         	goto	l4165
  1515   00209A                     u2850:
  1516   00209A                     
  1517                           ; BSR set to: 15
  1518                           ;usb_device.c: 2225:         {;usb_device.c: 2227:             pBDTEntryEP0OutCurrent->S
      +                          TAT.Val = 0x00|(0x08 & 0x08)|0x04;
  1519   00209A  C020  FFD9         	movff	_pBDTEntryEP0OutCurrent,fsr2l
  1520   00209E  C021  FFDA         	movff	_pBDTEntryEP0OutCurrent+1,fsr2h
  1521   0020A2  0E0C               	movlw	12
  1522   0020A4  6EDF               	movwf	indf2,c
  1523   0020A6                     
  1524                           ; BSR set to: 15
  1525                           ;usb_device.c: 2228:             pBDTEntryEP0OutCurrent->STAT.Val |= 0x80;
  1526   0020A6  C020  FFD9         	movff	_pBDTEntryEP0OutCurrent,fsr2l
  1527   0020AA  C021  FFDA         	movff	_pBDTEntryEP0OutCurrent+1,fsr2h
  1528   0020AE  0E00               	movlw	0
  1529   0020B0  8EDB               	bsf	plusw2,7,c
  1530   0020B2                     l4165:
  1531                           
  1532                           ; BSR set to: 15
  1533                           ;usb_device.c: 2230:         UEP0bits.EPSTALL = 0;
  1534   0020B2  9153               	bcf	83,0,b	;volatile
  1535   0020B4                     l531:
  1536                           
  1537                           ; BSR set to: 15
  1538                           ;usb_device.c: 2233:     (UIR &= 0xDF);
  1539   0020B4  9A62               	bcf	98,5,c	;volatile
  1540   0020B6                     
  1541                           ; BSR set to: 15
  1542   0020B6  0012               	return		;funcret
  1543   0020B8                     __end_of_USBStallHandler:
  1544                           	callstack 0
  1545                           
  1546 ;; *************** function _USBIncrement1msInternalTimers *****************
  1547 ;; Defined at:
  1548 ;;		line 2998 in file "usb_device.c"
  1549 ;; Parameters:    Size  Location     Type
  1550 ;;		None
  1551 ;; Auto vars:     Size  Location     Type
  1552 ;;		None
  1553 ;; Return value:  Size  Location     Type
  1554 ;;                  1    wreg      void 
  1555 ;; Registers used:
  1556 ;;		wreg, status,2, status,0
  1557 ;; Tracked objects:
  1558 ;;		On entry : 0/0
  1559 ;;		On exit  : 0/0
  1560 ;;		Unchanged: 0/0
  1561 ;; Data sizes:     COMRAM   BANK0   BANK1   BANK2
  1562 ;;      Params:         0       0       0       0
  1563 ;;      Locals:         0       0       0       0
  1564 ;;      Temps:          0       0       0       0
  1565 ;;      Totals:         0       0       0       0
  1566 ;;Total ram usage:        0 bytes
  1567 ;; Hardware stack levels used: 1
  1568 ;; Hardware stack levels required when called: 1
  1569 ;; This function calls:
  1570 ;;		Nothing
  1571 ;; This function is called by:
  1572 ;;		_USBDeviceTasks
  1573 ;; This function uses a non-reentrant model
  1574 ;;
  1575                           
  1576                           	psect	text5
  1577   0023EE                     __ptext5:
  1578                           	callstack 0
  1579   0023EE                     _USBIncrement1msInternalTimers:
  1580                           	callstack 28
  1581   0023EE                     
  1582                           ;usb_device.c: 3006:     USB1msTickCount++;
  1583   0023EE  0E01               	movlw	1
  1584   0023F0  0100               	movlb	0	; () banked
  1585   0023F2  2774               	addwf	_USB1msTickCount& (0+255),f,b
  1586   0023F4  0E00               	movlw	0
  1587   0023F6  2375               	addwfc	(_USB1msTickCount+1)& (0+255),f,b
  1588   0023F8  2376               	addwfc	(_USB1msTickCount+2)& (0+255),f,b
  1589   0023FA  2377               	addwfc	(_USB1msTickCount+3)& (0+255),f,b
  1590   0023FC                     
  1591                           ; BSR set to: 0
  1592                           ;usb_device.c: 3007:     if(USBBusIsSuspended == 0)
  1593   0023FC  5031               	movf	_USBBusIsSuspended^0,w,c
  1594   0023FE  A4D8               	btfss	status,2,c
  1595   002400  EF04  F012         	goto	u2811
  1596   002404  EF06  F012         	goto	u2810
  1597   002408                     u2811:
  1598   002408  EF10  F012         	goto	l623
  1599   00240C                     u2810:
  1600   00240C                     
  1601                           ; BSR set to: 0
  1602                           ;usb_device.c: 3008:     {;usb_device.c: 3009:         USBTicksSinceSuspendEnd++;
  1603   00240C  2A28               	incf	_USBTicksSinceSuspendEnd^0,f,c
  1604   00240E                     
  1605                           ; BSR set to: 0
  1606                           ;usb_device.c: 3011:         if(USBTicksSinceSuspendEnd == 0)
  1607   00240E  5028               	movf	_USBTicksSinceSuspendEnd^0,w,c
  1608   002410  A4D8               	btfss	status,2,c
  1609   002412  EF0D  F012         	goto	u2821
  1610   002416  EF0F  F012         	goto	u2820
  1611   00241A                     u2821:
  1612   00241A  EF10  F012         	goto	l623
  1613   00241E                     u2820:
  1614   00241E                     
  1615                           ; BSR set to: 0
  1616                           ;usb_device.c: 3012:         {;usb_device.c: 3013:             USBTicksSinceSuspendEnd =
      +                           255;
  1617   00241E  6828               	setf	_USBTicksSinceSuspendEnd^0,c
  1618   002420                     l623:
  1619                           
  1620                           ; BSR set to: 0
  1621   002420  0012               	return		;funcret
  1622   002422                     __end_of_USBIncrement1msInternalTimers:
  1623                           	callstack 0
  1624                           
  1625 ;; *************** function _USBDeviceInit *****************
  1626 ;; Defined at:
  1627 ;;		line 281 in file "usb_device.c"
  1628 ;; Parameters:    Size  Location     Type
  1629 ;;		None
  1630 ;; Auto vars:     Size  Location     Type
  1631 ;;  i               1   12[COMRAM] unsigned char 
  1632 ;; Return value:  Size  Location     Type
  1633 ;;                  1    wreg      void 
  1634 ;; Registers used:
  1635 ;;		wreg, fsr2l, fsr2h, status,2, status,0, prodl, prodh, cstack
  1636 ;; Tracked objects:
  1637 ;;		On entry : 0/0
  1638 ;;		On exit  : 0/0
  1639 ;;		Unchanged: 0/0
  1640 ;; Data sizes:     COMRAM   BANK0   BANK1   BANK2
  1641 ;;      Params:         0       0       0       0
  1642 ;;      Locals:         1       0       0       0
  1643 ;;      Temps:          0       0       0       0
  1644 ;;      Totals:         1       0       0       0
  1645 ;;Total ram usage:        1 bytes
  1646 ;; Hardware stack levels used: 1
  1647 ;; Hardware stack levels required when called: 2
  1648 ;; This function calls:
  1649 ;;		_memset
  1650 ;; This function is called by:
  1651 ;;		_main
  1652 ;;		_USBDeviceTasks
  1653 ;; This function uses a non-reentrant model
  1654 ;;
  1655                           
  1656                           	psect	text6
  1657   000DDA                     __ptext6:
  1658                           	callstack 0
  1659   000DDA                     _USBDeviceInit:
  1660                           	callstack 27
  1661   000DDA                     
  1662                           ;usb_device.c: 283:     uint8_t i;;usb_device.c: 285:     {PIE2bits.USBIE = 0;};
  1663   000DDA  94A0               	bcf	160,2,c	;volatile
  1664   000DDC                     
  1665                           ;usb_device.c: 292:     {UEIR = 0;};
  1666   000DDC  0E00               	movlw	0
  1667   000DDE  010F               	movlb	15	; () banked
  1668   000DE0  6F5F               	movwf	95,b	;volatile
  1669                           
  1670                           ;usb_device.c: 295:     {UIR = 0;};
  1671   000DE2  0E00               	movlw	0
  1672   000DE4  6E62               	movwf	98,c	;volatile
  1673                           
  1674                           ;usb_device.c: 298:     UEP0 = 0;
  1675   000DE6  0E00               	movlw	0
  1676   000DE8  6F53               	movwf	83,b	;volatile
  1677   000DEA                     
  1678                           ; BSR set to: 15
  1679                           ;usb_device.c: 300:     memset((void*)&UEP1,0x00,(2));;
  1680   000DEA  0E54               	movlw	84
  1681   000DEC  6E3C               	movwf	memset@dest^0,c
  1682   000DEE  0E0F               	movlw	15
  1683   000DF0  6E3D               	movwf	(memset@dest+1)^0,c
  1684   000DF2  0E00               	movlw	0
  1685   000DF4  6E3F               	movwf	(memset@c+1)^0,c
  1686   000DF6  0E00               	movlw	0
  1687   000DF8  6E3E               	movwf	memset@c^0,c
  1688   000DFA  0E00               	movlw	0
  1689   000DFC  6E41               	movwf	(memset@n+1)^0,c
  1690   000DFE  0E02               	movlw	2
  1691   000E00  6E40               	movwf	memset@n^0,c
  1692   000E02  EC8A  F005         	call	_memset	;wreg free
  1693   000E06                     
  1694                           ;usb_device.c: 302:     { UCFG = 0x10 | 0x00 | 0x04 | 0x02; UEIE = 0x9F; UIE = 0x39 | 0x
      +                          40 | 0x02; };
  1695   000E06  0E16               	movlw	22
  1696   000E08  6E61               	movwf	97,c	;volatile
  1697   000E0A  0E9F               	movlw	159
  1698   000E0C  010F               	movlb	15	; () banked
  1699   000E0E  6F5B               	movwf	91,b	;volatile
  1700   000E10                     
  1701                           ; BSR set to: 15
  1702   000E10  0E7B               	movlw	123
  1703   000E12  6E60               	movwf	96,c	;volatile
  1704   000E14                     
  1705                           ; BSR set to: 15
  1706                           ;usb_device.c: 311:     for(i = 0; i < (sizeof(BDT)/sizeof(BDT_ENTRY)); i++)
  1707   000E14  0E00               	movlw	0
  1708   000E16  6E48               	movwf	USBDeviceInit@i^0,c
  1709   000E18                     l4061:
  1710                           
  1711                           ;usb_device.c: 312:     {;usb_device.c: 313:         BDT[i].Val = 0x00;
  1712   000E18  5048               	movf	USBDeviceInit@i^0,w,c
  1713   000E1A  0D04               	mullw	4
  1714   000E1C  0E00               	movlw	0
  1715   000E1E  24F3               	addwf	243,w,c
  1716   000E20  6ED9               	movwf	fsr2l,c
  1717   000E22  0E02               	movlw	2
  1718   000E24  20F4               	addwfc	prodh,w,c
  1719   000E26  6EDA               	movwf	fsr2h,c
  1720   000E28  6ADE               	clrf	postinc2,c
  1721   000E2A  6ADE               	clrf	postinc2,c
  1722   000E2C  6ADE               	clrf	postinc2,c
  1723   000E2E  6ADD               	clrf	postdec2,c
  1724   000E30                     
  1725                           ;usb_device.c: 314:     }
  1726   000E30  2A48               	incf	USBDeviceInit@i^0,f,c
  1727   000E32  0E0B               	movlw	11
  1728   000E34  6448               	cpfsgt	USBDeviceInit@i^0,c
  1729   000E36  EF1F  F007         	goto	u2771
  1730   000E3A  EF21  F007         	goto	u2770
  1731   000E3E                     u2771:
  1732   000E3E  EF0C  F007         	goto	l4061
  1733   000E42                     u2770:
  1734   000E42                     
  1735                           ;usb_device.c: 317:     UCONbits.PPBRST = 1;
  1736   000E42  8C64               	bsf	100,6,c	;volatile
  1737   000E44                     
  1738                           ;usb_device.c: 320:     UADDR = 0x00;
  1739   000E44  0E00               	movlw	0
  1740   000E46  010F               	movlb	15	; () banked
  1741   000E48  6F5C               	movwf	92,b	;volatile
  1742   000E4A                     
  1743                           ; BSR set to: 15
  1744                           ;usb_device.c: 323:     UCONbits.PKTDIS = 0;
  1745   000E4A  9864               	bcf	100,4,c	;volatile
  1746   000E4C                     
  1747                           ; BSR set to: 15
  1748                           ;usb_device.c: 326:     UCONbits.PPBRST = 0;
  1749   000E4C  9C64               	bcf	100,6,c	;volatile
  1750   000E4E                     l4073:
  1751                           
  1752                           ;usb_device.c: 330:     {;usb_device.c: 331:         (UIR &= 0xF7);
  1753   000E4E  9662               	bcf	98,3,c	;volatile
  1754   000E50                     
  1755                           ;usb_device.c: 333:         inPipes[0].info.Val = 0;
  1756   000E50  0E00               	movlw	0
  1757   000E52  6E0C               	movwf	(_inPipes+3)^0,c
  1758   000E54                     
  1759                           ;usb_device.c: 334:         outPipes[0].info.Val = 0;
  1760   000E54  0E00               	movlw	0
  1761   000E56  6E04               	movwf	(_outPipes+3)^0,c
  1762   000E58                     
  1763                           ;usb_device.c: 335:         outPipes[0].wCount.Val = 0;
  1764   000E58  0E00               	movlw	0
  1765   000E5A  6E06               	movwf	(_outPipes+5)^0,c
  1766   000E5C  0E00               	movlw	0
  1767   000E5E  6E05               	movwf	(_outPipes+4)^0,c
  1768   000E60                     
  1769                           ;usb_device.c: 336:     }while(UIRbits.TRNIF == 1);
  1770   000E60  B662               	btfsc	98,3,c	;volatile
  1771   000E62  EF35  F007         	goto	u2781
  1772   000E66  EF37  F007         	goto	u2780
  1773   000E6A                     u2781:
  1774   000E6A  EF27  F007         	goto	l4073
  1775   000E6E                     u2780:
  1776   000E6E                     
  1777                           ;usb_device.c: 340:     USBStatusStageEnabledFlag1 = 1;
  1778   000E6E  0E01               	movlw	1
  1779   000E70  6E2C               	movwf	_USBStatusStageEnabledFlag1^0,c	;volatile
  1780                           
  1781                           ;usb_device.c: 341:     USBStatusStageEnabledFlag2 = 1;
  1782   000E72  0E01               	movlw	1
  1783   000E74  6E2B               	movwf	_USBStatusStageEnabledFlag2^0,c	;volatile
  1784                           
  1785                           ;usb_device.c: 343:     USBDeferINDataStagePackets = 0;
  1786   000E76  0E00               	movlw	0
  1787   000E78  6E2A               	movwf	_USBDeferINDataStagePackets^0,c	;volatile
  1788                           
  1789                           ;usb_device.c: 344:     USBDeferOUTDataStagePackets = 0;
  1790   000E7A  0E00               	movlw	0
  1791   000E7C  6E29               	movwf	_USBDeferOUTDataStagePackets^0,c	;volatile
  1792                           
  1793                           ;usb_device.c: 345:     USBBusIsSuspended = 0;
  1794   000E7E  0E00               	movlw	0
  1795   000E80  6E31               	movwf	_USBBusIsSuspended^0,c
  1796                           
  1797                           ;usb_device.c: 349:     for(i = 0; i < (uint8_t)(2 +1u); i++)
  1798   000E82  0E00               	movlw	0
  1799   000E84  6E48               	movwf	USBDeviceInit@i^0,c
  1800   000E86                     l4089:
  1801                           
  1802                           ;usb_device.c: 350:     {;usb_device.c: 351:         pBDTEntryIn[i] = 0u;
  1803   000E86  5048               	movf	USBDeviceInit@i^0,w,c
  1804   000E88  0D02               	mullw	2
  1805   000E8A  0E0F               	movlw	low _pBDTEntryIn
  1806   000E8C  24F3               	addwf	243,w,c
  1807   000E8E  6ED9               	movwf	fsr2l,c
  1808   000E90  0E00               	movlw	high _pBDTEntryIn
  1809   000E92  20F4               	addwfc	prodh,w,c
  1810   000E94  6EDA               	movwf	fsr2h,c
  1811   000E96  6ADE               	clrf	postinc2,c
  1812   000E98  6ADD               	clrf	postdec2,c
  1813                           
  1814                           ;usb_device.c: 352:         pBDTEntryOut[i] = 0u;
  1815   000E9A  5048               	movf	USBDeviceInit@i^0,w,c
  1816   000E9C  0D02               	mullw	2
  1817   000E9E  0E6A               	movlw	low _pBDTEntryOut
  1818   000EA0  24F3               	addwf	243,w,c
  1819   000EA2  6ED9               	movwf	fsr2l,c
  1820   000EA4  0E00               	movlw	high _pBDTEntryOut
  1821   000EA6  20F4               	addwfc	prodh,w,c
  1822   000EA8  6EDA               	movwf	fsr2h,c
  1823   000EAA  6ADE               	clrf	postinc2,c
  1824   000EAC  6ADD               	clrf	postdec2,c
  1825   000EAE                     
  1826                           ;usb_device.c: 353:         ep_data_in[i].Val = 0u;
  1827   000EAE  0E15               	movlw	low _ep_data_in
  1828   000EB0  2448               	addwf	USBDeviceInit@i^0,w,c
  1829   000EB2  6ED9               	movwf	fsr2l,c
  1830   000EB4  6ADA               	clrf	fsr2h,c
  1831   000EB6  0E00               	movlw	high _ep_data_in
  1832   000EB8  22DA               	addwfc	fsr2h,f,c
  1833   000EBA  6ADF               	clrf	indf2,c
  1834   000EBC                     
  1835                           ;usb_device.c: 354:         ep_data_out[i].Val = 0u;
  1836   000EBC  0E7E               	movlw	low _ep_data_out
  1837   000EBE  2448               	addwf	USBDeviceInit@i^0,w,c
  1838   000EC0  6ED9               	movwf	fsr2l,c
  1839   000EC2  6ADA               	clrf	fsr2h,c
  1840   000EC4  0E00               	movlw	high _ep_data_out
  1841   000EC6  22DA               	addwfc	fsr2h,f,c
  1842   000EC8  6ADF               	clrf	indf2,c
  1843   000ECA                     
  1844                           ;usb_device.c: 355:     }
  1845   000ECA  2A48               	incf	USBDeviceInit@i^0,f,c
  1846   000ECC  0E02               	movlw	2
  1847   000ECE  6448               	cpfsgt	USBDeviceInit@i^0,c
  1848   000ED0  EF6C  F007         	goto	u2791
  1849   000ED4  EF6E  F007         	goto	u2790
  1850   000ED8                     u2791:
  1851   000ED8  EF43  F007         	goto	l4089
  1852   000EDC                     u2790:
  1853   000EDC                     
  1854                           ;usb_device.c: 358:     pBDTEntryIn[0] = (volatile BDT_ENTRY*)&BDT[2];
  1855   000EDC  0E08               	movlw	8
  1856   000EDE  6E0F               	movwf	_pBDTEntryIn^0,c
  1857   000EE0  0E02               	movlw	2
  1858   000EE2  6E10               	movwf	(_pBDTEntryIn+1)^0,c
  1859   000EE4                     
  1860                           ;usb_device.c: 360:     UEP0 = 0x06|0x10;
  1861   000EE4  0E16               	movlw	22
  1862   000EE6  010F               	movlb	15	; () banked
  1863   000EE8  6F53               	movwf	83,b	;volatile
  1864   000EEA                     
  1865                           ; BSR set to: 15
  1866                           ;usb_device.c: 362:     BDT[0].ADR = ((uint16_t)(&SetupPkt));
  1867   000EEA  0E02               	movlw	2
  1868   000EEC  0102               	movlb	2	; () banked
  1869   000EEE  6F03               	movwf	3,b	;volatile
  1870   000EF0  0E30               	movlw	48
  1871   000EF2  6F02               	movwf	2,b	;volatile
  1872   000EF4                     
  1873                           ; BSR set to: 2
  1874                           ;usb_device.c: 363:     BDT[0].CNT = 8;
  1875   000EF4  0E08               	movlw	8
  1876   000EF6  6F01               	movwf	1,b	;volatile
  1877   000EF8                     
  1878                           ; BSR set to: 2
  1879                           ;usb_device.c: 364:     BDT[0].STAT.Val = 0x00|0x04;
  1880   000EF8  0E04               	movlw	4
  1881   000EFA  6F00               	movwf	0,b	;volatile
  1882   000EFC                     
  1883                           ; BSR set to: 2
  1884                           ;usb_device.c: 365:     BDT[0].STAT.Val |= 0x80;
  1885   000EFC  8F00               	bsf	0,7,b	;volatile
  1886   000EFE                     
  1887                           ; BSR set to: 2
  1888                           ;usb_device.c: 368:     USBActiveConfiguration = 0;
  1889   000EFE  0E00               	movlw	0
  1890   000F00  6E3B               	movwf	_USBActiveConfiguration^0,c
  1891   000F02                     
  1892                           ; BSR set to: 2
  1893                           ;usb_device.c: 370:     USB1msTickCount = 0;
  1894   000F02  0E00               	movlw	0
  1895   000F04  0100               	movlb	0	; () banked
  1896   000F06  6F74               	movwf	_USB1msTickCount& (0+255),b
  1897   000F08  0E00               	movlw	0
  1898   000F0A  6F75               	movwf	(_USB1msTickCount+1)& (0+255),b
  1899   000F0C  0E00               	movlw	0
  1900   000F0E  6F76               	movwf	(_USB1msTickCount+2)& (0+255),b
  1901   000F10  0E00               	movlw	0
  1902   000F12  6F77               	movwf	(_USB1msTickCount+3)& (0+255),b
  1903   000F14                     
  1904                           ; BSR set to: 0
  1905                           ;usb_device.c: 371:     USBTicksSinceSuspendEnd = 0;
  1906   000F14  0E00               	movlw	0
  1907   000F16  6E28               	movwf	_USBTicksSinceSuspendEnd^0,c
  1908   000F18                     
  1909                           ; BSR set to: 0
  1910                           ;usb_device.c: 374:     USBDeviceState = DETACHED_STATE;
  1911   000F18  0E00               	movlw	0
  1912   000F1A  6E37               	movwf	_USBDeviceState^0,c
  1913   000F1C                     
  1914                           ; BSR set to: 0
  1915   000F1C  0012               	return		;funcret
  1916   000F1E                     __end_of_USBDeviceInit:
  1917                           	callstack 0
  1918                           
  1919 ;; *************** function _USBCtrlEPService *****************
  1920 ;; Defined at:
  1921 ;;		line 2379 in file "usb_device.c"
  1922 ;; Parameters:    Size  Location     Type
  1923 ;;		None
  1924 ;; Auto vars:     Size  Location     Type
  1925 ;;		None
  1926 ;; Return value:  Size  Location     Type
  1927 ;;                  1    wreg      void 
  1928 ;; Registers used:
  1929 ;;		wreg, fsr0l, fsr0h, fsr1l, fsr1h, fsr2l, fsr2h, status,2, status,0, tblptrl, tblptrh, tblptru, prodl, prodh, cstack
  1930 ;; Tracked objects:
  1931 ;;		On entry : 0/0
  1932 ;;		On exit  : 0/0
  1933 ;;		Unchanged: 0/0
  1934 ;; Data sizes:     COMRAM   BANK0   BANK1   BANK2
  1935 ;;      Params:         0       0       0       0
  1936 ;;      Locals:         0       0       0       0
  1937 ;;      Temps:          1       0       0       0
  1938 ;;      Totals:         1       0       0       0
  1939 ;;Total ram usage:        1 bytes
  1940 ;; Hardware stack levels used: 1
  1941 ;; Hardware stack levels required when called: 8
  1942 ;; This function calls:
  1943 ;;		_USBCtrlTrfInHandler
  1944 ;;		_USBCtrlTrfOutHandler
  1945 ;;		_USBCtrlTrfSetupHandler
  1946 ;;		_memcpy
  1947 ;; This function is called by:
  1948 ;;		_USBDeviceTasks
  1949 ;; This function uses a non-reentrant model
  1950 ;;
  1951                           
  1952                           	psect	text7
  1953   001BDC                     __ptext7:
  1954                           	callstack 0
  1955   001BDC                     _USBCtrlEPService:
  1956                           	callstack 21
  1957   001BDC                     
  1958                           ;usb_device.c: 2385:         USBStatusStageTimeoutCounter = (uint8_t)45;
  1959   001BDC  0E2D               	movlw	45
  1960   001BDE  6E2E               	movwf	_USBStatusStageTimeoutCounter^0,c
  1961   001BE0                     
  1962                           ;usb_device.c: 2389:     if((USTATcopy.Val & ~0x02) == 0x00)
  1963   001BE0  C03A  F05B         	movff	_USTATcopy,??_USBCtrlEPService
  1964   001BE4  0EFD               	movlw	253
  1965   001BE6  165B               	andwf	??_USBCtrlEPService^0,f,c
  1966   001BE8  A4D8               	btfss	status,2,c
  1967   001BEA  EFF9  F00D         	goto	u2861
  1968   001BEE  EFFB  F00D         	goto	u2860
  1969   001BF2                     u2861:
  1970   001BF2  EF3D  F00E         	goto	l4185
  1971   001BF6                     u2860:
  1972   001BF6                     
  1973                           ;usb_device.c: 2390:     {;usb_device.c: 2393:             pBDTEntryEP0OutCurrent = (vol
      +                          atile BDT_ENTRY*)&BDT[(USTATcopy.Val & 0x7E)>>1];
  1974   001BF6  C03A  F05B         	movff	_USTATcopy,??_USBCtrlEPService
  1975   001BFA  90D8               	bcf	status,0,c
  1976   001BFC  325B               	rrcf	??_USBCtrlEPService^0,f,c
  1977   001BFE  0E3F               	movlw	63
  1978   001C00  165B               	andwf	??_USBCtrlEPService^0,f,c
  1979   001C02  505B               	movf	??_USBCtrlEPService^0,w,c
  1980   001C04  0D04               	mullw	4
  1981   001C06  0E00               	movlw	0
  1982   001C08  24F3               	addwf	243,w,c
  1983   001C0A  6E20               	movwf	_pBDTEntryEP0OutCurrent^0,c
  1984   001C0C  0E02               	movlw	2
  1985   001C0E  20F4               	addwfc	prodh,w,c
  1986   001C10  6E21               	movwf	(_pBDTEntryEP0OutCurrent+1)^0,c
  1987   001C12                     
  1988                           ;usb_device.c: 2401:         pBDTEntryEP0OutNext = pBDTEntryEP0OutCurrent;
  1989   001C12  C020  F01E         	movff	_pBDTEntryEP0OutCurrent,_pBDTEntryEP0OutNext
  1990   001C16  C021  F01F         	movff	_pBDTEntryEP0OutCurrent+1,_pBDTEntryEP0OutNext+1
  1991   001C1A                     
  1992                           ;usb_device.c: 2403:         pBDTEntryEP0OutNext = (volatile BDT_ENTRY*)(((uint16_t)pBDT
      +                          EntryEP0OutNext) ^ 0x0004);
  1993   001C1A  0E04               	movlw	4
  1994   001C1C  181E               	xorwf	_pBDTEntryEP0OutNext^0,w,c
  1995   001C1E  6E1E               	movwf	_pBDTEntryEP0OutNext^0,c
  1996   001C20  501F               	movf	(_pBDTEntryEP0OutNext+1)^0,w,c
  1997   001C22  6E1F               	movwf	(_pBDTEntryEP0OutNext+1)^0,c
  1998   001C24                     
  1999                           ;usb_device.c: 2406:         if(pBDTEntryEP0OutCurrent->STAT.PID == 0xD)
  2000   001C24  C020  FFD9         	movff	_pBDTEntryEP0OutCurrent,fsr2l
  2001   001C28  C021  FFDA         	movff	_pBDTEntryEP0OutCurrent+1,fsr2h
  2002   001C2C  30DF               	rrcf	223,w,c
  2003   001C2E  32E8               	rrcf	wreg,f,c
  2004   001C30  0B0F               	andlw	15
  2005   001C32  0A0D               	xorlw	13
  2006   001C34  A4D8               	btfss	status,2,c
  2007   001C36  EF1F  F00E         	goto	u2871
  2008   001C3A  EF21  F00E         	goto	u2870
  2009   001C3E                     u2871:
  2010   001C3E  EF39  F00E         	goto	l4183
  2011   001C42                     u2870:
  2012   001C42                     
  2013                           ;usb_device.c: 2407:         {;usb_device.c: 2412:             memcpy((uint8_t*)&SetupPk
      +                          t, (uint8_t*)((void *)(pBDTEntryEP0OutCurrent->ADR)), 8);
  2014   001C42  0E30               	movlw	48
  2015   001C44  6E3C               	movwf	memcpy@d1^0,c
  2016   001C46  0E02               	movlw	2
  2017   001C48  6E3D               	movwf	(memcpy@d1+1)^0,c
  2018   001C4A  EE20 F002          	lfsr	2,2
  2019   001C4E  5020               	movf	_pBDTEntryEP0OutCurrent^0,w,c
  2020   001C50  26D9               	addwf	fsr2l,f,c
  2021   001C52  5021               	movf	(_pBDTEntryEP0OutCurrent+1)^0,w,c
  2022   001C54  22DA               	addwfc	fsr2h,f,c
  2023   001C56  CFDE F03E          	movff	postinc2,memcpy@s1
  2024   001C5A  CFDD F03F          	movff	postdec2,memcpy@s1+1
  2025   001C5E  0E00               	movlw	0
  2026   001C60  6E41               	movwf	(memcpy@n+1)^0,c
  2027   001C62  0E08               	movlw	8
  2028   001C64  6E40               	movwf	memcpy@n^0,c
  2029   001C66  EC49  F011         	call	_memcpy	;wreg free
  2030   001C6A                     
  2031                           ;usb_device.c: 2415:             USBCtrlTrfSetupHandler();
  2032   001C6A  ECAA  F00F         	call	_USBCtrlTrfSetupHandler	;wreg free
  2033                           
  2034                           ;usb_device.c: 2416:         }
  2035   001C6E  EF49  F00E         	goto	l550
  2036   001C72                     l4183:
  2037                           
  2038                           ;usb_device.c: 2418:         {;usb_device.c: 2420:             USBCtrlTrfOutHandler();
  2039   001C72  ECF1  F00F         	call	_USBCtrlTrfOutHandler	;wreg free
  2040   001C76  EF49  F00E         	goto	l550
  2041   001C7A                     l4185:
  2042   001C7A  503A               	movf	_USTATcopy^0,w,c
  2043   001C7C  0BFD               	andlw	253
  2044   001C7E  0A04               	xorlw	4
  2045   001C80  A4D8               	btfss	status,2,c
  2046   001C82  EF45  F00E         	goto	u2881
  2047   001C86  EF47  F00E         	goto	u2880
  2048   001C8A                     u2881:
  2049   001C8A  EF49  F00E         	goto	l550
  2050   001C8E                     u2880:
  2051   001C8E                     
  2052                           ;usb_device.c: 2424:     {;usb_device.c: 2427:         USBCtrlTrfInHandler();
  2053   001C8E  EC09  F00B         	call	_USBCtrlTrfInHandler	;wreg free
  2054   001C92                     l550:
  2055   001C92  0012               	return		;funcret
  2056   001C94                     __end_of_USBCtrlEPService:
  2057                           	callstack 0
  2058                           
  2059 ;; *************** function _memcpy *****************
  2060 ;; Defined at:
  2061 ;;		line 4 in file "C:\Program Files\Microchip\xc8\v2.41\pic\sources\c99\common\memcpy.c"
  2062 ;; Parameters:    Size  Location     Type
  2063 ;;  d1              2    0[COMRAM] PTR void 
  2064 ;;		 -> SetupPkt(8), 
  2065 ;;  s1              2    2[COMRAM] PTR const void 
  2066 ;;		 -> CtrlTrfData(8), RAM(767), SetupPkt(8), 
  2067 ;;  n               2    4[COMRAM] unsigned int 
  2068 ;; Auto vars:     Size  Location     Type
  2069 ;;  s               2    8[COMRAM] PTR const unsigned char 
  2070 ;;		 -> CtrlTrfData(8), RAM(767), SetupPkt(8), 
  2071 ;;  d               2    6[COMRAM] PTR unsigned char 
  2072 ;;		 -> SetupPkt(8), 
  2073 ;;  tmp             1   10[COMRAM] unsigned char 
  2074 ;; Return value:  Size  Location     Type
  2075 ;;                  2    0[COMRAM] PTR void 
  2076 ;; Registers used:
  2077 ;;		wreg, fsr2l, fsr2h, status,2, status,0
  2078 ;; Tracked objects:
  2079 ;;		On entry : 0/0
  2080 ;;		On exit  : 0/0
  2081 ;;		Unchanged: 0/0
  2082 ;; Data sizes:     COMRAM   BANK0   BANK1   BANK2
  2083 ;;      Params:         6       0       0       0
  2084 ;;      Locals:         5       0       0       0
  2085 ;;      Temps:          0       0       0       0
  2086 ;;      Totals:        11       0       0       0
  2087 ;;Total ram usage:       11 bytes
  2088 ;; Hardware stack levels used: 1
  2089 ;; Hardware stack levels required when called: 1
  2090 ;; This function calls:
  2091 ;;		Nothing
  2092 ;; This function is called by:
  2093 ;;		_USBCtrlEPService
  2094 ;; This function uses a non-reentrant model
  2095 ;;
  2096                           
  2097                           	psect	text8
  2098   002292                     __ptext8:
  2099                           	callstack 0
  2100   002292                     _memcpy:
  2101                           	callstack 27
  2102   002292  C03E  F044         	movff	memcpy@s1,memcpy@s
  2103   002296  C03F  F045         	movff	memcpy@s1+1,memcpy@s+1
  2104   00229A  C03C  F042         	movff	memcpy@d1,memcpy@d
  2105   00229E  C03D  F043         	movff	memcpy@d1+1,memcpy@d+1
  2106   0022A2  EF63  F011         	goto	l3865
  2107   0022A6                     l3857:
  2108   0022A6  C044  FFD9         	movff	memcpy@s,fsr2l
  2109   0022AA  C045  FFDA         	movff	memcpy@s+1,fsr2h
  2110   0022AE  50DF               	movf	indf2,w,c
  2111   0022B0  6E46               	movwf	memcpy@tmp^0,c
  2112   0022B2  4A44               	infsnz	memcpy@s^0,f,c
  2113   0022B4  2A45               	incf	(memcpy@s+1)^0,f,c
  2114   0022B6  C042  FFD9         	movff	memcpy@d,fsr2l
  2115   0022BA  C043  FFDA         	movff	memcpy@d+1,fsr2h
  2116   0022BE  C046  FFDF         	movff	memcpy@tmp,indf2
  2117   0022C2  4A42               	infsnz	memcpy@d^0,f,c
  2118   0022C4  2A43               	incf	(memcpy@d+1)^0,f,c
  2119   0022C6                     l3865:
  2120   0022C6  0640               	decf	memcpy@n^0,f,c
  2121   0022C8  A0D8               	btfss	status,0,c
  2122   0022CA  0641               	decf	(memcpy@n+1)^0,f,c
  2123   0022CC  2840               	incf	memcpy@n^0,w,c
  2124   0022CE  E106               	bnz	u2511
  2125   0022D0  2841               	incf	(memcpy@n+1)^0,w,c
  2126   0022D2  A4D8               	btfss	status,2,c
  2127   0022D4  EF6E  F011         	goto	u2511
  2128   0022D8  EF70  F011         	goto	u2510
  2129   0022DC                     u2511:
  2130   0022DC  EF53  F011         	goto	l3857
  2131   0022E0                     u2510:
  2132   0022E0  0012               	return		;funcret
  2133   0022E2                     __end_of_memcpy:
  2134                           	callstack 0
  2135                           
  2136 ;; *************** function _USBCtrlTrfSetupHandler *****************
  2137 ;; Defined at:
  2138 ;;		line 2472 in file "usb_device.c"
  2139 ;; Parameters:    Size  Location     Type
  2140 ;;		None
  2141 ;; Auto vars:     Size  Location     Type
  2142 ;;		None
  2143 ;; Return value:  Size  Location     Type
  2144 ;;                  1    wreg      void 
  2145 ;; Registers used:
  2146 ;;		wreg, fsr0l, fsr0h, fsr2l, fsr2h, status,2, status,0, tblptrl, tblptrh, tblptru, prodl, prodh, cstack
  2147 ;; Tracked objects:
  2148 ;;		On entry : 0/0
  2149 ;;		On exit  : 0/0
  2150 ;;		Unchanged: 0/0
  2151 ;; Data sizes:     COMRAM   BANK0   BANK1   BANK2
  2152 ;;      Params:         0       0       0       0
  2153 ;;      Locals:         0       0       0       0
  2154 ;;      Temps:          0       0       0       0
  2155 ;;      Totals:         0       0       0       0
  2156 ;;Total ram usage:        0 bytes
  2157 ;; Hardware stack levels used: 1
  2158 ;; Hardware stack levels required when called: 7
  2159 ;; This function calls:
  2160 ;;		_USBCheckStdRequest
  2161 ;;		_USBCtrlEPServiceComplete
  2162 ;;		_USER_USB_CALLBACK_EVENT_HANDLER
  2163 ;; This function is called by:
  2164 ;;		_USBCtrlEPService
  2165 ;; This function uses a non-reentrant model
  2166 ;;
  2167                           
  2168                           	psect	text9
  2169   001F54                     __ptext9:
  2170                           	callstack 0
  2171   001F54                     _USBCtrlTrfSetupHandler:
  2172                           	callstack 21
  2173   001F54                     
  2174                           ;usb_device.c: 2477:     shortPacketStatus = 0;
  2175   001F54  0E00               	movlw	0
  2176   001F56  6E34               	movwf	_shortPacketStatus^0,c
  2177                           
  2178                           ;usb_device.c: 2478:     USBDeferStatusStagePacket = 0;
  2179   001F58  0E00               	movlw	0
  2180   001F5A  6E2D               	movwf	_USBDeferStatusStagePacket^0,c	;volatile
  2181                           
  2182                           ;usb_device.c: 2479:     USBDeferINDataStagePackets = 0;
  2183   001F5C  0E00               	movlw	0
  2184   001F5E  6E2A               	movwf	_USBDeferINDataStagePackets^0,c	;volatile
  2185                           
  2186                           ;usb_device.c: 2480:     USBDeferOUTDataStagePackets = 0;
  2187   001F60  0E00               	movlw	0
  2188   001F62  6E29               	movwf	_USBDeferOUTDataStagePackets^0,c	;volatile
  2189                           
  2190                           ;usb_device.c: 2481:     BothEP0OutUOWNsSet = 0;
  2191   001F64  0E00               	movlw	0
  2192   001F66  6E2F               	movwf	_BothEP0OutUOWNsSet^0,c
  2193                           
  2194                           ;usb_device.c: 2482:     controlTransferState = 0;
  2195   001F68  0E00               	movlw	0
  2196   001F6A  6E33               	movwf	_controlTransferState^0,c
  2197   001F6C                     
  2198                           ;usb_device.c: 2491:     pBDTEntryIn[0]->STAT.Val &= ~(0x80);
  2199   001F6C  C00F  FFD9         	movff	_pBDTEntryIn,fsr2l
  2200   001F70  C010  FFDA         	movff	_pBDTEntryIn+1,fsr2h
  2201   001F74  0E7F               	movlw	127
  2202   001F76  16DF               	andwf	indf2,f,c
  2203   001F78                     
  2204                           ;usb_device.c: 2493:     pBDTEntryIn[0] = (volatile BDT_ENTRY*)(((uint16_t)pBDTEntryIn[0
      +                          ]) ^ 0x0004);
  2205   001F78  0E04               	movlw	4
  2206   001F7A  180F               	xorwf	_pBDTEntryIn^0,w,c
  2207   001F7C  6E0F               	movwf	_pBDTEntryIn^0,c
  2208   001F7E  5010               	movf	(_pBDTEntryIn+1)^0,w,c
  2209   001F80  6E10               	movwf	(_pBDTEntryIn+1)^0,c
  2210   001F82                     
  2211                           ;usb_device.c: 2494:     pBDTEntryIn[0]->STAT.Val &= ~(0x80);
  2212   001F82  C00F  FFD9         	movff	_pBDTEntryIn,fsr2l
  2213   001F86  C010  FFDA         	movff	_pBDTEntryIn+1,fsr2h
  2214   001F8A  0E7F               	movlw	127
  2215   001F8C  16DF               	andwf	indf2,f,c
  2216   001F8E                     
  2217                           ;usb_device.c: 2495:     pBDTEntryIn[0] = (volatile BDT_ENTRY*)(((uint16_t)pBDTEntryIn[0
      +                          ]) ^ 0x0004);
  2218   001F8E  0E04               	movlw	4
  2219   001F90  180F               	xorwf	_pBDTEntryIn^0,w,c
  2220   001F92  6E0F               	movwf	_pBDTEntryIn^0,c
  2221   001F94  5010               	movf	(_pBDTEntryIn+1)^0,w,c
  2222   001F96  6E10               	movwf	(_pBDTEntryIn+1)^0,c
  2223   001F98                     
  2224                           ;usb_device.c: 2496:     pBDTEntryEP0OutNext->STAT.Val &= ~(0x80);
  2225   001F98  C01E  FFD9         	movff	_pBDTEntryEP0OutNext,fsr2l
  2226   001F9C  C01F  FFDA         	movff	_pBDTEntryEP0OutNext+1,fsr2h
  2227   001FA0  0E7F               	movlw	127
  2228   001FA2  16DF               	andwf	indf2,f,c
  2229   001FA4                     
  2230                           ;usb_device.c: 2498:     inPipes[0].info.Val = 0;
  2231   001FA4  0E00               	movlw	0
  2232   001FA6  6E0C               	movwf	(_inPipes+3)^0,c
  2233   001FA8                     
  2234                           ;usb_device.c: 2499:     inPipes[0].wCount.Val = 0;
  2235   001FA8  0E00               	movlw	0
  2236   001FAA  6E0E               	movwf	(_inPipes+5)^0,c
  2237   001FAC  0E00               	movlw	0
  2238   001FAE  6E0D               	movwf	(_inPipes+4)^0,c
  2239   001FB0                     
  2240                           ;usb_device.c: 2500:     outPipes[0].info.Val = 0;
  2241   001FB0  0E00               	movlw	0
  2242   001FB2  6E04               	movwf	(_outPipes+3)^0,c
  2243   001FB4                     
  2244                           ;usb_device.c: 2501:     outPipes[0].wCount.Val = 0;
  2245   001FB4  0E00               	movlw	0
  2246   001FB6  6E06               	movwf	(_outPipes+5)^0,c
  2247   001FB8  0E00               	movlw	0
  2248   001FBA  6E05               	movwf	(_outPipes+4)^0,c
  2249   001FBC                     
  2250                           ;usb_device.c: 2507:     USBCheckStdRequest();
  2251   001FBC  ECFA  F009         	call	_USBCheckStdRequest	;wreg free
  2252   001FC0                     
  2253                           ;usb_device.c: 2508:     USER_USB_CALLBACK_EVENT_HANDLER((USB_EVENT)EVENT_EP0_REQUEST,0,
      +                          0);
  2254   001FC0  0E00               	movlw	0
  2255   001FC2  6E4B               	movwf	(USER_USB_CALLBACK_EVENT_HANDLER@event+1)^0,c
  2256   001FC4  0E03               	movlw	3
  2257   001FC6  6E4A               	movwf	USER_USB_CALLBACK_EVENT_HANDLER@event^0,c
  2258   001FC8  0E00               	movlw	0
  2259   001FCA  6E4C               	movwf	USER_USB_CALLBACK_EVENT_HANDLER@pdata^0,c
  2260   001FCC  0E00               	movlw	0
  2261   001FCE  6E4D               	movwf	(USER_USB_CALLBACK_EVENT_HANDLER@pdata+1)^0,c
  2262   001FD0  0E00               	movlw	0
  2263   001FD2  6E4F               	movwf	(USER_USB_CALLBACK_EVENT_HANDLER@size+1)^0,c
  2264   001FD4  0E00               	movlw	0
  2265   001FD6  6E4E               	movwf	USER_USB_CALLBACK_EVENT_HANDLER@size^0,c
  2266   001FD8  ECA4  F00E         	call	_USER_USB_CALLBACK_EVENT_HANDLER	;wreg free
  2267   001FDC                     
  2268                           ;usb_device.c: 2521:     USBCtrlEPServiceComplete();
  2269   001FDC  EC30  F008         	call	_USBCtrlEPServiceComplete	;wreg free
  2270   001FE0  0012               	return		;funcret
  2271   001FE2                     __end_of_USBCtrlTrfSetupHandler:
  2272                           	callstack 0
  2273                           
  2274 ;; *************** function _USBCtrlEPServiceComplete *****************
  2275 ;; Defined at:
  2276 ;;		line 1620 in file "usb_device.c"
  2277 ;; Parameters:    Size  Location     Type
  2278 ;;		None
  2279 ;; Auto vars:     Size  Location     Type
  2280 ;;		None
  2281 ;; Return value:  Size  Location     Type
  2282 ;;                  1    wreg      void 
  2283 ;; Registers used:
  2284 ;;		wreg, fsr0l, fsr0h, fsr2l, fsr2h, status,2, status,0, tblptrl, tblptrh, tblptru, cstack
  2285 ;; Tracked objects:
  2286 ;;		On entry : 0/0
  2287 ;;		On exit  : 0/0
  2288 ;;		Unchanged: 0/0
  2289 ;; Data sizes:     COMRAM   BANK0   BANK1   BANK2
  2290 ;;      Params:         0       0       0       0
  2291 ;;      Locals:         0       0       0       0
  2292 ;;      Temps:          0       0       0       0
  2293 ;;      Totals:         0       0       0       0
  2294 ;;Total ram usage:        0 bytes
  2295 ;; Hardware stack levels used: 1
  2296 ;; Hardware stack levels required when called: 3
  2297 ;; This function calls:
  2298 ;;		_USBCtrlEPAllowDataStage
  2299 ;;		_USBCtrlEPAllowStatusStage
  2300 ;; This function is called by:
  2301 ;;		_USBCtrlTrfSetupHandler
  2302 ;; This function uses a non-reentrant model
  2303 ;;
  2304                           
  2305                           	psect	text10
  2306   001060                     __ptext10:
  2307                           	callstack 0
  2308   001060                     _USBCtrlEPServiceComplete:
  2309                           	callstack 24
  2310   001060                     
  2311                           ;usb_device.c: 1626:     UCONbits.PKTDIS = 0;
  2312   001060  9864               	bcf	100,4,c	;volatile
  2313                           
  2314                           ;usb_device.c: 1632:     if(inPipes[0].info.bits.busy == 0)
  2315   001062  BE0C               	btfsc	(_inPipes+3)^0,7,c
  2316   001064  EF36  F008         	goto	u2381
  2317   001068  EF38  F008         	goto	u2380
  2318   00106C                     u2381:
  2319   00106C  EF7D  F008         	goto	l454
  2320   001070                     u2380:
  2321   001070                     
  2322                           ;usb_device.c: 1633:     {;usb_device.c: 1634:         if(outPipes[0].info.bits.busy == 
      +                          1)
  2323   001070  AE04               	btfss	(_outPipes+3)^0,7,c
  2324   001072  EF3D  F008         	goto	u2391
  2325   001076  EF3F  F008         	goto	u2390
  2326   00107A                     u2391:
  2327   00107A  EF51  F008         	goto	l3729
  2328   00107E                     u2390:
  2329   00107E                     
  2330                           ;usb_device.c: 1635:         {;usb_device.c: 1636:             controlTransferState = 2;
  2331   00107E  0E02               	movlw	2
  2332   001080  6E33               	movwf	_controlTransferState^0,c
  2333                           
  2334                           ;usb_device.c: 1647:             if(USBDeferOUTDataStagePackets == 0)
  2335   001082  5029               	movf	_USBDeferOUTDataStagePackets^0,w,c	;volatile
  2336   001084  A4D8               	btfss	status,2,c
  2337   001086  EF47  F008         	goto	u2401
  2338   00108A  EF49  F008         	goto	u2400
  2339   00108E                     u2401:
  2340   00108E  EF4B  F008         	goto	l3725
  2341   001092                     u2400:
  2342   001092                     
  2343                           ;usb_device.c: 1648:             {;usb_device.c: 1649:                 USBCtrlEPAllowDat
      +                          aStage();
  2344   001092  EC54  F00F         	call	_USBCtrlEPAllowDataStage	;wreg free
  2345   001096                     l3725:
  2346                           
  2347                           ;usb_device.c: 1654:             USBStatusStageEnabledFlag2 = 0;
  2348   001096  0E00               	movlw	0
  2349   001098  6E2B               	movwf	_USBStatusStageEnabledFlag2^0,c	;volatile
  2350   00109A                     
  2351                           ;usb_device.c: 1655:             USBStatusStageEnabledFlag1 = 0;
  2352   00109A  0E00               	movlw	0
  2353   00109C  6E2C               	movwf	_USBStatusStageEnabledFlag1^0,c	;volatile
  2354                           
  2355                           ;usb_device.c: 1656:         }
  2356   00109E  EFCF  F008         	goto	l464
  2357   0010A2                     l3729:
  2358                           
  2359                           ;usb_device.c: 1658:         {;usb_device.c: 1663:             pBDTEntryEP0OutNext->CNT 
      +                          = 8;
  2360   0010A2  EE20 F001          	lfsr	2,1
  2361   0010A6  501E               	movf	_pBDTEntryEP0OutNext^0,w,c
  2362   0010A8  26D9               	addwf	fsr2l,f,c
  2363   0010AA  501F               	movf	(_pBDTEntryEP0OutNext+1)^0,w,c
  2364   0010AC  22DA               	addwfc	fsr2h,f,c
  2365   0010AE  0E08               	movlw	8
  2366   0010B0  6EDF               	movwf	indf2,c
  2367                           
  2368                           ;usb_device.c: 1664:             pBDTEntryEP0OutNext->ADR = ((uint16_t)(&SetupPkt));
  2369   0010B2  EE20 F002          	lfsr	2,2
  2370   0010B6  501E               	movf	_pBDTEntryEP0OutNext^0,w,c
  2371   0010B8  26D9               	addwf	fsr2l,f,c
  2372   0010BA  501F               	movf	(_pBDTEntryEP0OutNext+1)^0,w,c
  2373   0010BC  22DA               	addwfc	fsr2h,f,c
  2374   0010BE  0E30               	movlw	48
  2375   0010C0  6EDE               	movwf	postinc2,c
  2376   0010C2  0E02               	movlw	2
  2377   0010C4  6EDD               	movwf	postdec2,c
  2378   0010C6                     
  2379                           ;usb_device.c: 1665:             pBDTEntryEP0OutNext->STAT.Val = 0x00|(0x08 & 0x08)|0x04
      +                          ;
  2380   0010C6  C01E  FFD9         	movff	_pBDTEntryEP0OutNext,fsr2l
  2381   0010CA  C01F  FFDA         	movff	_pBDTEntryEP0OutNext+1,fsr2h
  2382   0010CE  0E0C               	movlw	12
  2383   0010D0  6EDF               	movwf	indf2,c
  2384   0010D2                     
  2385                           ;usb_device.c: 1666:             pBDTEntryEP0OutNext->STAT.Val |= 0x80;
  2386   0010D2  C01E  FFD9         	movff	_pBDTEntryEP0OutNext,fsr2l
  2387   0010D6  C01F  FFDA         	movff	_pBDTEntryEP0OutNext+1,fsr2h
  2388   0010DA  0E00               	movlw	0
  2389   0010DC  8EDB               	bsf	plusw2,7,c
  2390                           
  2391                           ;usb_device.c: 1667:             pBDTEntryIn[0]->STAT.Val = 0x04;
  2392   0010DE  C00F  FFD9         	movff	_pBDTEntryIn,fsr2l
  2393   0010E2  C010  FFDA         	movff	_pBDTEntryIn+1,fsr2h
  2394   0010E6  0E04               	movlw	4
  2395   0010E8  6EDF               	movwf	indf2,c
  2396   0010EA                     
  2397                           ;usb_device.c: 1668:             pBDTEntryIn[0]->STAT.Val |= 0x80;
  2398   0010EA  C00F  FFD9         	movff	_pBDTEntryIn,fsr2l
  2399   0010EE  C010  FFDA         	movff	_pBDTEntryIn+1,fsr2h
  2400   0010F2  0E00               	movlw	0
  2401   0010F4  8EDB               	bsf	plusw2,7,c
  2402   0010F6  EFCF  F008         	goto	l464
  2403   0010FA                     l454:
  2404                           
  2405                           ;usb_device.c: 1672:     {;usb_device.c: 1673:   if(SetupPkt.DataDir == (0x80>>7))
  2406   0010FA  0102               	movlb	2	; () banked
  2407   0010FC  AF30               	btfss	48,7,b	;volatile
  2408   0010FE  EF83  F008         	goto	u2411
  2409   001102  EF85  F008         	goto	u2410
  2410   001106                     u2411:
  2411   001106  EFA1  F008         	goto	l3749
  2412   00110A                     u2410:
  2413   00110A                     
  2414                           ; BSR set to: 2
  2415                           ;usb_device.c: 1674:   {;usb_device.c: 1675:    controlTransferState = 1;
  2416   00110A  0E01               	movlw	1
  2417   00110C  6E33               	movwf	_controlTransferState^0,c
  2418                           
  2419                           ;usb_device.c: 1689:    if(USBDeferINDataStagePackets == 0)
  2420   00110E  502A               	movf	_USBDeferINDataStagePackets^0,w,c	;volatile
  2421   001110  A4D8               	btfss	status,2,c
  2422   001112  EF8D  F008         	goto	u2421
  2423   001116  EF8F  F008         	goto	u2420
  2424   00111A                     u2421:
  2425   00111A  EF91  F008         	goto	l3741
  2426   00111E                     u2420:
  2427   00111E                     
  2428                           ; BSR set to: 2
  2429                           ;usb_device.c: 1690:             {;usb_device.c: 1691:                 USBCtrlEPAllowDat
      +                          aStage();
  2430   00111E  EC54  F00F         	call	_USBCtrlEPAllowDataStage	;wreg free
  2431   001122                     l3741:
  2432                           
  2433                           ;usb_device.c: 1714:             USBStatusStageEnabledFlag2 = 0;
  2434   001122  0E00               	movlw	0
  2435   001124  6E2B               	movwf	_USBStatusStageEnabledFlag2^0,c	;volatile
  2436   001126                     
  2437                           ;usb_device.c: 1715:             USBStatusStageEnabledFlag1 = 0;
  2438   001126  0E00               	movlw	0
  2439   001128  6E2C               	movwf	_USBStatusStageEnabledFlag1^0,c	;volatile
  2440   00112A                     
  2441                           ;usb_device.c: 1716:             if(USBDeferStatusStagePacket == 0)
  2442   00112A  502D               	movf	_USBDeferStatusStagePacket^0,w,c	;volatile
  2443   00112C  A4D8               	btfss	status,2,c
  2444   00112E  EF9B  F008         	goto	u2431
  2445   001132  EF9D  F008         	goto	u2430
  2446   001136                     u2431:
  2447   001136  EFCF  F008         	goto	l464
  2448   00113A                     u2430:
  2449   00113A                     l3747:
  2450                           
  2451                           ;usb_device.c: 1717:             {;usb_device.c: 1718:                 USBCtrlEPAllowSta
      +                          tusStage();
  2452   00113A  EC06  F00D         	call	_USBCtrlEPAllowStatusStage	;wreg free
  2453   00113E  EFCF  F008         	goto	l464
  2454   001142                     l3749:
  2455                           
  2456                           ; BSR set to: 2
  2457                           ;usb_device.c: 1722:   {;usb_device.c: 1733:    controlTransferState = 2;
  2458   001142  0E02               	movlw	2
  2459   001144  6E33               	movwf	_controlTransferState^0,c
  2460   001146                     
  2461                           ; BSR set to: 2
  2462                           ;usb_device.c: 1736:    pBDTEntryEP0OutNext->CNT = 8;
  2463   001146  EE20 F001          	lfsr	2,1
  2464   00114A  501E               	movf	_pBDTEntryEP0OutNext^0,w,c
  2465   00114C  26D9               	addwf	fsr2l,f,c
  2466   00114E  501F               	movf	(_pBDTEntryEP0OutNext+1)^0,w,c
  2467   001150  22DA               	addwfc	fsr2h,f,c
  2468   001152  0E08               	movlw	8
  2469   001154  6EDF               	movwf	indf2,c
  2470   001156                     
  2471                           ; BSR set to: 2
  2472                           ;usb_device.c: 1737:    pBDTEntryEP0OutNext->ADR = ((uint16_t)(&SetupPkt));
  2473   001156  EE20 F002          	lfsr	2,2
  2474   00115A  501E               	movf	_pBDTEntryEP0OutNext^0,w,c
  2475   00115C  26D9               	addwf	fsr2l,f,c
  2476   00115E  501F               	movf	(_pBDTEntryEP0OutNext+1)^0,w,c
  2477   001160  22DA               	addwfc	fsr2h,f,c
  2478   001162  0E30               	movlw	48
  2479   001164  6EDE               	movwf	postinc2,c
  2480   001166  0E02               	movlw	2
  2481   001168  6EDD               	movwf	postdec2,c
  2482   00116A                     
  2483                           ; BSR set to: 2
  2484                           ;usb_device.c: 1738:    pBDTEntryEP0OutNext->STAT.Val = 0x04;
  2485   00116A  C01E  FFD9         	movff	_pBDTEntryEP0OutNext,fsr2l
  2486   00116E  C01F  FFDA         	movff	_pBDTEntryEP0OutNext+1,fsr2h
  2487   001172  0E04               	movlw	4
  2488   001174  6EDF               	movwf	indf2,c
  2489   001176                     
  2490                           ; BSR set to: 2
  2491                           ;usb_device.c: 1739:             pBDTEntryEP0OutNext->STAT.Val |= 0x80;
  2492   001176  C01E  FFD9         	movff	_pBDTEntryEP0OutNext,fsr2l
  2493   00117A  C01F  FFDA         	movff	_pBDTEntryEP0OutNext+1,fsr2h
  2494   00117E  0E00               	movlw	0
  2495   001180  8EDB               	bsf	plusw2,7,c
  2496   001182                     
  2497                           ; BSR set to: 2
  2498                           ;usb_device.c: 1742:             USBStatusStageEnabledFlag2 = 0;
  2499   001182  0E00               	movlw	0
  2500   001184  6E2B               	movwf	_USBStatusStageEnabledFlag2^0,c	;volatile
  2501   001186                     
  2502                           ; BSR set to: 2
  2503                           ;usb_device.c: 1743:             USBStatusStageEnabledFlag1 = 0;
  2504   001186  0E00               	movlw	0
  2505   001188  6E2C               	movwf	_USBStatusStageEnabledFlag1^0,c	;volatile
  2506   00118A                     
  2507                           ; BSR set to: 2
  2508                           ;usb_device.c: 1744:    if(USBDeferStatusStagePacket == 0)
  2509   00118A  502D               	movf	_USBDeferStatusStagePacket^0,w,c	;volatile
  2510   00118C  A4D8               	btfss	status,2,c
  2511   00118E  EFCB  F008         	goto	u2441
  2512   001192  EFCD  F008         	goto	u2440
  2513   001196                     u2441:
  2514   001196  EFCF  F008         	goto	l464
  2515   00119A                     u2440:
  2516   00119A  EF9D  F008         	goto	l3747
  2517   00119E                     l464:
  2518   00119E  0012               	return		;funcret
  2519   0011A0                     __end_of_USBCtrlEPServiceComplete:
  2520                           	callstack 0
  2521                           
  2522 ;; *************** function _USBCtrlEPAllowDataStage *****************
  2523 ;; Defined at:
  2524 ;;		line 1492 in file "usb_device.c"
  2525 ;; Parameters:    Size  Location     Type
  2526 ;;		None
  2527 ;; Auto vars:     Size  Location     Type
  2528 ;;		None
  2529 ;; Return value:  Size  Location     Type
  2530 ;;                  1    wreg      void 
  2531 ;; Registers used:
  2532 ;;		wreg, fsr0l, fsr0h, fsr2l, fsr2h, status,2, status,0, tblptrl, tblptrh, tblptru, cstack
  2533 ;; Tracked objects:
  2534 ;;		On entry : 0/0
  2535 ;;		On exit  : 0/0
  2536 ;;		Unchanged: 0/0
  2537 ;; Data sizes:     COMRAM   BANK0   BANK1   BANK2
  2538 ;;      Params:         0       0       0       0
  2539 ;;      Locals:         0       0       0       0
  2540 ;;      Temps:          0       0       0       0
  2541 ;;      Totals:         0       0       0       0
  2542 ;;Total ram usage:        0 bytes
  2543 ;; Hardware stack levels used: 1
  2544 ;; Hardware stack levels required when called: 2
  2545 ;; This function calls:
  2546 ;;		_USBCtrlTrfTxService
  2547 ;; This function is called by:
  2548 ;;		_USBCtrlEPServiceComplete
  2549 ;; This function uses a non-reentrant model
  2550 ;;
  2551                           
  2552                           	psect	text11
  2553   001EA8                     __ptext11:
  2554                           	callstack 0
  2555   001EA8                     _USBCtrlEPAllowDataStage:
  2556                           	callstack 24
  2557   001EA8                     
  2558                           ;usb_device.c: 1494:     USBDeferINDataStagePackets = 0;
  2559   001EA8  0E00               	movlw	0
  2560   001EAA  6E2A               	movwf	_USBDeferINDataStagePackets^0,c	;volatile
  2561                           
  2562                           ;usb_device.c: 1495:     USBDeferOUTDataStagePackets = 0;
  2563   001EAC  0E00               	movlw	0
  2564   001EAE  6E29               	movwf	_USBDeferOUTDataStagePackets^0,c	;volatile
  2565   001EB0                     
  2566                           ;usb_device.c: 1497:     if(controlTransferState == 2)
  2567   001EB0  0E02               	movlw	2
  2568   001EB2  1833               	xorwf	_controlTransferState^0,w,c
  2569   001EB4  A4D8               	btfss	status,2,c
  2570   001EB6  EF5F  F00F         	goto	u2041
  2571   001EBA  EF61  F00F         	goto	u2040
  2572   001EBE                     u2041:
  2573   001EBE  EF81  F00F         	goto	l3507
  2574   001EC2                     u2040:
  2575   001EC2                     
  2576                           ;usb_device.c: 1498:     {;usb_device.c: 1500:         pBDTEntryEP0OutNext->CNT = 8;
  2577   001EC2  EE20 F001          	lfsr	2,1
  2578   001EC6  501E               	movf	_pBDTEntryEP0OutNext^0,w,c
  2579   001EC8  26D9               	addwf	fsr2l,f,c
  2580   001ECA  501F               	movf	(_pBDTEntryEP0OutNext+1)^0,w,c
  2581   001ECC  22DA               	addwfc	fsr2h,f,c
  2582   001ECE  0E08               	movlw	8
  2583   001ED0  6EDF               	movwf	indf2,c
  2584                           
  2585                           ;usb_device.c: 1501:         pBDTEntryEP0OutNext->ADR = ((uint16_t)(&CtrlTrfData));
  2586   001ED2  EE20 F002          	lfsr	2,2
  2587   001ED6  501E               	movf	_pBDTEntryEP0OutNext^0,w,c
  2588   001ED8  26D9               	addwf	fsr2l,f,c
  2589   001EDA  501F               	movf	(_pBDTEntryEP0OutNext+1)^0,w,c
  2590   001EDC  22DA               	addwfc	fsr2h,f,c
  2591   001EDE  0E38               	movlw	56
  2592   001EE0  6EDE               	movwf	postinc2,c
  2593   001EE2  0E02               	movlw	2
  2594   001EE4  6EDD               	movwf	postdec2,c
  2595   001EE6                     
  2596                           ;usb_device.c: 1502:         pBDTEntryEP0OutNext->STAT.Val = 0x40|(0x08 & 0x08);
  2597   001EE6  C01E  FFD9         	movff	_pBDTEntryEP0OutNext,fsr2l
  2598   001EEA  C01F  FFDA         	movff	_pBDTEntryEP0OutNext+1,fsr2h
  2599   001EEE  0E48               	movlw	72
  2600   001EF0  6EDF               	movwf	indf2,c
  2601   001EF2                     
  2602                           ;usb_device.c: 1503:         pBDTEntryEP0OutNext->STAT.Val |= 0x80;
  2603   001EF2  C01E  FFD9         	movff	_pBDTEntryEP0OutNext,fsr2l
  2604   001EF6  C01F  FFDA         	movff	_pBDTEntryEP0OutNext+1,fsr2h
  2605   001EFA  0E00               	movlw	0
  2606   001EFC  8EDB               	bsf	plusw2,7,c
  2607                           
  2608                           ;usb_device.c: 1504:     }
  2609   001EFE  EFA9  F00F         	goto	l446
  2610   001F02                     l3507:
  2611                           
  2612                           ;usb_device.c: 1506:     {;usb_device.c: 1509:   if(SetupPkt.wLength < inPipes[0].wCount
      +                          .Val)
  2613   001F02  500D               	movf	(_inPipes+4)^0,w,c
  2614   001F04  0102               	movlb	2	; () banked
  2615   001F06  5D36               	subwf	54,w,b	;volatile
  2616   001F08  500E               	movf	(_inPipes+5)^0,w,c
  2617   001F0A  5937               	subwfb	55,w,b	;volatile
  2618   001F0C  B0D8               	btfsc	status,0,c
  2619   001F0E  EF8B  F00F         	goto	u2051
  2620   001F12  EF8D  F00F         	goto	u2050
  2621   001F16                     u2051:
  2622   001F16  EF91  F00F         	goto	l3511
  2623   001F1A                     u2050:
  2624   001F1A                     
  2625                           ; BSR set to: 2
  2626                           ;usb_device.c: 1510:   {;usb_device.c: 1511:    inPipes[0].wCount.Val = SetupPkt.wLength
      +                          ;
  2627   001F1A  C236 F00D          	movff	566,_inPipes+4	;volatile
  2628   001F1E  C237 F00E          	movff	567,_inPipes+5	;volatile
  2629   001F22                     l3511:
  2630                           
  2631                           ; BSR set to: 2
  2632                           ;usb_device.c: 1513:   USBCtrlTrfTxService();
  2633   001F22  EC84  F00A         	call	_USBCtrlTrfTxService	;wreg free
  2634   001F26                     
  2635                           ;usb_device.c: 1518:   pBDTEntryIn[0]->ADR = ((uint16_t)(&CtrlTrfData));
  2636   001F26  EE20 F002          	lfsr	2,2
  2637   001F2A  500F               	movf	_pBDTEntryIn^0,w,c
  2638   001F2C  26D9               	addwf	fsr2l,f,c
  2639   001F2E  5010               	movf	(_pBDTEntryIn+1)^0,w,c
  2640   001F30  22DA               	addwfc	fsr2h,f,c
  2641   001F32  0E38               	movlw	56
  2642   001F34  6EDE               	movwf	postinc2,c
  2643   001F36  0E02               	movlw	2
  2644   001F38  6EDD               	movwf	postdec2,c
  2645   001F3A                     
  2646                           ;usb_device.c: 1519:   pBDTEntryIn[0]->STAT.Val = 0x40|(0x08 & 0x08);
  2647   001F3A  C00F  FFD9         	movff	_pBDTEntryIn,fsr2l
  2648   001F3E  C010  FFDA         	movff	_pBDTEntryIn+1,fsr2h
  2649   001F42  0E48               	movlw	72
  2650   001F44  6EDF               	movwf	indf2,c
  2651   001F46                     
  2652                           ;usb_device.c: 1520:         pBDTEntryIn[0]->STAT.Val |= 0x80;
  2653   001F46  C00F  FFD9         	movff	_pBDTEntryIn,fsr2l
  2654   001F4A  C010  FFDA         	movff	_pBDTEntryIn+1,fsr2h
  2655   001F4E  0E00               	movlw	0
  2656   001F50  8EDB               	bsf	plusw2,7,c
  2657   001F52                     l446:
  2658   001F52  0012               	return		;funcret
  2659   001F54                     __end_of_USBCtrlEPAllowDataStage:
  2660                           	callstack 0
  2661                           
  2662 ;; *************** function _USBCheckStdRequest *****************
  2663 ;; Defined at:
  2664 ;;		line 2693 in file "usb_device.c"
  2665 ;; Parameters:    Size  Location     Type
  2666 ;;		None
  2667 ;; Auto vars:     Size  Location     Type
  2668 ;;		None
  2669 ;; Return value:  Size  Location     Type
  2670 ;;                  1    wreg      void 
  2671 ;; Registers used:
  2672 ;;		wreg, fsr0l, fsr0h, fsr2l, fsr2h, status,2, status,0, tblptrl, tblptrh, tblptru, prodl, prodh, cstack
  2673 ;; Tracked objects:
  2674 ;;		On entry : 0/0
  2675 ;;		On exit  : 0/0
  2676 ;;		Unchanged: 0/0
  2677 ;; Data sizes:     COMRAM   BANK0   BANK1   BANK2
  2678 ;;      Params:         0       0       0       0
  2679 ;;      Locals:         0       0       0       0
  2680 ;;      Temps:          2       0       0       0
  2681 ;;      Totals:         2       0       0       0
  2682 ;;Total ram usage:        2 bytes
  2683 ;; Hardware stack levels used: 1
  2684 ;; Hardware stack levels required when called: 6
  2685 ;; This function calls:
  2686 ;;		_USBStdFeatureReqHandler
  2687 ;;		_USBStdGetDscHandler
  2688 ;;		_USBStdGetStatusHandler
  2689 ;;		_USBStdSetCfgHandler
  2690 ;;		_USER_USB_CALLBACK_EVENT_HANDLER
  2691 ;; This function is called by:
  2692 ;;		_USBCtrlTrfSetupHandler
  2693 ;; This function uses a non-reentrant model
  2694 ;;
  2695                           
  2696                           	psect	text12
  2697   0013F4                     __ptext12:
  2698                           	callstack 0
  2699   0013F4                     _USBCheckStdRequest:
  2700                           	callstack 21
  2701   0013F4                     
  2702                           ;usb_device.c: 2695:     if(SetupPkt.RequestType != (0x00>>5)) return;
  2703   0013F4  0102               	movlb	2	; () banked
  2704   0013F6  3930               	swapf	48,w,b	;volatile
  2705   0013F8  32E8               	rrcf	wreg,f,c
  2706   0013FA  0B03               	andlw	3
  2707   0013FC  0900               	iorlw	0
  2708   0013FE  B4D8               	btfsc	status,2,c
  2709   001400  EF04  F00A         	goto	u2501
  2710   001404  EF06  F00A         	goto	u2500
  2711   001408                     u2501:
  2712   001408  EF4A  F00A         	goto	l3847
  2713   00140C                     u2500:
  2714   00140C  EF83  F00A         	goto	l578
  2715   001410                     l580:
  2716                           
  2717                           ; BSR set to: 2
  2718                           ;usb_device.c: 2700:             inPipes[0].info.bits.busy = 1;
  2719   001410  8E0C               	bsf	(_inPipes+3)^0,7,c
  2720   001412                     
  2721                           ; BSR set to: 2
  2722                           ;usb_device.c: 2701:             USBDeviceState = ADR_PENDING_STATE;
  2723   001412  0E08               	movlw	8
  2724   001414  6E37               	movwf	_USBDeviceState^0,c
  2725                           
  2726                           ;usb_device.c: 2703:             break;
  2727   001416  EF83  F00A         	goto	l578
  2728   00141A                     l3817:
  2729                           
  2730                           ; BSR set to: 2
  2731                           ;usb_device.c: 2705:             USBStdGetDscHandler();
  2732   00141A  EC45  F006         	call	_USBStdGetDscHandler	;wreg free
  2733                           
  2734                           ;usb_device.c: 2706:             break;
  2735   00141E  EF83  F00A         	goto	l578
  2736   001422                     l3819:
  2737                           
  2738                           ; BSR set to: 2
  2739                           ;usb_device.c: 2708:             USBStdSetCfgHandler();
  2740   001422  EC7D  F00D         	call	_USBStdSetCfgHandler	;wreg free
  2741                           
  2742                           ;usb_device.c: 2709:             break;
  2743   001426  EF83  F00A         	goto	l578
  2744   00142A                     l3821:
  2745                           
  2746                           ; BSR set to: 2
  2747                           ;usb_device.c: 2711:             inPipes[0].pSrc.bRam = (uint8_t*)&USBActiveConfiguratio
      +                          n;
  2748   00142A  0E3B               	movlw	low _USBActiveConfiguration
  2749   00142C  6E09               	movwf	_inPipes^0,c
  2750   00142E  0E00               	movlw	high _USBActiveConfiguration
  2751   001430  6E0A               	movwf	(_inPipes+1)^0,c
  2752   001432                     l3823:
  2753                           
  2754                           ; BSR set to: 2
  2755                           ;usb_device.c: 2712:             inPipes[0].info.bits.ctrl_trf_mem = 0x01;
  2756   001432  800C               	bsf	(_inPipes+3)^0,0,c
  2757   001434                     
  2758                           ; BSR set to: 2
  2759                           ;usb_device.c: 2713:             inPipes[0].wCount.v[0] = 1;
  2760   001434  0E01               	movlw	1
  2761   001436  6E0D               	movwf	(_inPipes+4)^0,c
  2762   001438                     
  2763                           ; BSR set to: 2
  2764                           ;usb_device.c: 2714:             inPipes[0].info.bits.busy = 1;
  2765   001438  8E0C               	bsf	(_inPipes+3)^0,7,c
  2766                           
  2767                           ;usb_device.c: 2715:             break;
  2768   00143A  EF83  F00A         	goto	l578
  2769   00143E                     l3829:
  2770                           
  2771                           ; BSR set to: 2
  2772                           ;usb_device.c: 2717:             USBStdGetStatusHandler();
  2773   00143E  EC6F  F009         	call	_USBStdGetStatusHandler	;wreg free
  2774                           
  2775                           ;usb_device.c: 2718:             break;
  2776   001442  EF83  F00A         	goto	l578
  2777   001446                     l3831:
  2778                           
  2779                           ; BSR set to: 2
  2780                           ;usb_device.c: 2721:             USBStdFeatureReqHandler();
  2781   001446  ECE6  F001         	call	_USBStdFeatureReqHandler	;wreg free
  2782                           
  2783                           ;usb_device.c: 2722:             break;
  2784   00144A  EF83  F00A         	goto	l578
  2785   00144E                     l3833:
  2786                           
  2787                           ; BSR set to: 2
  2788                           ;usb_device.c: 2724:             inPipes[0].pSrc.bRam = (uint8_t*)&USBAlternateInterface
      +                          [SetupPkt.bIntfID];
  2789   00144E  0E38               	movlw	low _USBAlternateInterface
  2790   001450  2534               	addwf	52,w,b	;volatile
  2791   001452  6E09               	movwf	_inPipes^0,c
  2792   001454  6A0A               	clrf	(_inPipes+1)^0,c
  2793   001456  0E00               	movlw	high _USBAlternateInterface
  2794   001458  220A               	addwfc	(_inPipes+1)^0,f,c
  2795   00145A  EF19  F00A         	goto	l3823
  2796   00145E                     l589:
  2797                           
  2798                           ; BSR set to: 2
  2799                           ;usb_device.c: 2730:             inPipes[0].info.bits.busy = 1;
  2800   00145E  8E0C               	bsf	(_inPipes+3)^0,7,c
  2801   001460                     
  2802                           ; BSR set to: 2
  2803                           ;usb_device.c: 2731:             USBAlternateInterface[SetupPkt.bIntfID] = SetupPkt.bAlt
      +                          ID;
  2804   001460  0E38               	movlw	low _USBAlternateInterface
  2805   001462  2534               	addwf	52,w,b	;volatile
  2806   001464  6ED9               	movwf	fsr2l,c
  2807   001466  6ADA               	clrf	fsr2h,c
  2808   001468  0E00               	movlw	high _USBAlternateInterface
  2809   00146A  22DA               	addwfc	fsr2h,f,c
  2810   00146C  C232 FFDF          	movff	562,indf2	;volatile
  2811                           
  2812                           ;usb_device.c: 2732:             break;
  2813   001470  EF83  F00A         	goto	l578
  2814   001474                     l3843:
  2815                           
  2816                           ; BSR set to: 2
  2817                           ;usb_device.c: 2734:             USER_USB_CALLBACK_EVENT_HANDLER((USB_EVENT)EVENT_SET_DE
      +                          SCRIPTOR,0,0);
  2818   001474  0E00               	movlw	0
  2819   001476  6E4B               	movwf	(USER_USB_CALLBACK_EVENT_HANDLER@event+1)^0,c
  2820   001478  0E02               	movlw	2
  2821   00147A  6E4A               	movwf	USER_USB_CALLBACK_EVENT_HANDLER@event^0,c
  2822   00147C  0E00               	movlw	0
  2823   00147E  6E4C               	movwf	USER_USB_CALLBACK_EVENT_HANDLER@pdata^0,c
  2824   001480  0E00               	movlw	0
  2825   001482  6E4D               	movwf	(USER_USB_CALLBACK_EVENT_HANDLER@pdata+1)^0,c
  2826   001484  0E00               	movlw	0
  2827   001486  6E4F               	movwf	(USER_USB_CALLBACK_EVENT_HANDLER@size+1)^0,c
  2828   001488  0E00               	movlw	0
  2829   00148A  6E4E               	movwf	USER_USB_CALLBACK_EVENT_HANDLER@size^0,c
  2830   00148C  ECA4  F00E         	call	_USER_USB_CALLBACK_EVENT_HANDLER	;wreg free
  2831                           
  2832                           ;usb_device.c: 2735:             break;
  2833   001490  EF83  F00A         	goto	l578
  2834   001494                     l3847:
  2835                           
  2836                           ; BSR set to: 2
  2837   001494  5131               	movf	49,w,b	;volatile
  2838   001496  6E59               	movwf	??_USBCheckStdRequest^0,c
  2839   001498  6A5A               	clrf	(??_USBCheckStdRequest+1)^0,c
  2840                           
  2841                           ; Switch on 2 bytes has been partitioned into a top level switch of size 1, and 1 sub-sw
      +                          itches
  2842                           ; Switch size 1, requested type "simple"
  2843                           ; Number of cases is 1, Range of values is 0 to 0
  2844                           ; switch strategies available:
  2845                           ; Name         Instructions Cycles
  2846                           ; simple_byte            4     3 (average)
  2847                           ;	Chosen strategy is simple_byte
  2848   00149A  505A               	movf	(??_USBCheckStdRequest+1)^0,w,c
  2849   00149C  0A00               	xorlw	0	; case 0
  2850   00149E  B4D8               	btfsc	status,2,c
  2851   0014A0  EF54  F00A         	goto	l4781
  2852   0014A4  EF83  F00A         	goto	l578
  2853   0014A8                     l4781:
  2854                           
  2855                           ; BSR set to: 2
  2856                           ; Switch size 1, requested type "simple"
  2857                           ; Number of cases is 11, Range of values is 0 to 12
  2858                           ; switch strategies available:
  2859                           ; Name         Instructions Cycles
  2860                           ; simple_byte           34    18 (average)
  2861                           ;	Chosen strategy is simple_byte
  2862   0014A8  5059               	movf	??_USBCheckStdRequest^0,w,c
  2863   0014AA  0A00               	xorlw	0	; case 0
  2864   0014AC  B4D8               	btfsc	status,2,c
  2865   0014AE  EF1F  F00A         	goto	l3829
  2866   0014B2  0A01               	xorlw	1	; case 1
  2867   0014B4  B4D8               	btfsc	status,2,c
  2868   0014B6  EF23  F00A         	goto	l3831
  2869   0014BA  0A02               	xorlw	2	; case 3
  2870   0014BC  B4D8               	btfsc	status,2,c
  2871   0014BE  EF23  F00A         	goto	l3831
  2872   0014C2  0A06               	xorlw	6	; case 5
  2873   0014C4  B4D8               	btfsc	status,2,c
  2874   0014C6  EF08  F00A         	goto	l580
  2875   0014CA  0A03               	xorlw	3	; case 6
  2876   0014CC  B4D8               	btfsc	status,2,c
  2877   0014CE  EF0D  F00A         	goto	l3817
  2878   0014D2  0A01               	xorlw	1	; case 7
  2879   0014D4  B4D8               	btfsc	status,2,c
  2880   0014D6  EF3A  F00A         	goto	l3843
  2881   0014DA  0A0F               	xorlw	15	; case 8
  2882   0014DC  B4D8               	btfsc	status,2,c
  2883   0014DE  EF15  F00A         	goto	l3821
  2884   0014E2  0A01               	xorlw	1	; case 9
  2885   0014E4  B4D8               	btfsc	status,2,c
  2886   0014E6  EF11  F00A         	goto	l3819
  2887   0014EA  0A03               	xorlw	3	; case 10
  2888   0014EC  B4D8               	btfsc	status,2,c
  2889   0014EE  EF27  F00A         	goto	l3833
  2890   0014F2  0A01               	xorlw	1	; case 11
  2891   0014F4  B4D8               	btfsc	status,2,c
  2892   0014F6  EF2F  F00A         	goto	l589
  2893   0014FA  0A07               	xorlw	7	; case 12
  2894   0014FC  B4D8               	btfsc	status,2,c
  2895   0014FE  EF83  F00A         	goto	l578
  2896   001502  EF83  F00A         	goto	l578
  2897   001506                     l578:
  2898   001506  0012               	return		;funcret
  2899   001508                     __end_of_USBCheckStdRequest:
  2900                           	callstack 0
  2901                           
  2902 ;; *************** function _USBStdSetCfgHandler *****************
  2903 ;; Defined at:
  2904 ;;		line 1972 in file "usb_device.c"
  2905 ;; Parameters:    Size  Location     Type
  2906 ;;		None
  2907 ;; Auto vars:     Size  Location     Type
  2908 ;;  i               1   22[COMRAM] unsigned char 
  2909 ;; Return value:  Size  Location     Type
  2910 ;;                  1    wreg      void 
  2911 ;; Registers used:
  2912 ;;		wreg, fsr2l, fsr2h, status,2, status,0, prodl, prodh, cstack
  2913 ;; Tracked objects:
  2914 ;;		On entry : 0/0
  2915 ;;		On exit  : 0/0
  2916 ;;		Unchanged: 0/0
  2917 ;; Data sizes:     COMRAM   BANK0   BANK1   BANK2
  2918 ;;      Params:         0       0       0       0
  2919 ;;      Locals:         1       0       0       0
  2920 ;;      Temps:          0       0       0       0
  2921 ;;      Totals:         1       0       0       0
  2922 ;;Total ram usage:        1 bytes
  2923 ;; Hardware stack levels used: 1
  2924 ;; Hardware stack levels required when called: 5
  2925 ;; This function calls:
  2926 ;;		_USER_USB_CALLBACK_EVENT_HANDLER
  2927 ;;		_memset
  2928 ;; This function is called by:
  2929 ;;		_USBCheckStdRequest
  2930 ;; This function uses a non-reentrant model
  2931 ;;
  2932                           
  2933                           	psect	text13
  2934   001AFA                     __ptext13:
  2935                           	callstack 0
  2936   001AFA                     _USBStdSetCfgHandler:
  2937                           	callstack 21
  2938   001AFA                     
  2939                           ;usb_device.c: 1974:     uint8_t i;;usb_device.c: 1977:     inPipes[0].info.bits.busy = 
      +                          1;
  2940   001AFA  8E0C               	bsf	(_inPipes+3)^0,7,c
  2941   001AFC                     
  2942                           ;usb_device.c: 1980:     memset((void*)&UEP1,0x00,(2));;
  2943   001AFC  0E54               	movlw	84
  2944   001AFE  6E3C               	movwf	memset@dest^0,c
  2945   001B00  0E0F               	movlw	15
  2946   001B02  6E3D               	movwf	(memset@dest+1)^0,c
  2947   001B04  0E00               	movlw	0
  2948   001B06  6E3F               	movwf	(memset@c+1)^0,c
  2949   001B08  0E00               	movlw	0
  2950   001B0A  6E3E               	movwf	memset@c^0,c
  2951   001B0C  0E00               	movlw	0
  2952   001B0E  6E41               	movwf	(memset@n+1)^0,c
  2953   001B10  0E02               	movlw	2
  2954   001B12  6E40               	movwf	memset@n^0,c
  2955   001B14  EC8A  F005         	call	_memset	;wreg free
  2956                           
  2957                           ;usb_device.c: 1983:     memset((void*)&BDT[0], 0x00, sizeof(BDT));
  2958   001B18  0E00               	movlw	0
  2959   001B1A  6E3C               	movwf	memset@dest^0,c
  2960   001B1C  0E02               	movlw	2
  2961   001B1E  6E3D               	movwf	(memset@dest+1)^0,c
  2962   001B20  0E00               	movlw	0
  2963   001B22  6E3F               	movwf	(memset@c+1)^0,c
  2964   001B24  0E00               	movlw	0
  2965   001B26  6E3E               	movwf	memset@c^0,c
  2966   001B28  0E00               	movlw	0
  2967   001B2A  6E41               	movwf	(memset@n+1)^0,c
  2968   001B2C  0E30               	movlw	48
  2969   001B2E  6E40               	movwf	memset@n^0,c
  2970   001B30  EC8A  F005         	call	_memset	;wreg free
  2971   001B34                     
  2972                           ;usb_device.c: 1986:     UCONbits.PPBRST = 1;
  2973   001B34  8C64               	bsf	100,6,c	;volatile
  2974   001B36                     
  2975                           ;usb_device.c: 1991:  for(i = 0; i < (uint8_t)(2 +1u); i++)
  2976   001B36  0E00               	movlw	0
  2977   001B38  6E52               	movwf	USBStdSetCfgHandler@i^0,c
  2978   001B3A                     l3531:
  2979                           
  2980                           ;usb_device.c: 1992:  {;usb_device.c: 1993:   ep_data_in[i].Val = 0u;
  2981   001B3A  0E15               	movlw	low _ep_data_in
  2982   001B3C  2452               	addwf	USBStdSetCfgHandler@i^0,w,c
  2983   001B3E  6ED9               	movwf	fsr2l,c
  2984   001B40  6ADA               	clrf	fsr2h,c
  2985   001B42  0E00               	movlw	high _ep_data_in
  2986   001B44  22DA               	addwfc	fsr2h,f,c
  2987   001B46  6ADF               	clrf	indf2,c
  2988                           
  2989                           ;usb_device.c: 1994:         ep_data_out[i].Val = 0u;
  2990   001B48  0E7E               	movlw	low _ep_data_out
  2991   001B4A  2452               	addwf	USBStdSetCfgHandler@i^0,w,c
  2992   001B4C  6ED9               	movwf	fsr2l,c
  2993   001B4E  6ADA               	clrf	fsr2h,c
  2994   001B50  0E00               	movlw	high _ep_data_out
  2995   001B52  22DA               	addwfc	fsr2h,f,c
  2996   001B54  6ADF               	clrf	indf2,c
  2997   001B56                     
  2998                           ;usb_device.c: 1995:  }
  2999   001B56  2A52               	incf	USBStdSetCfgHandler@i^0,f,c
  3000   001B58  0E02               	movlw	2
  3001   001B5A  6452               	cpfsgt	USBStdSetCfgHandler@i^0,c
  3002   001B5C  EFB2  F00D         	goto	u2061
  3003   001B60  EFB4  F00D         	goto	u2060
  3004   001B64                     u2061:
  3005   001B64  EF9D  F00D         	goto	l3531
  3006   001B68                     u2060:
  3007   001B68                     
  3008                           ;usb_device.c: 1998:     memset((void*)&USBAlternateInterface,0x00,2);
  3009   001B68  0E38               	movlw	low _USBAlternateInterface
  3010   001B6A  6E3C               	movwf	memset@dest^0,c
  3011   001B6C  0E00               	movlw	high _USBAlternateInterface
  3012   001B6E  6E3D               	movwf	(memset@dest+1)^0,c
  3013   001B70  0E00               	movlw	0
  3014   001B72  6E3F               	movwf	(memset@c+1)^0,c
  3015   001B74  0E00               	movlw	0
  3016   001B76  6E3E               	movwf	memset@c^0,c
  3017   001B78  0E00               	movlw	0
  3018   001B7A  6E41               	movwf	(memset@n+1)^0,c
  3019   001B7C  0E02               	movlw	2
  3020   001B7E  6E40               	movwf	memset@n^0,c
  3021   001B80  EC8A  F005         	call	_memset	;wreg free
  3022   001B84                     
  3023                           ;usb_device.c: 2001:     UCONbits.PPBRST = 0;
  3024   001B84  9C64               	bcf	100,6,c	;volatile
  3025   001B86                     
  3026                           ;usb_device.c: 2003:     pBDTEntryIn[0] = (volatile BDT_ENTRY*)&BDT[2];
  3027   001B86  0E08               	movlw	8
  3028   001B88  6E0F               	movwf	_pBDTEntryIn^0,c
  3029   001B8A  0E02               	movlw	2
  3030   001B8C  6E10               	movwf	(_pBDTEntryIn+1)^0,c
  3031   001B8E                     
  3032                           ;usb_device.c: 2006:     pBDTEntryEP0OutCurrent = (volatile BDT_ENTRY*)&BDT[0];
  3033   001B8E  0E00               	movlw	0
  3034   001B90  6E20               	movwf	_pBDTEntryEP0OutCurrent^0,c
  3035   001B92  0E02               	movlw	2
  3036   001B94  6E21               	movwf	(_pBDTEntryEP0OutCurrent+1)^0,c
  3037   001B96                     
  3038                           ;usb_device.c: 2007:     pBDTEntryEP0OutNext = pBDTEntryEP0OutCurrent;
  3039   001B96  C020  F01E         	movff	_pBDTEntryEP0OutCurrent,_pBDTEntryEP0OutNext
  3040   001B9A  C021  F01F         	movff	_pBDTEntryEP0OutCurrent+1,_pBDTEntryEP0OutNext+1
  3041   001B9E                     
  3042                           ;usb_device.c: 2010:     USBActiveConfiguration = SetupPkt.bConfigurationValue;
  3043   001B9E  C232 F03B          	movff	562,_USBActiveConfiguration	;volatile
  3044   001BA2                     
  3045                           ;usb_device.c: 2013:     if(USBActiveConfiguration == 0)
  3046   001BA2  503B               	movf	_USBActiveConfiguration^0,w,c
  3047   001BA4  A4D8               	btfss	status,2,c
  3048   001BA6  EFD7  F00D         	goto	u2071
  3049   001BAA  EFD9  F00D         	goto	u2070
  3050   001BAE                     u2071:
  3051   001BAE  EFDD  F00D         	goto	l3553
  3052   001BB2                     u2070:
  3053   001BB2                     
  3054                           ;usb_device.c: 2014:     {;usb_device.c: 2016:         USBDeviceState = ADDRESS_STATE;
  3055   001BB2  0E10               	movlw	16
  3056   001BB4  6E37               	movwf	_USBDeviceState^0,c
  3057                           
  3058                           ;usb_device.c: 2017:     }
  3059   001BB6  EFED  F00D         	goto	l499
  3060   001BBA                     l3553:
  3061                           
  3062                           ;usb_device.c: 2019:     {;usb_device.c: 2021:         USER_USB_CALLBACK_EVENT_HANDLER((
      +                          USB_EVENT)EVENT_CONFIGURED,(void*)&USBActiveConfiguration,1);
  3063   001BBA  0E00               	movlw	0
  3064   001BBC  6E4B               	movwf	(USER_USB_CALLBACK_EVENT_HANDLER@event+1)^0,c
  3065   001BBE  0E01               	movlw	1
  3066   001BC0  6E4A               	movwf	USER_USB_CALLBACK_EVENT_HANDLER@event^0,c
  3067   001BC2  0E3B               	movlw	low _USBActiveConfiguration
  3068   001BC4  6E4C               	movwf	USER_USB_CALLBACK_EVENT_HANDLER@pdata^0,c
  3069   001BC6  0E00               	movlw	high _USBActiveConfiguration
  3070   001BC8  6E4D               	movwf	(USER_USB_CALLBACK_EVENT_HANDLER@pdata+1)^0,c
  3071   001BCA  0E00               	movlw	0
  3072   001BCC  6E4F               	movwf	(USER_USB_CALLBACK_EVENT_HANDLER@size+1)^0,c
  3073   001BCE  0E01               	movlw	1
  3074   001BD0  6E4E               	movwf	USER_USB_CALLBACK_EVENT_HANDLER@size^0,c
  3075   001BD2  ECA4  F00E         	call	_USER_USB_CALLBACK_EVENT_HANDLER	;wreg free
  3076   001BD6                     
  3077                           ;usb_device.c: 2026:         USBDeviceState = CONFIGURED_STATE;
  3078   001BD6  0E20               	movlw	32
  3079   001BD8  6E37               	movwf	_USBDeviceState^0,c
  3080   001BDA                     l499:
  3081   001BDA  0012               	return		;funcret
  3082   001BDC                     __end_of_USBStdSetCfgHandler:
  3083                           	callstack 0
  3084                           
  3085 ;; *************** function _memset *****************
  3086 ;; Defined at:
  3087 ;;		line 4 in file "C:\Program Files\Microchip\xc8\v2.41\pic\sources\c99\common\memset.c"
  3088 ;; Parameters:    Size  Location     Type
  3089 ;;  dest            2    0[COMRAM] PTR void 
  3090 ;;		 -> USBAlternateInterface(2), BDT(48), UEP1(1), 
  3091 ;;  c               2    2[COMRAM] int 
  3092 ;;  n               2    4[COMRAM] unsigned int 
  3093 ;; Auto vars:     Size  Location     Type
  3094 ;;  s               2   10[COMRAM] PTR unsigned char 
  3095 ;;		 -> USBAlternateInterface(2), BDT(48), UEP1(1), 
  3096 ;;  k               2    8[COMRAM] unsigned int 
  3097 ;; Return value:  Size  Location     Type
  3098 ;;                  2    0[COMRAM] PTR void 
  3099 ;; Registers used:
  3100 ;;		wreg, fsr2l, fsr2h, status,2, status,0
  3101 ;; Tracked objects:
  3102 ;;		On entry : 0/0
  3103 ;;		On exit  : 0/0
  3104 ;;		Unchanged: 0/0
  3105 ;; Data sizes:     COMRAM   BANK0   BANK1   BANK2
  3106 ;;      Params:         6       0       0       0
  3107 ;;      Locals:         4       0       0       0
  3108 ;;      Temps:          2       0       0       0
  3109 ;;      Totals:        12       0       0       0
  3110 ;;Total ram usage:       12 bytes
  3111 ;; Hardware stack levels used: 1
  3112 ;; Hardware stack levels required when called: 1
  3113 ;; This function calls:
  3114 ;;		Nothing
  3115 ;; This function is called by:
  3116 ;;		_USBDeviceInit
  3117 ;;		_USBStdSetCfgHandler
  3118 ;; This function uses a non-reentrant model
  3119 ;;
  3120                           
  3121                           	psect	text14
  3122   000B14                     __ptext14:
  3123                           	callstack 0
  3124   000B14                     _memset:
  3125                           	callstack 27
  3126   000B14  C03C  F046         	movff	memset@dest,memset@s
  3127   000B18  C03D  F047         	movff	memset@dest+1,memset@s+1
  3128   000B1C  5040               	movf	memset@n^0,w,c
  3129   000B1E  1041               	iorwf	(memset@n+1)^0,w,c
  3130   000B20  A4D8               	btfss	status,2,c
  3131   000B22  EF95  F005         	goto	u1871
  3132   000B26  EF97  F005         	goto	u1870
  3133   000B2A                     u1871:
  3134   000B2A  EF99  F005         	goto	l3365
  3135   000B2E                     u1870:
  3136   000B2E  EF44  F006         	goto	l1451
  3137   000B32                     l3365:
  3138   000B32  C046  FFD9         	movff	memset@s,fsr2l
  3139   000B36  C047  FFDA         	movff	memset@s+1,fsr2h
  3140   000B3A  C03E  FFDF         	movff	memset@c,indf2
  3141   000B3E  5040               	movf	memset@n^0,w,c
  3142   000B40  2446               	addwf	memset@s^0,w,c
  3143   000B42  6E42               	movwf	??_memset^0,c
  3144   000B44  5041               	movf	(memset@n+1)^0,w,c
  3145   000B46  2047               	addwfc	(memset@s+1)^0,w,c
  3146   000B48  6E43               	movwf	(??_memset+1)^0,c
  3147   000B4A  0EFF               	movlw	255
  3148   000B4C  2442               	addwf	??_memset^0,w,c
  3149   000B4E  6ED9               	movwf	fsr2l,c
  3150   000B50  0EFF               	movlw	255
  3151   000B52  2043               	addwfc	(??_memset+1)^0,w,c
  3152   000B54  6EDA               	movwf	fsr2h,c
  3153   000B56  C03E  FFDF         	movff	memset@c,indf2
  3154   000B5A  5041               	movf	(memset@n+1)^0,w,c
  3155   000B5C  E107               	bnz	u1881
  3156   000B5E  0E03               	movlw	3
  3157   000B60  5C40               	subwf	memset@n^0,w,c
  3158   000B62  B0D8               	btfsc	status,0,c
  3159   000B64  EFB6  F005         	goto	u1881
  3160   000B68  EFB8  F005         	goto	u1880
  3161   000B6C                     u1881:
  3162   000B6C  EFBA  F005         	goto	l3371
  3163   000B70                     u1880:
  3164   000B70  EF44  F006         	goto	l1451
  3165   000B74                     l3371:
  3166   000B74  EE20 F001          	lfsr	2,1
  3167   000B78  5046               	movf	memset@s^0,w,c
  3168   000B7A  26D9               	addwf	fsr2l,f,c
  3169   000B7C  5047               	movf	(memset@s+1)^0,w,c
  3170   000B7E  22DA               	addwfc	fsr2h,f,c
  3171   000B80  C03E  FFDF         	movff	memset@c,indf2
  3172   000B84  EE20 F002          	lfsr	2,2
  3173   000B88  5046               	movf	memset@s^0,w,c
  3174   000B8A  26D9               	addwf	fsr2l,f,c
  3175   000B8C  5047               	movf	(memset@s+1)^0,w,c
  3176   000B8E  22DA               	addwfc	fsr2h,f,c
  3177   000B90  C03E  FFDF         	movff	memset@c,indf2
  3178   000B94  5040               	movf	memset@n^0,w,c
  3179   000B96  2446               	addwf	memset@s^0,w,c
  3180   000B98  6E42               	movwf	??_memset^0,c
  3181   000B9A  5041               	movf	(memset@n+1)^0,w,c
  3182   000B9C  2047               	addwfc	(memset@s+1)^0,w,c
  3183   000B9E  6E43               	movwf	(??_memset+1)^0,c
  3184   000BA0  0EFE               	movlw	254
  3185   000BA2  2442               	addwf	??_memset^0,w,c
  3186   000BA4  6ED9               	movwf	fsr2l,c
  3187   000BA6  0EFF               	movlw	255
  3188   000BA8  2043               	addwfc	(??_memset+1)^0,w,c
  3189   000BAA  6EDA               	movwf	fsr2h,c
  3190   000BAC  C03E  FFDF         	movff	memset@c,indf2
  3191   000BB0  5040               	movf	memset@n^0,w,c
  3192   000BB2  2446               	addwf	memset@s^0,w,c
  3193   000BB4  6E42               	movwf	??_memset^0,c
  3194   000BB6  5041               	movf	(memset@n+1)^0,w,c
  3195   000BB8  2047               	addwfc	(memset@s+1)^0,w,c
  3196   000BBA  6E43               	movwf	(??_memset+1)^0,c
  3197   000BBC  0EFD               	movlw	253
  3198   000BBE  2442               	addwf	??_memset^0,w,c
  3199   000BC0  6ED9               	movwf	fsr2l,c
  3200   000BC2  0EFF               	movlw	255
  3201   000BC4  2043               	addwfc	(??_memset+1)^0,w,c
  3202   000BC6  6EDA               	movwf	fsr2h,c
  3203   000BC8  C03E  FFDF         	movff	memset@c,indf2
  3204   000BCC  5041               	movf	(memset@n+1)^0,w,c
  3205   000BCE  E107               	bnz	u1891
  3206   000BD0  0E07               	movlw	7
  3207   000BD2  5C40               	subwf	memset@n^0,w,c
  3208   000BD4  B0D8               	btfsc	status,0,c
  3209   000BD6  EFEF  F005         	goto	u1891
  3210   000BDA  EFF1  F005         	goto	u1890
  3211   000BDE                     u1891:
  3212   000BDE  EFF3  F005         	goto	l3377
  3213   000BE2                     u1890:
  3214   000BE2  EF44  F006         	goto	l1451
  3215   000BE6                     l3377:
  3216   000BE6  EE20 F003          	lfsr	2,3
  3217   000BEA  5046               	movf	memset@s^0,w,c
  3218   000BEC  26D9               	addwf	fsr2l,f,c
  3219   000BEE  5047               	movf	(memset@s+1)^0,w,c
  3220   000BF0  22DA               	addwfc	fsr2h,f,c
  3221   000BF2  C03E  FFDF         	movff	memset@c,indf2
  3222   000BF6  5040               	movf	memset@n^0,w,c
  3223   000BF8  2446               	addwf	memset@s^0,w,c
  3224   000BFA  6E42               	movwf	??_memset^0,c
  3225   000BFC  5041               	movf	(memset@n+1)^0,w,c
  3226   000BFE  2047               	addwfc	(memset@s+1)^0,w,c
  3227   000C00  6E43               	movwf	(??_memset+1)^0,c
  3228   000C02  0EFC               	movlw	252
  3229   000C04  2442               	addwf	??_memset^0,w,c
  3230   000C06  6ED9               	movwf	fsr2l,c
  3231   000C08  0EFF               	movlw	255
  3232   000C0A  2043               	addwfc	(??_memset+1)^0,w,c
  3233   000C0C  6EDA               	movwf	fsr2h,c
  3234   000C0E  C03E  FFDF         	movff	memset@c,indf2
  3235   000C12  5041               	movf	(memset@n+1)^0,w,c
  3236   000C14  E107               	bnz	u1901
  3237   000C16  0E09               	movlw	9
  3238   000C18  5C40               	subwf	memset@n^0,w,c
  3239   000C1A  B0D8               	btfsc	status,0,c
  3240   000C1C  EF12  F006         	goto	u1901
  3241   000C20  EF14  F006         	goto	u1900
  3242   000C24                     u1901:
  3243   000C24  EF16  F006         	goto	l3383
  3244   000C28                     u1900:
  3245   000C28  EF44  F006         	goto	l1451
  3246   000C2C                     l3383:
  3247   000C2C  C046  F042         	movff	memset@s,??_memset
  3248   000C30  C047  F043         	movff	memset@s+1,??_memset+1
  3249   000C34  1E42               	comf	??_memset^0,f,c
  3250   000C36  1E43               	comf	(??_memset+1)^0,f,c
  3251   000C38  4A42               	infsnz	??_memset^0,f,c
  3252   000C3A  2A43               	incf	(??_memset+1)^0,f,c
  3253   000C3C  0E03               	movlw	3
  3254   000C3E  1442               	andwf	??_memset^0,w,c
  3255   000C40  6E44               	movwf	memset@k^0,c
  3256   000C42  6A45               	clrf	(memset@k+1)^0,c
  3257   000C44  5044               	movf	memset@k^0,w,c
  3258   000C46  2646               	addwf	memset@s^0,f,c
  3259   000C48  5045               	movf	(memset@k+1)^0,w,c
  3260   000C4A  2247               	addwfc	(memset@s+1)^0,f,c
  3261   000C4C  5044               	movf	memset@k^0,w,c
  3262   000C4E  5E40               	subwf	memset@n^0,f,c
  3263   000C50  5045               	movf	(memset@k+1)^0,w,c
  3264   000C52  5A41               	subwfb	(memset@n+1)^0,f,c
  3265   000C54  0EFC               	movlw	252
  3266   000C56  1640               	andwf	memset@n^0,f,c
  3267   000C58  0EFF               	movlw	255
  3268   000C5A  1641               	andwf	(memset@n+1)^0,f,c
  3269   000C5C  EF3B  F006         	goto	l3391
  3270   000C60                     l3385:
  3271   000C60  C046  FFD9         	movff	memset@s,fsr2l
  3272   000C64  C047  FFDA         	movff	memset@s+1,fsr2h
  3273   000C68  C03E  FFDF         	movff	memset@c,indf2
  3274   000C6C  0640               	decf	memset@n^0,f,c
  3275   000C6E  A0D8               	btfss	status,0,c
  3276   000C70  0641               	decf	(memset@n+1)^0,f,c
  3277   000C72  4A46               	infsnz	memset@s^0,f,c
  3278   000C74  2A47               	incf	(memset@s+1)^0,f,c
  3279   000C76                     l3391:
  3280   000C76  5040               	movf	memset@n^0,w,c
  3281   000C78  1041               	iorwf	(memset@n+1)^0,w,c
  3282   000C7A  A4D8               	btfss	status,2,c
  3283   000C7C  EF42  F006         	goto	u1911
  3284   000C80  EF44  F006         	goto	u1910
  3285   000C84                     u1911:
  3286   000C84  EF30  F006         	goto	l3385
  3287   000C88                     u1910:
  3288   000C88                     l1451:
  3289   000C88  0012               	return		;funcret
  3290   000C8A                     __end_of_memset:
  3291                           	callstack 0
  3292                           
  3293 ;; *************** function _USBStdGetStatusHandler *****************
  3294 ;; Defined at:
  3295 ;;		line 2133 in file "usb_device.c"
  3296 ;; Parameters:    Size  Location     Type
  3297 ;;		None
  3298 ;; Auto vars:     Size  Location     Type
  3299 ;;  p               2    2[COMRAM] PTR struct __BDT
  3300 ;;		 -> RAM(767), NULL(0), BDT(48), 
  3301 ;; Return value:  Size  Location     Type
  3302 ;;                  1    wreg      void 
  3303 ;; Registers used:
  3304 ;;		wreg, fsr2l, fsr2h, status,2, status,0, prodl, prodh
  3305 ;; Tracked objects:
  3306 ;;		On entry : 0/0
  3307 ;;		On exit  : 0/0
  3308 ;;		Unchanged: 0/0
  3309 ;; Data sizes:     COMRAM   BANK0   BANK1   BANK2
  3310 ;;      Params:         0       0       0       0
  3311 ;;      Locals:         2       0       0       0
  3312 ;;      Temps:          2       0       0       0
  3313 ;;      Totals:         4       0       0       0
  3314 ;;Total ram usage:        4 bytes
  3315 ;; Hardware stack levels used: 1
  3316 ;; Hardware stack levels required when called: 1
  3317 ;; This function calls:
  3318 ;;		Nothing
  3319 ;; This function is called by:
  3320 ;;		_USBCheckStdRequest
  3321 ;; This function uses a non-reentrant model
  3322 ;;
  3323                           
  3324                           	psect	text15
  3325   0012DE                     __ptext15:
  3326                           	callstack 0
  3327   0012DE                     _USBStdGetStatusHandler:
  3328                           	callstack 25
  3329   0012DE                     
  3330                           ;usb_device.c: 2135:     CtrlTrfData[0] = 0;
  3331   0012DE  0E00               	movlw	0
  3332   0012E0  0102               	movlb	2	; () banked
  3333   0012E2  6F38               	movwf	56,b	;volatile
  3334                           
  3335                           ;usb_device.c: 2136:     CtrlTrfData[1] = 0;
  3336   0012E4  0E00               	movlw	0
  3337   0012E6  6F39               	movwf	57,b	;volatile
  3338                           
  3339                           ;usb_device.c: 2138:     switch(SetupPkt.Recipient)
  3340   0012E8  EFD1  F009         	goto	l3619
  3341   0012EC                     l517:
  3342                           
  3343                           ; BSR set to: 2
  3344                           ;usb_device.c: 2141:             inPipes[0].info.bits.busy = 1;
  3345   0012EC  8E0C               	bsf	(_inPipes+3)^0,7,c
  3346   0012EE                     
  3347                           ; BSR set to: 2
  3348                           ;usb_device.c: 2151:             if(RemoteWakeup == 1)
  3349   0012EE  0432               	decf	_RemoteWakeup^0,w,c
  3350   0012F0  A4D8               	btfss	status,2,c
  3351   0012F2  EF7D  F009         	goto	u2141
  3352   0012F6  EF7F  F009         	goto	u2140
  3353   0012FA                     u2141:
  3354   0012FA  EFEB  F009         	goto	l520
  3355   0012FE                     u2140:
  3356   0012FE                     
  3357                           ; BSR set to: 2
  3358                           ;usb_device.c: 2152:             {;usb_device.c: 2153:                 CtrlTrfData[0]|=0
      +                          x02;
  3359   0012FE  8338               	bsf	56,1,b	;volatile
  3360   001300  EFEB  F009         	goto	l520
  3361   001304                     l521:
  3362                           
  3363                           ; BSR set to: 2
  3364                           ;usb_device.c: 2157:             inPipes[0].info.bits.busy = 1;
  3365   001304  8E0C               	bsf	(_inPipes+3)^0,7,c
  3366                           
  3367                           ;usb_device.c: 2158:             break;
  3368   001306  EFEB  F009         	goto	l520
  3369   00130A                     l522:
  3370                           
  3371                           ; BSR set to: 2
  3372                           ;usb_device.c: 2160:             inPipes[0].info.bits.busy = 1;
  3373   00130A  8E0C               	bsf	(_inPipes+3)^0,7,c
  3374   00130C                     
  3375                           ; BSR set to: 2
  3376                           ;usb_device.c: 2164:             if(SetupPkt.EPNum != 0)
  3377   00130C  5134               	movf	52,w,b	;volatile
  3378   00130E  0B0F               	andlw	15
  3379   001310  0900               	iorlw	0
  3380   001312  B4D8               	btfsc	status,2,c
  3381   001314  EF8E  F009         	goto	u2151
  3382   001318  EF90  F009         	goto	u2150
  3383   00131C                     u2151:
  3384   00131C  EFEB  F009         	goto	l520
  3385   001320                     u2150:
  3386   001320                     
  3387                           ; BSR set to: 2
  3388                           ;usb_device.c: 2165:             {;usb_device.c: 2166:                 BDT_ENTRY *p;;usb
      +                          _device.c: 2168:                 if(SetupPkt.EPDir == 0)
  3389   001320  BF34               	btfsc	52,7,b	;volatile
  3390   001322  EF95  F009         	goto	u2161
  3391   001326  EF97  F009         	goto	u2160
  3392   00132A                     u2161:
  3393   00132A  EFA8  F009         	goto	l3609
  3394   00132E                     u2160:
  3395   00132E                     
  3396                           ; BSR set to: 2
  3397                           ;usb_device.c: 2169:                 {;usb_device.c: 2170:                     p = (BDT_
      +                          ENTRY*)pBDTEntryOut[SetupPkt.EPNum];
  3398   00132E  5134               	movf	52,w,b	;volatile
  3399   001330  0B0F               	andlw	15
  3400   001332  6E3C               	movwf	??_USBStdGetStatusHandler^0,c
  3401   001334  503C               	movf	??_USBStdGetStatusHandler^0,w,c
  3402   001336  0D02               	mullw	2
  3403   001338  0E6A               	movlw	low _pBDTEntryOut
  3404   00133A  24F3               	addwf	243,w,c
  3405   00133C  6ED9               	movwf	fsr2l,c
  3406   00133E  0E00               	movlw	high _pBDTEntryOut
  3407   001340  20F4               	addwfc	prodh,w,c
  3408   001342  6EDA               	movwf	fsr2h,c
  3409   001344  CFDE F03E          	movff	postinc2,USBStdGetStatusHandler@p
  3410   001348  CFDD F03F          	movff	postdec2,USBStdGetStatusHandler@p+1
  3411                           
  3412                           ;usb_device.c: 2171:                 }
  3413   00134C  EFB7  F009         	goto	l3611
  3414   001350                     l3609:
  3415                           
  3416                           ; BSR set to: 2
  3417                           ;usb_device.c: 2173:                 {;usb_device.c: 2174:                     p = (BDT_
      +                          ENTRY*)pBDTEntryIn[SetupPkt.EPNum];
  3418   001350  5134               	movf	52,w,b	;volatile
  3419   001352  0B0F               	andlw	15
  3420   001354  6E3C               	movwf	??_USBStdGetStatusHandler^0,c
  3421   001356  503C               	movf	??_USBStdGetStatusHandler^0,w,c
  3422   001358  0D02               	mullw	2
  3423   00135A  0E0F               	movlw	low _pBDTEntryIn
  3424   00135C  24F3               	addwf	243,w,c
  3425   00135E  6ED9               	movwf	fsr2l,c
  3426   001360  0E00               	movlw	high _pBDTEntryIn
  3427   001362  20F4               	addwfc	prodh,w,c
  3428   001364  6EDA               	movwf	fsr2h,c
  3429   001366  CFDE F03E          	movff	postinc2,USBStdGetStatusHandler@p
  3430   00136A  CFDD F03F          	movff	postdec2,USBStdGetStatusHandler@p+1
  3431   00136E                     l3611:
  3432                           
  3433                           ; BSR set to: 2
  3434                           ;usb_device.c: 2177:                 if((p->STAT.UOWN == 1) && (p->STAT.BSTALL == 1))
  3435   00136E  C03E  FFD9         	movff	USBStdGetStatusHandler@p,fsr2l
  3436   001372  C03F  FFDA         	movff	USBStdGetStatusHandler@p+1,fsr2h
  3437   001376  AEDF               	btfss	indf2,7,c
  3438   001378  EFC0  F009         	goto	u2171
  3439   00137C  EFC2  F009         	goto	u2170
  3440   001380                     u2171:
  3441   001380  EFEB  F009         	goto	l520
  3442   001384                     u2170:
  3443   001384                     
  3444                           ; BSR set to: 2
  3445   001384  C03E  FFD9         	movff	USBStdGetStatusHandler@p,fsr2l
  3446   001388  C03F  FFDA         	movff	USBStdGetStatusHandler@p+1,fsr2h
  3447   00138C  A4DF               	btfss	indf2,2,c
  3448   00138E  EFCB  F009         	goto	u2181
  3449   001392  EFCD  F009         	goto	u2180
  3450   001396                     u2181:
  3451   001396  EFEB  F009         	goto	l520
  3452   00139A                     u2180:
  3453   00139A                     
  3454                           ; BSR set to: 2
  3455                           ;usb_device.c: 2178:                 {;usb_device.c: 2179:                     CtrlTrfDa
      +                          ta[0]=0x01;
  3456   00139A  0E01               	movlw	1
  3457   00139C  6F38               	movwf	56,b	;volatile
  3458   00139E  EFEB  F009         	goto	l520
  3459   0013A2                     l3619:
  3460                           
  3461                           ; BSR set to: 2
  3462   0013A2  5130               	movf	48,w,b	;volatile
  3463   0013A4  0B1F               	andlw	31
  3464   0013A6  6E3C               	movwf	??_USBStdGetStatusHandler^0,c
  3465   0013A8  6A3D               	clrf	(??_USBStdGetStatusHandler+1)^0,c
  3466                           
  3467                           ; Switch on 2 bytes has been partitioned into a top level switch of size 1, and 1 sub-sw
      +                          itches
  3468                           ; Switch size 1, requested type "simple"
  3469                           ; Number of cases is 1, Range of values is 0 to 0
  3470                           ; switch strategies available:
  3471                           ; Name         Instructions Cycles
  3472                           ; simple_byte            4     3 (average)
  3473                           ;	Chosen strategy is simple_byte
  3474   0013AA  503D               	movf	(??_USBStdGetStatusHandler+1)^0,w,c
  3475   0013AC  0A00               	xorlw	0	; case 0
  3476   0013AE  B4D8               	btfsc	status,2,c
  3477   0013B0  EFDC  F009         	goto	l4783
  3478   0013B4  EFEB  F009         	goto	l520
  3479   0013B8                     l4783:
  3480                           
  3481                           ; BSR set to: 2
  3482                           ; Switch size 1, requested type "simple"
  3483                           ; Number of cases is 3, Range of values is 0 to 2
  3484                           ; switch strategies available:
  3485                           ; Name         Instructions Cycles
  3486                           ; simple_byte           10     6 (average)
  3487                           ;	Chosen strategy is simple_byte
  3488   0013B8  503C               	movf	??_USBStdGetStatusHandler^0,w,c
  3489   0013BA  0A00               	xorlw	0	; case 0
  3490   0013BC  B4D8               	btfsc	status,2,c
  3491   0013BE  EF76  F009         	goto	l517
  3492   0013C2  0A01               	xorlw	1	; case 1
  3493   0013C4  B4D8               	btfsc	status,2,c
  3494   0013C6  EF82  F009         	goto	l521
  3495   0013CA  0A03               	xorlw	3	; case 2
  3496   0013CC  B4D8               	btfsc	status,2,c
  3497   0013CE  EF85  F009         	goto	l522
  3498   0013D2  EFEB  F009         	goto	l520
  3499   0013D6                     l520:
  3500                           
  3501                           ; BSR set to: 2
  3502                           ;usb_device.c: 2185:     if(inPipes[0].info.bits.busy == 1)
  3503   0013D6  AE0C               	btfss	(_inPipes+3)^0,7,c
  3504   0013D8  EFF0  F009         	goto	u2191
  3505   0013DC  EFF2  F009         	goto	u2190
  3506   0013E0                     u2191:
  3507   0013E0  EFF9  F009         	goto	l528
  3508   0013E4                     u2190:
  3509   0013E4                     
  3510                           ; BSR set to: 2
  3511                           ;usb_device.c: 2186:     {;usb_device.c: 2187:         inPipes[0].pSrc.bRam = (uint8_t*)
      +                          &CtrlTrfData;
  3512   0013E4  0E38               	movlw	56
  3513   0013E6  6E09               	movwf	_inPipes^0,c
  3514   0013E8  0E02               	movlw	2
  3515   0013EA  6E0A               	movwf	(_inPipes+1)^0,c
  3516   0013EC                     
  3517                           ; BSR set to: 2
  3518                           ;usb_device.c: 2188:         inPipes[0].info.bits.ctrl_trf_mem = 0x01;
  3519   0013EC  800C               	bsf	(_inPipes+3)^0,0,c
  3520   0013EE                     
  3521                           ; BSR set to: 2
  3522                           ;usb_device.c: 2189:         inPipes[0].wCount.v[0] = 2;
  3523   0013EE  0E02               	movlw	2
  3524   0013F0  6E0D               	movwf	(_inPipes+4)^0,c
  3525   0013F2                     l528:
  3526                           
  3527                           ; BSR set to: 2
  3528   0013F2  0012               	return		;funcret
  3529   0013F4                     __end_of_USBStdGetStatusHandler:
  3530                           	callstack 0
  3531                           
  3532 ;; *************** function _USBStdGetDscHandler *****************
  3533 ;; Defined at:
  3534 ;;		line 2047 in file "usb_device.c"
  3535 ;; Parameters:    Size  Location     Type
  3536 ;;		None
  3537 ;; Auto vars:     Size  Location     Type
  3538 ;;		None
  3539 ;; Return value:  Size  Location     Type
  3540 ;;                  1    wreg      void 
  3541 ;; Registers used:
  3542 ;;		wreg, fsr0l, fsr0h, status,2, status,0, tblptrl, tblptrh, tblptru, prodl, prodh
  3543 ;; Tracked objects:
  3544 ;;		On entry : 0/0
  3545 ;;		On exit  : 0/0
  3546 ;;		Unchanged: 0/0
  3547 ;; Data sizes:     COMRAM   BANK0   BANK1   BANK2
  3548 ;;      Params:         0       0       0       0
  3549 ;;      Locals:         0       0       0       0
  3550 ;;      Temps:          2       0       0       0
  3551 ;;      Totals:         2       0       0       0
  3552 ;;Total ram usage:        2 bytes
  3553 ;; Hardware stack levels used: 1
  3554 ;; Hardware stack levels required when called: 1
  3555 ;; This function calls:
  3556 ;;		Nothing
  3557 ;; This function is called by:
  3558 ;;		_USBCheckStdRequest
  3559 ;; This function uses a non-reentrant model
  3560 ;;
  3561                           
  3562                           	psect	text16
  3563   000C8A                     __ptext16:
  3564                           	callstack 0
  3565   000C8A                     _USBStdGetDscHandler:
  3566                           	callstack 25
  3567   000C8A                     
  3568                           ;usb_device.c: 2049:     if(SetupPkt.bmRequestType == 0x80)
  3569   000C8A  0E80               	movlw	128
  3570   000C8C  0102               	movlb	2	; () banked
  3571   000C8E  1930               	xorwf	48,w,b	;volatile
  3572   000C90  A4D8               	btfss	status,2,c
  3573   000C92  EF4D  F006         	goto	u2081
  3574   000C96  EF4F  F006         	goto	u2080
  3575   000C9A                     u2081:
  3576   000C9A  EFEC  F006         	goto	l513
  3577   000C9E                     u2080:
  3578   000C9E                     
  3579                           ; BSR set to: 2
  3580                           ;usb_device.c: 2050:     {;usb_device.c: 2051:         inPipes[0].info.Val = 0x00 | 0x80
      +                           | 0x40;
  3581   000C9E  0EC0               	movlw	192
  3582   000CA0  6E0C               	movwf	(_inPipes+3)^0,c
  3583                           
  3584                           ;usb_device.c: 2053:         switch(SetupPkt.bDescriptorType)
  3585   000CA2  EFD3  F006         	goto	l3587
  3586   000CA6                     l3561:
  3587                           
  3588                           ; BSR set to: 2
  3589                           ;usb_device.c: 2059:                     inPipes[0].pSrc.bRom = (const uint8_t*)&device_
      +                          dsc;
  3590   000CA6  0EB4               	movlw	low _device_dsc
  3591   000CA8  6E09               	movwf	_inPipes^0,c
  3592   000CAA  0E03               	movlw	high _device_dsc
  3593   000CAC  6E0A               	movwf	(_inPipes+1)^0,c
  3594   000CAE                     
  3595                           ; BSR set to: 2
  3596                           ;usb_device.c: 2061:                 inPipes[0].wCount.Val = sizeof(device_dsc);
  3597   000CAE  0E00               	movlw	0
  3598   000CB0  6E0E               	movwf	(_inPipes+5)^0,c
  3599   000CB2  0E12               	movlw	18
  3600   000CB4  6E0D               	movwf	(_inPipes+4)^0,c
  3601                           
  3602                           ;usb_device.c: 2062:                 break;
  3603   000CB6  EFEC  F006         	goto	l513
  3604   000CBA                     l3565:
  3605                           
  3606                           ; BSR set to: 2
  3607                           ;usb_device.c: 2067:                 if(SetupPkt.bDscIndex < 1)
  3608   000CBA  5132               	movf	50,w,b	;volatile
  3609   000CBC  A4D8               	btfss	status,2,c
  3610   000CBE  EF63  F006         	goto	u2091
  3611   000CC2  EF65  F006         	goto	u2090
  3612   000CC6                     u2091:
  3613   000CC6  EFA3  F006         	goto	l3573
  3614   000CCA                     u2090:
  3615   000CCA                     
  3616                           ; BSR set to: 2
  3617                           ;usb_device.c: 2068:                 {;usb_device.c: 2072:                         inPip
      +                          es[0].pSrc.bRom = *(USB_CD_Ptr+SetupPkt.bDscIndex);
  3618   000CCA  5132               	movf	50,w,b	;volatile
  3619   000CCC  0D02               	mullw	2
  3620   000CCE  0E07               	movlw	low _USB_CD_Ptr
  3621   000CD0  24F3               	addwf	243,w,c
  3622   000CD2  6EF6               	movwf	tblptrl,c
  3623   000CD4  0E03               	movlw	high _USB_CD_Ptr
  3624   000CD6  20F4               	addwfc	244,w,c
  3625   000CD8  6EF7               	movwf	tblptrh,c
  3626   000CDA                     	if	0	;There are less than 3 active tblptr bytes
  3627   000CDA                     	endif
  3628   000CDA  0009               	tblrd		*+
  3629   000CDC  CFF5 F009          	movff	tablat,_inPipes
  3630   000CE0  000A               	tblrd		*-
  3631   000CE2  CFF5 F00A          	movff	tablat,_inPipes+1
  3632   000CE6                     
  3633                           ; BSR set to: 2
  3634                           ;usb_device.c: 2078:                     inPipes[0].wCount.byte.LB = *(inPipes[0].pSrc.b
      +                          Rom+2);
  3635   000CE6  0E02               	movlw	2
  3636   000CE8  2409               	addwf	_inPipes^0,w,c
  3637   000CEA  6E3C               	movwf	??_USBStdGetDscHandler^0,c
  3638   000CEC  0E00               	movlw	0
  3639   000CEE  200A               	addwfc	(_inPipes+1)^0,w,c
  3640   000CF0  6E3D               	movwf	(??_USBStdGetDscHandler+1)^0,c
  3641   000CF2  C03C  FFF6         	movff	??_USBStdGetDscHandler,tblptrl
  3642   000CF6  C03D  FFF7         	movff	??_USBStdGetDscHandler+1,tblptrh
  3643   000CFA  6AF8               	clrf	tblptru,c
  3644   000CFC  0E02               	movlw	(high __ramtop+-1)
  3645   000CFE  64F7               	cpfsgt	tblptrh,c
  3646   000D00  D003               	bra	u2107
  3647   000D02  0008               	tblrd		*
  3648   000D04  50F5               	movf	tablat,w,c
  3649   000D06  D005               	bra	u2100
  3650   000D08                     u2107:
  3651   000D08  CFF6 FFE9          	movff	tblptrl,fsr0l
  3652   000D0C  CFF7 FFEA          	movff	tblptrh,fsr0h
  3653   000D10  50EF               	movf	indf0,w,c
  3654   000D12                     u2100:
  3655   000D12  6E0D               	movwf	(_inPipes+4)^0,c
  3656   000D14                     
  3657                           ;usb_device.c: 2079:                     inPipes[0].wCount.byte.HB = *(inPipes[0].pSrc.b
      +                          Rom+3);
  3658   000D14  0E03               	movlw	3
  3659   000D16  2409               	addwf	_inPipes^0,w,c
  3660   000D18  6E3C               	movwf	??_USBStdGetDscHandler^0,c
  3661   000D1A  0E00               	movlw	0
  3662   000D1C  200A               	addwfc	(_inPipes+1)^0,w,c
  3663   000D1E  6E3D               	movwf	(??_USBStdGetDscHandler+1)^0,c
  3664   000D20  C03C  FFF6         	movff	??_USBStdGetDscHandler,tblptrl
  3665   000D24  C03D  FFF7         	movff	??_USBStdGetDscHandler+1,tblptrh
  3666   000D28  6AF8               	clrf	tblptru,c
  3667   000D2A  0E02               	movlw	(high __ramtop+-1)
  3668   000D2C  64F7               	cpfsgt	tblptrh,c
  3669   000D2E  D003               	bra	u2117
  3670   000D30  0008               	tblrd		*
  3671   000D32  50F5               	movf	tablat,w,c
  3672   000D34  D005               	bra	u2110
  3673   000D36                     u2117:
  3674   000D36  CFF6 FFE9          	movff	tblptrl,fsr0l
  3675   000D3A  CFF7 FFEA          	movff	tblptrh,fsr0h
  3676   000D3E  50EF               	movf	indf0,w,c
  3677   000D40                     u2110:
  3678   000D40  6E0E               	movwf	(_inPipes+5)^0,c
  3679                           
  3680                           ;usb_device.c: 2080:                 }
  3681   000D42  EFEC  F006         	goto	l513
  3682   000D46                     l3573:
  3683                           
  3684                           ; BSR set to: 2
  3685                           ;usb_device.c: 2082:     {;usb_device.c: 2083:      inPipes[0].info.Val = 0;
  3686   000D46  0E00               	movlw	0
  3687   000D48  6E0C               	movwf	(_inPipes+3)^0,c
  3688   000D4A  EFEC  F006         	goto	l513
  3689   000D4E                     l3575:
  3690                           
  3691                           ; BSR set to: 2
  3692                           ;usb_device.c: 2090:                 if(SetupPkt.bDscIndex<3)
  3693   000D4E  0E03               	movlw	3
  3694   000D50  6132               	cpfslt	50,b	;volatile
  3695   000D52  EFAD  F006         	goto	u2121
  3696   000D56  EFAF  F006         	goto	u2120
  3697   000D5A                     u2121:
  3698   000D5A  EFA3  F006         	goto	l3573
  3699   000D5E                     u2120:
  3700   000D5E                     
  3701                           ; BSR set to: 2
  3702                           ;usb_device.c: 2091:                 {;usb_device.c: 2093:                     inPipes[0
      +                          ].pSrc.bRom = *(USB_SD_Ptr+SetupPkt.bDscIndex);
  3703   000D5E  5132               	movf	50,w,b	;volatile
  3704   000D60  0D02               	mullw	2
  3705   000D62  0E01               	movlw	low _USB_SD_Ptr
  3706   000D64  24F3               	addwf	243,w,c
  3707   000D66  6EF6               	movwf	tblptrl,c
  3708   000D68  0E03               	movlw	high _USB_SD_Ptr
  3709   000D6A  20F4               	addwfc	244,w,c
  3710   000D6C  6EF7               	movwf	tblptrh,c
  3711   000D6E                     	if	0	;There are less than 3 active tblptr bytes
  3712   000D6E                     	endif
  3713   000D6E  0009               	tblrd		*+
  3714   000D70  CFF5 F009          	movff	tablat,_inPipes
  3715   000D74  000A               	tblrd		*-
  3716   000D76  CFF5 F00A          	movff	tablat,_inPipes+1
  3717   000D7A                     
  3718                           ; BSR set to: 2
  3719                           ;usb_device.c: 2095:                     inPipes[0].wCount.Val = *inPipes[0].pSrc.bRom;
  3720   000D7A  C009  FFF6         	movff	_inPipes,tblptrl
  3721   000D7E  C00A  FFF7         	movff	_inPipes+1,tblptrh
  3722   000D82  6AF8               	clrf	tblptru,c
  3723   000D84  0E02               	movlw	(high __ramtop+-1)
  3724   000D86  64F7               	cpfsgt	tblptrh,c
  3725   000D88  D003               	bra	u2137
  3726   000D8A  0008               	tblrd		*
  3727   000D8C  50F5               	movf	tablat,w,c
  3728   000D8E  D005               	bra	u2130
  3729   000D90                     u2137:
  3730   000D90  CFF6 FFE9          	movff	tblptrl,fsr0l
  3731   000D94  CFF7 FFEA          	movff	tblptrh,fsr0h
  3732   000D98  50EF               	movf	indf0,w,c
  3733   000D9A                     u2130:
  3734   000D9A  6E3C               	movwf	??_USBStdGetDscHandler^0,c
  3735   000D9C  503C               	movf	??_USBStdGetDscHandler^0,w,c
  3736   000D9E  6E0D               	movwf	(_inPipes+4)^0,c
  3737   000DA0  6A0E               	clrf	(_inPipes+5)^0,c
  3738                           
  3739                           ;usb_device.c: 2096:                 }
  3740   000DA2  EFEC  F006         	goto	l513
  3741   000DA6                     l3587:
  3742                           
  3743                           ; BSR set to: 2
  3744   000DA6  5133               	movf	51,w,b	;volatile
  3745   000DA8  6E3C               	movwf	??_USBStdGetDscHandler^0,c
  3746   000DAA  6A3D               	clrf	(??_USBStdGetDscHandler+1)^0,c
  3747                           
  3748                           ; Switch on 2 bytes has been partitioned into a top level switch of size 1, and 1 sub-sw
      +                          itches
  3749                           ; Switch size 1, requested type "simple"
  3750                           ; Number of cases is 1, Range of values is 0 to 0
  3751                           ; switch strategies available:
  3752                           ; Name         Instructions Cycles
  3753                           ; simple_byte            4     3 (average)
  3754                           ;	Chosen strategy is simple_byte
  3755   000DAC  503D               	movf	(??_USBStdGetDscHandler+1)^0,w,c
  3756   000DAE  0A00               	xorlw	0	; case 0
  3757   000DB0  B4D8               	btfsc	status,2,c
  3758   000DB2  EFDD  F006         	goto	l4785
  3759   000DB6  EFA3  F006         	goto	l3573
  3760   000DBA                     l4785:
  3761                           
  3762                           ; BSR set to: 2
  3763                           ; Switch size 1, requested type "simple"
  3764                           ; Number of cases is 3, Range of values is 1 to 3
  3765                           ; switch strategies available:
  3766                           ; Name         Instructions Cycles
  3767                           ; simple_byte           10     6 (average)
  3768                           ;	Chosen strategy is simple_byte
  3769   000DBA  503C               	movf	??_USBStdGetDscHandler^0,w,c
  3770   000DBC  0A01               	xorlw	1	; case 1
  3771   000DBE  B4D8               	btfsc	status,2,c
  3772   000DC0  EF53  F006         	goto	l3561
  3773   000DC4  0A03               	xorlw	3	; case 2
  3774   000DC6  B4D8               	btfsc	status,2,c
  3775   000DC8  EF5D  F006         	goto	l3565
  3776   000DCC  0A01               	xorlw	1	; case 3
  3777   000DCE  B4D8               	btfsc	status,2,c
  3778   000DD0  EFA7  F006         	goto	l3575
  3779   000DD4  EFA3  F006         	goto	l3573
  3780   000DD8                     l513:
  3781   000DD8  0012               	return		;funcret
  3782   000DDA                     __end_of_USBStdGetDscHandler:
  3783                           	callstack 0
  3784                           
  3785 ;; *************** function _USBStdFeatureReqHandler *****************
  3786 ;; Defined at:
  3787 ;;		line 2761 in file "usb_device.c"
  3788 ;; Parameters:    Size  Location     Type
  3789 ;;		None
  3790 ;; Auto vars:     Size  Location     Type
  3791 ;;  p               2   27[COMRAM] PTR struct __BDT
  3792 ;;		 -> RAM(767), NULL(0), BDT(48), 
  3793 ;;  pUEP            2   24[COMRAM] PTR unsigned char 
  3794 ;;		 -> UEP0(1), 
  3795 ;;  current_ep_d    1   26[COMRAM] struct .
  3796 ;; Return value:  Size  Location     Type
  3797 ;;                  1    wreg      void 
  3798 ;; Registers used:
  3799 ;;		wreg, fsr2l, fsr2h, status,2, status,0, prodl, prodh, cstack
  3800 ;; Tracked objects:
  3801 ;;		On entry : 0/0
  3802 ;;		On exit  : 0/0
  3803 ;;		Unchanged: 0/0
  3804 ;; Data sizes:     COMRAM   BANK0   BANK1   BANK2
  3805 ;;      Params:         0       0       0       0
  3806 ;;      Locals:         5       0       0       0
  3807 ;;      Temps:          2       0       0       0
  3808 ;;      Totals:         7       0       0       0
  3809 ;;Total ram usage:        7 bytes
  3810 ;; Hardware stack levels used: 1
  3811 ;; Hardware stack levels required when called: 5
  3812 ;; This function calls:
  3813 ;;		_USER_USB_CALLBACK_EVENT_HANDLER
  3814 ;; This function is called by:
  3815 ;;		_USBCheckStdRequest
  3816 ;; This function uses a non-reentrant model
  3817 ;;
  3818                           
  3819                           	psect	text17
  3820   0003CC                     __ptext17:
  3821                           	callstack 0
  3822   0003CC                     _USBStdFeatureReqHandler:
  3823                           	callstack 21
  3824   0003CC                     
  3825                           ;usb_device.c: 2763:     BDT_ENTRY *p;;usb_device.c: 2764:     EP_STATUS current_ep_data
      +                          ;;usb_device.c: 2768:         unsigned char* pUEP;;usb_device.c: 2772:     if((SetupPkt.
      +                          bFeature == 1)&&
  3826   0003CC  0102               	movlb	2	; () banked
  3827   0003CE  0532               	decf	50,w,b	;volatile
  3828   0003D0  A4D8               	btfss	status,2,c
  3829   0003D2  EFED  F001         	goto	u2201
  3830   0003D6  EFEF  F001         	goto	u2200
  3831   0003DA                     u2201:
  3832   0003DA  EF09  F002         	goto	l595
  3833   0003DE                     u2200:
  3834   0003DE                     
  3835                           ; BSR set to: 2
  3836   0003DE  5130               	movf	48,w,b	;volatile
  3837   0003E0  0B1F               	andlw	31
  3838   0003E2  0900               	iorlw	0
  3839   0003E4  A4D8               	btfss	status,2,c
  3840   0003E6  EFF7  F001         	goto	u2211
  3841   0003EA  EFF9  F001         	goto	u2210
  3842   0003EE                     u2211:
  3843   0003EE  EF09  F002         	goto	l595
  3844   0003F2                     u2210:
  3845   0003F2                     
  3846                           ; BSR set to: 2
  3847                           ;usb_device.c: 2774:     {;usb_device.c: 2775:         inPipes[0].info.bits.busy = 1;
  3848   0003F2  8E0C               	bsf	(_inPipes+3)^0,7,c
  3849   0003F4                     
  3850                           ; BSR set to: 2
  3851                           ;usb_device.c: 2776:         if(SetupPkt.bRequest == 3)
  3852   0003F4  0E03               	movlw	3
  3853   0003F6  1931               	xorwf	49,w,b	;volatile
  3854   0003F8  A4D8               	btfss	status,2,c
  3855   0003FA  EF01  F002         	goto	u2221
  3856   0003FE  EF03  F002         	goto	u2220
  3857   000402                     u2221:
  3858   000402  EF07  F002         	goto	l3643
  3859   000406                     u2220:
  3860   000406                     
  3861                           ; BSR set to: 2
  3862                           ;usb_device.c: 2777:             RemoteWakeup = 1;
  3863   000406  0E01               	movlw	1
  3864   000408  6E32               	movwf	_RemoteWakeup^0,c
  3865   00040A  EF09  F002         	goto	l595
  3866   00040E                     l3643:
  3867                           
  3868                           ; BSR set to: 2
  3869                           ;usb_device.c: 2779:             RemoteWakeup = 0;
  3870   00040E  0E00               	movlw	0
  3871   000410  6E32               	movwf	_RemoteWakeup^0,c
  3872   000412                     l595:
  3873                           
  3874                           ; BSR set to: 2
  3875                           ;usb_device.c: 2783:     if((SetupPkt.bFeature == 0)&&
  3876   000412  5132               	movf	50,w,b	;volatile
  3877   000414  A4D8               	btfss	status,2,c
  3878   000416  EF0F  F002         	goto	u2231
  3879   00041A  EF11  F002         	goto	u2230
  3880   00041E                     u2231:
  3881   00041E  EF8D  F003         	goto	l618
  3882   000422                     u2230:
  3883   000422                     
  3884                           ; BSR set to: 2
  3885   000422  5130               	movf	48,w,b	;volatile
  3886   000424  0B1F               	andlw	31
  3887   000426  0A02               	xorlw	2
  3888   000428  A4D8               	btfss	status,2,c
  3889   00042A  EF19  F002         	goto	u2241
  3890   00042E  EF1B  F002         	goto	u2240
  3891   000432                     u2241:
  3892   000432  EF8D  F003         	goto	l618
  3893   000436                     u2240:
  3894   000436                     
  3895                           ; BSR set to: 2
  3896   000436  5134               	movf	52,w,b	;volatile
  3897   000438  0B0F               	andlw	15
  3898   00043A  0900               	iorlw	0
  3899   00043C  B4D8               	btfsc	status,2,c
  3900   00043E  EF23  F002         	goto	u2251
  3901   000442  EF25  F002         	goto	u2250
  3902   000446                     u2251:
  3903   000446  EF8D  F003         	goto	l618
  3904   00044A                     u2250:
  3905   00044A                     
  3906                           ; BSR set to: 2
  3907   00044A  5134               	movf	52,w,b	;volatile
  3908   00044C  0B0F               	andlw	15
  3909   00044E  6E52               	movwf	??_USBStdFeatureReqHandler^0,c
  3910   000450  0E03               	movlw	3
  3911   000452  6052               	cpfslt	??_USBStdFeatureReqHandler^0,c
  3912   000454  EF2E  F002         	goto	u2261
  3913   000458  EF30  F002         	goto	u2260
  3914   00045C                     u2261:
  3915   00045C  EF8D  F003         	goto	l618
  3916   000460                     u2260:
  3917   000460                     
  3918                           ; BSR set to: 2
  3919   000460  0E20               	movlw	32
  3920   000462  1837               	xorwf	_USBDeviceState^0,w,c
  3921   000464  A4D8               	btfss	status,2,c
  3922   000466  EF37  F002         	goto	u2271
  3923   00046A  EF39  F002         	goto	u2270
  3924   00046E                     u2271:
  3925   00046E  EF8D  F003         	goto	l618
  3926   000472                     u2270:
  3927   000472                     
  3928                           ; BSR set to: 2
  3929                           ;usb_device.c: 2787:     {;usb_device.c: 2790:   inPipes[0].info.bits.busy = 1;
  3930   000472  8E0C               	bsf	(_inPipes+3)^0,7,c
  3931                           
  3932                           ;usb_device.c: 2793:         if(SetupPkt.EPDir == 0)
  3933   000474  BF34               	btfsc	52,7,b	;volatile
  3934   000476  EF3F  F002         	goto	u2281
  3935   00047A  EF41  F002         	goto	u2280
  3936   00047E                     u2281:
  3937   00047E  EF5E  F002         	goto	l3659
  3938   000482                     u2280:
  3939   000482                     
  3940                           ; BSR set to: 2
  3941                           ;usb_device.c: 2794:         {;usb_device.c: 2795:             p = (BDT_ENTRY*)pBDTEntry
      +                          Out[SetupPkt.EPNum];
  3942   000482  5134               	movf	52,w,b	;volatile
  3943   000484  0B0F               	andlw	15
  3944   000486  6E52               	movwf	??_USBStdFeatureReqHandler^0,c
  3945   000488  5052               	movf	??_USBStdFeatureReqHandler^0,w,c
  3946   00048A  0D02               	mullw	2
  3947   00048C  0E6A               	movlw	low _pBDTEntryOut
  3948   00048E  24F3               	addwf	243,w,c
  3949   000490  6ED9               	movwf	fsr2l,c
  3950   000492  0E00               	movlw	high _pBDTEntryOut
  3951   000494  20F4               	addwfc	prodh,w,c
  3952   000496  6EDA               	movwf	fsr2h,c
  3953   000498  CFDE F057          	movff	postinc2,USBStdFeatureReqHandler@p
  3954   00049C  CFDD F058          	movff	postdec2,USBStdFeatureReqHandler@p+1
  3955   0004A0                     
  3956                           ; BSR set to: 2
  3957                           ;usb_device.c: 2796:             current_ep_data.Val = ep_data_out[SetupPkt.EPNum].Val;
  3958   0004A0  5134               	movf	52,w,b	;volatile
  3959   0004A2  0B0F               	andlw	15
  3960   0004A4  6E52               	movwf	??_USBStdFeatureReqHandler^0,c
  3961   0004A6  6A53               	clrf	(??_USBStdFeatureReqHandler+1)^0,c
  3962   0004A8  0E7E               	movlw	low _ep_data_out
  3963   0004AA  2452               	addwf	??_USBStdFeatureReqHandler^0,w,c
  3964   0004AC  6ED9               	movwf	fsr2l,c
  3965   0004AE  0E00               	movlw	high _ep_data_out
  3966   0004B0  2053               	addwfc	(??_USBStdFeatureReqHandler+1)^0,w,c
  3967   0004B2  6EDA               	movwf	fsr2h,c
  3968   0004B4  50DF               	movf	indf2,w,c
  3969   0004B6  6E56               	movwf	USBStdFeatureReqHandler@current_ep_data^0,c
  3970                           
  3971                           ;usb_device.c: 2797:         }
  3972   0004B8  EF79  F002         	goto	l3663
  3973   0004BC                     l3659:
  3974                           
  3975                           ; BSR set to: 2
  3976                           ;usb_device.c: 2799:         {;usb_device.c: 2800:             p = (BDT_ENTRY*)pBDTEntry
      +                          In[SetupPkt.EPNum];
  3977   0004BC  5134               	movf	52,w,b	;volatile
  3978   0004BE  0B0F               	andlw	15
  3979   0004C0  6E52               	movwf	??_USBStdFeatureReqHandler^0,c
  3980   0004C2  5052               	movf	??_USBStdFeatureReqHandler^0,w,c
  3981   0004C4  0D02               	mullw	2
  3982   0004C6  0E0F               	movlw	low _pBDTEntryIn
  3983   0004C8  24F3               	addwf	243,w,c
  3984   0004CA  6ED9               	movwf	fsr2l,c
  3985   0004CC  0E00               	movlw	high _pBDTEntryIn
  3986   0004CE  20F4               	addwfc	prodh,w,c
  3987   0004D0  6EDA               	movwf	fsr2h,c
  3988   0004D2  CFDE F057          	movff	postinc2,USBStdFeatureReqHandler@p
  3989   0004D6  CFDD F058          	movff	postdec2,USBStdFeatureReqHandler@p+1
  3990   0004DA                     
  3991                           ; BSR set to: 2
  3992                           ;usb_device.c: 2801:             current_ep_data.Val = ep_data_in[SetupPkt.EPNum].Val;
  3993   0004DA  5134               	movf	52,w,b	;volatile
  3994   0004DC  0B0F               	andlw	15
  3995   0004DE  6E52               	movwf	??_USBStdFeatureReqHandler^0,c
  3996   0004E0  6A53               	clrf	(??_USBStdFeatureReqHandler+1)^0,c
  3997   0004E2  0E15               	movlw	low _ep_data_in
  3998   0004E4  2452               	addwf	??_USBStdFeatureReqHandler^0,w,c
  3999   0004E6  6ED9               	movwf	fsr2l,c
  4000   0004E8  0E00               	movlw	high _ep_data_in
  4001   0004EA  2053               	addwfc	(??_USBStdFeatureReqHandler+1)^0,w,c
  4002   0004EC  6EDA               	movwf	fsr2h,c
  4003   0004EE  50DF               	movf	indf2,w,c
  4004   0004F0  6E56               	movwf	USBStdFeatureReqHandler@current_ep_data^0,c
  4005   0004F2                     l3663:
  4006                           
  4007                           ; BSR set to: 2
  4008                           ;usb_device.c: 2808:             if(current_ep_data.bits.ping_pong_state == 0)
  4009   0004F2  B056               	btfsc	USBStdFeatureReqHandler@current_ep_data^0,0,c
  4010   0004F4  EF7E  F002         	goto	u2291
  4011   0004F8  EF80  F002         	goto	u2290
  4012   0004FC                     u2291:
  4013   0004FC  EF88  F002         	goto	l3667
  4014   000500                     u2290:
  4015   000500                     
  4016                           ; BSR set to: 2
  4017                           ;usb_device.c: 2809:             {;usb_device.c: 2810:                 p = (BDT_ENTRY*)(
      +                          ((uint16_t)p) & (~0x0004));
  4018   000500  0EFB               	movlw	251
  4019   000502  1457               	andwf	USBStdFeatureReqHandler@p^0,w,c
  4020   000504  6E57               	movwf	USBStdFeatureReqHandler@p^0,c
  4021   000506  0EFF               	movlw	255
  4022   000508  1458               	andwf	(USBStdFeatureReqHandler@p+1)^0,w,c
  4023   00050A  6E58               	movwf	(USBStdFeatureReqHandler@p+1)^0,c
  4024                           
  4025                           ;usb_device.c: 2811:             }
  4026   00050C  EF8D  F002         	goto	l3669
  4027   000510                     l3667:
  4028                           
  4029                           ; BSR set to: 2
  4030                           ;usb_device.c: 2813:             {;usb_device.c: 2814:                 p = (BDT_ENTRY*)(
      +                          ((uint16_t)p) | 0x0004);
  4031   000510  0E04               	movlw	4
  4032   000512  1057               	iorwf	USBStdFeatureReqHandler@p^0,w,c
  4033   000514  6E57               	movwf	USBStdFeatureReqHandler@p^0,c
  4034   000516  5058               	movf	(USBStdFeatureReqHandler@p+1)^0,w,c
  4035   000518  6E58               	movwf	(USBStdFeatureReqHandler@p+1)^0,c
  4036   00051A                     l3669:
  4037                           
  4038                           ; BSR set to: 2
  4039                           ;usb_device.c: 2820:         if(SetupPkt.EPDir == 0)
  4040   00051A  BF34               	btfsc	52,7,b	;volatile
  4041   00051C  EF92  F002         	goto	u2301
  4042   000520  EF94  F002         	goto	u2300
  4043   000524                     u2301:
  4044   000524  EFA5  F002         	goto	l3673
  4045   000528                     u2300:
  4046   000528                     
  4047                           ; BSR set to: 2
  4048                           ;usb_device.c: 2821:         {;usb_device.c: 2822:             pBDTEntryOut[SetupPkt.EPN
      +                          um] = (volatile BDT_ENTRY *)p;
  4049   000528  5134               	movf	52,w,b	;volatile
  4050   00052A  0B0F               	andlw	15
  4051   00052C  6E52               	movwf	??_USBStdFeatureReqHandler^0,c
  4052   00052E  5052               	movf	??_USBStdFeatureReqHandler^0,w,c
  4053   000530  0D02               	mullw	2
  4054   000532  0E6A               	movlw	low _pBDTEntryOut
  4055   000534  24F3               	addwf	243,w,c
  4056   000536  6ED9               	movwf	fsr2l,c
  4057   000538  0E00               	movlw	high _pBDTEntryOut
  4058   00053A  20F4               	addwfc	prodh,w,c
  4059   00053C  6EDA               	movwf	fsr2h,c
  4060   00053E  C057  FFDE         	movff	USBStdFeatureReqHandler@p,postinc2
  4061   000542  C058  FFDD         	movff	USBStdFeatureReqHandler@p+1,postdec2
  4062                           
  4063                           ;usb_device.c: 2823:         }
  4064   000546  EFB4  F002         	goto	l3675
  4065   00054A                     l3673:
  4066                           
  4067                           ; BSR set to: 2
  4068                           ;usb_device.c: 2825:         {;usb_device.c: 2826:             pBDTEntryIn[SetupPkt.EPNu
      +                          m] = (volatile BDT_ENTRY *)p;
  4069   00054A  5134               	movf	52,w,b	;volatile
  4070   00054C  0B0F               	andlw	15
  4071   00054E  6E52               	movwf	??_USBStdFeatureReqHandler^0,c
  4072   000550  5052               	movf	??_USBStdFeatureReqHandler^0,w,c
  4073   000552  0D02               	mullw	2
  4074   000554  0E0F               	movlw	low _pBDTEntryIn
  4075   000556  24F3               	addwf	243,w,c
  4076   000558  6ED9               	movwf	fsr2l,c
  4077   00055A  0E00               	movlw	high _pBDTEntryIn
  4078   00055C  20F4               	addwfc	prodh,w,c
  4079   00055E  6EDA               	movwf	fsr2h,c
  4080   000560  C057  FFDE         	movff	USBStdFeatureReqHandler@p,postinc2
  4081   000564  C058  FFDD         	movff	USBStdFeatureReqHandler@p+1,postdec2
  4082   000568                     l3675:
  4083                           
  4084                           ; BSR set to: 2
  4085                           ;usb_device.c: 2830:         if(SetupPkt.bRequest == 3)
  4086   000568  0E03               	movlw	3
  4087   00056A  1931               	xorwf	49,w,b	;volatile
  4088   00056C  A4D8               	btfss	status,2,c
  4089   00056E  EFBB  F002         	goto	u2311
  4090   000572  EFBD  F002         	goto	u2310
  4091   000576                     u2311:
  4092   000576  EFF6  F002         	goto	l3685
  4093   00057A                     u2310:
  4094   00057A                     
  4095                           ; BSR set to: 2
  4096                           ;usb_device.c: 2831:         {;usb_device.c: 2832:             if(p->STAT.UOWN == 1)
  4097   00057A  C057  FFD9         	movff	USBStdFeatureReqHandler@p,fsr2l
  4098   00057E  C058  FFDA         	movff	USBStdFeatureReqHandler@p+1,fsr2h
  4099   000582  AEDF               	btfss	indf2,7,c
  4100   000584  EFC6  F002         	goto	u2321
  4101   000588  EFC8  F002         	goto	u2320
  4102   00058C                     u2321:
  4103   00058C  EFE8  F002         	goto	l606
  4104   000590                     u2320:
  4105   000590                     
  4106                           ; BSR set to: 2
  4107                           ;usb_device.c: 2833:             {;usb_device.c: 2836:                 if(SetupPkt.EPDir
      +                           == 0)
  4108   000590  BF34               	btfsc	52,7,b	;volatile
  4109   000592  EFCD  F002         	goto	u2331
  4110   000596  EFCF  F002         	goto	u2330
  4111   00059A                     u2331:
  4112   00059A  EFDD  F002         	goto	l3683
  4113   00059E                     u2330:
  4114   00059E                     
  4115                           ; BSR set to: 2
  4116                           ;usb_device.c: 2837:                 {;usb_device.c: 2838:                     ep_data_o
      +                          ut[SetupPkt.EPNum].bits.transfer_terminated = 1;
  4117   00059E  5134               	movf	52,w,b	;volatile
  4118   0005A0  0B0F               	andlw	15
  4119   0005A2  6E52               	movwf	??_USBStdFeatureReqHandler^0,c
  4120   0005A4  6A53               	clrf	(??_USBStdFeatureReqHandler+1)^0,c
  4121   0005A6  0E7E               	movlw	low _ep_data_out
  4122   0005A8  2452               	addwf	??_USBStdFeatureReqHandler^0,w,c
  4123   0005AA  6ED9               	movwf	fsr2l,c
  4124   0005AC  0E00               	movlw	high _ep_data_out
  4125   0005AE  2053               	addwfc	(??_USBStdFeatureReqHandler+1)^0,w,c
  4126   0005B0  6EDA               	movwf	fsr2h,c
  4127   0005B2  0100               	movlb	0	; () banked
  4128   0005B4  82DF               	bsf	indf2,1,c
  4129                           
  4130                           ;usb_device.c: 2839:                 }
  4131   0005B6  EFE8  F002         	goto	l606
  4132   0005BA                     l3683:
  4133                           
  4134                           ; BSR set to: 2
  4135                           ;usb_device.c: 2841:                 {;usb_device.c: 2842:                     ep_data_i
      +                          n[SetupPkt.EPNum].bits.transfer_terminated = 1;
  4136   0005BA  5134               	movf	52,w,b	;volatile
  4137   0005BC  0B0F               	andlw	15
  4138   0005BE  6E52               	movwf	??_USBStdFeatureReqHandler^0,c
  4139   0005C0  6A53               	clrf	(??_USBStdFeatureReqHandler+1)^0,c
  4140   0005C2  0E15               	movlw	low _ep_data_in
  4141   0005C4  2452               	addwf	??_USBStdFeatureReqHandler^0,w,c
  4142   0005C6  6ED9               	movwf	fsr2l,c
  4143   0005C8  0E00               	movlw	high _ep_data_in
  4144   0005CA  2053               	addwfc	(??_USBStdFeatureReqHandler+1)^0,w,c
  4145   0005CC  6EDA               	movwf	fsr2h,c
  4146   0005CE  82DF               	bsf	indf2,1,c
  4147   0005D0                     l606:
  4148                           
  4149                           ;usb_device.c: 2847:             p->STAT.Val |= 0x04;
  4150   0005D0  C057  FFD9         	movff	USBStdFeatureReqHandler@p,fsr2l
  4151   0005D4  C058  FFDA         	movff	USBStdFeatureReqHandler@p+1,fsr2h
  4152   0005D8  0E00               	movlw	0
  4153   0005DA  84DB               	bsf	plusw2,2,c
  4154                           
  4155                           ;usb_device.c: 2848:             p->STAT.Val |= 0x80;
  4156   0005DC  C057  FFD9         	movff	USBStdFeatureReqHandler@p,fsr2l
  4157   0005E0  C058  FFDA         	movff	USBStdFeatureReqHandler@p+1,fsr2h
  4158   0005E4  0E00               	movlw	0
  4159   0005E6  8EDB               	bsf	plusw2,7,c
  4160                           
  4161                           ;usb_device.c: 2849:         }
  4162   0005E8  EF8D  F003         	goto	l618
  4163   0005EC                     l3685:
  4164                           
  4165                           ; BSR set to: 2
  4166                           ;usb_device.c: 2851:         {;usb_device.c: 2855:                 p = (BDT_ENTRY*)(((ui
      +                          nt16_t)p) ^ 0x0004);
  4167   0005EC  0E04               	movlw	4
  4168   0005EE  1857               	xorwf	USBStdFeatureReqHandler@p^0,w,c
  4169   0005F0  6E57               	movwf	USBStdFeatureReqHandler@p^0,c
  4170   0005F2  5058               	movf	(USBStdFeatureReqHandler@p+1)^0,w,c
  4171   0005F4  6E58               	movwf	(USBStdFeatureReqHandler@p+1)^0,c
  4172   0005F6                     
  4173                           ; BSR set to: 2
  4174                           ;usb_device.c: 2857:                 if(p->STAT.UOWN == 1)
  4175   0005F6  C057  FFD9         	movff	USBStdFeatureReqHandler@p,fsr2l
  4176   0005FA  C058  FFDA         	movff	USBStdFeatureReqHandler@p+1,fsr2h
  4177   0005FE  AEDF               	btfss	indf2,7,c
  4178   000600  EF04  F003         	goto	u2341
  4179   000604  EF06  F003         	goto	u2340
  4180   000608                     u2341:
  4181   000608  EF22  F003         	goto	l3695
  4182   00060C                     u2340:
  4183   00060C                     
  4184                           ; BSR set to: 2
  4185                           ;usb_device.c: 2858:                 {;usb_device.c: 2861:                     p->STAT.V
      +                          al &= (~0x80);
  4186   00060C  C057  FFD9         	movff	USBStdFeatureReqHandler@p,fsr2l
  4187   000610  C058  FFDA         	movff	USBStdFeatureReqHandler@p+1,fsr2h
  4188   000614  0E7F               	movlw	127
  4189   000616  16DF               	andwf	indf2,f,c
  4190   000618                     
  4191                           ; BSR set to: 2
  4192                           ;usb_device.c: 2862:                     p->STAT.Val |= 0x40;
  4193   000618  C057  FFD9         	movff	USBStdFeatureReqHandler@p,fsr2l
  4194   00061C  C058  FFDA         	movff	USBStdFeatureReqHandler@p+1,fsr2h
  4195   000620  0E00               	movlw	0
  4196   000622  8CDB               	bsf	plusw2,6,c
  4197   000624                     
  4198                           ; BSR set to: 2
  4199                           ;usb_device.c: 2863:                     USER_USB_CALLBACK_EVENT_HANDLER((USB_EVENT)EVEN
      +                          T_TRANSFER_TERMINATED,p,sizeof(p));
  4200   000624  0E00               	movlw	0
  4201   000626  6E4B               	movwf	(USER_USB_CALLBACK_EVENT_HANDLER@event+1)^0,c
  4202   000628  0E05               	movlw	5
  4203   00062A  6E4A               	movwf	USER_USB_CALLBACK_EVENT_HANDLER@event^0,c
  4204   00062C  C057  F04C         	movff	USBStdFeatureReqHandler@p,USER_USB_CALLBACK_EVENT_HANDLER@pdata
  4205   000630  C058  F04D         	movff	USBStdFeatureReqHandler@p+1,USER_USB_CALLBACK_EVENT_HANDLER@pdata+1
  4206   000634  0E00               	movlw	0
  4207   000636  6E4F               	movwf	(USER_USB_CALLBACK_EVENT_HANDLER@size+1)^0,c
  4208   000638  0E02               	movlw	2
  4209   00063A  6E4E               	movwf	USER_USB_CALLBACK_EVENT_HANDLER@size^0,c
  4210   00063C  ECA4  F00E         	call	_USER_USB_CALLBACK_EVENT_HANDLER	;wreg free
  4211                           
  4212                           ;usb_device.c: 2864:                 }
  4213   000640  EF28  F003         	goto	l3697
  4214   000644                     l3695:
  4215                           
  4216                           ; BSR set to: 2
  4217                           ;usb_device.c: 2866:                 {;usb_device.c: 2868:      p->STAT.Val |= 0x40;
  4218   000644  C057  FFD9         	movff	USBStdFeatureReqHandler@p,fsr2l
  4219   000648  C058  FFDA         	movff	USBStdFeatureReqHandler@p+1,fsr2h
  4220   00064C  0E00               	movlw	0
  4221   00064E  8CDB               	bsf	plusw2,6,c
  4222   000650                     l3697:
  4223                           
  4224                           ;usb_device.c: 2873:                 p = (BDT_ENTRY*)(((uint16_t)p) ^ 0x0004);
  4225   000650  0E04               	movlw	4
  4226   000652  1857               	xorwf	USBStdFeatureReqHandler@p^0,w,c
  4227   000654  6E57               	movwf	USBStdFeatureReqHandler@p^0,c
  4228   000656  5058               	movf	(USBStdFeatureReqHandler@p+1)^0,w,c
  4229   000658  6E58               	movwf	(USBStdFeatureReqHandler@p+1)^0,c
  4230   00065A                     
  4231                           ;usb_device.c: 2879:                 if((current_ep_data.bits.transfer_terminated != 0) 
      +                          || (p->STAT.UOWN == 1))
  4232   00065A  B256               	btfsc	USBStdFeatureReqHandler@current_ep_data^0,1,c
  4233   00065C  EF32  F003         	goto	u2351
  4234   000660  EF34  F003         	goto	u2350
  4235   000664                     u2351:
  4236   000664  EF3F  F003         	goto	l614
  4237   000668                     u2350:
  4238   000668  C057  FFD9         	movff	USBStdFeatureReqHandler@p,fsr2l
  4239   00066C  C058  FFDA         	movff	USBStdFeatureReqHandler@p+1,fsr2h
  4240   000670  AEDF               	btfss	indf2,7,c
  4241   000672  EF3D  F003         	goto	u2361
  4242   000676  EF3F  F003         	goto	u2360
  4243   00067A                     u2361:
  4244   00067A  EF76  F003         	goto	l3711
  4245   00067E                     u2360:
  4246   00067E                     l614:
  4247                           
  4248                           ;usb_device.c: 2880:                 {;usb_device.c: 2881:                     if(SetupP
      +                          kt.EPDir == 0)
  4249   00067E  0102               	movlb	2	; () banked
  4250   000680  BF34               	btfsc	52,7,b	;volatile
  4251   000682  EF45  F003         	goto	u2371
  4252   000686  EF47  F003         	goto	u2370
  4253   00068A                     u2371:
  4254   00068A  EF55  F003         	goto	l3705
  4255   00068E                     u2370:
  4256   00068E                     
  4257                           ; BSR set to: 2
  4258                           ;usb_device.c: 2882:                     {;usb_device.c: 2883:                         e
      +                          p_data_out[SetupPkt.EPNum].bits.transfer_terminated = 0;
  4259   00068E  5134               	movf	52,w,b	;volatile
  4260   000690  0B0F               	andlw	15
  4261   000692  6E52               	movwf	??_USBStdFeatureReqHandler^0,c
  4262   000694  6A53               	clrf	(??_USBStdFeatureReqHandler+1)^0,c
  4263   000696  0E7E               	movlw	low _ep_data_out
  4264   000698  2452               	addwf	??_USBStdFeatureReqHandler^0,w,c
  4265   00069A  6ED9               	movwf	fsr2l,c
  4266   00069C  0E00               	movlw	high _ep_data_out
  4267   00069E  2053               	addwfc	(??_USBStdFeatureReqHandler+1)^0,w,c
  4268   0006A0  6EDA               	movwf	fsr2h,c
  4269   0006A2  0100               	movlb	0	; () banked
  4270   0006A4  92DF               	bcf	indf2,1,c
  4271                           
  4272                           ;usb_device.c: 2884:                     }
  4273   0006A6  EF60  F003         	goto	l3707
  4274   0006AA                     l3705:
  4275                           
  4276                           ; BSR set to: 2
  4277                           ;usb_device.c: 2886:                     {;usb_device.c: 2887:                         e
      +                          p_data_in[SetupPkt.EPNum].bits.transfer_terminated = 0;
  4278   0006AA  5134               	movf	52,w,b	;volatile
  4279   0006AC  0B0F               	andlw	15
  4280   0006AE  6E52               	movwf	??_USBStdFeatureReqHandler^0,c
  4281   0006B0  6A53               	clrf	(??_USBStdFeatureReqHandler+1)^0,c
  4282   0006B2  0E15               	movlw	low _ep_data_in
  4283   0006B4  2452               	addwf	??_USBStdFeatureReqHandler^0,w,c
  4284   0006B6  6ED9               	movwf	fsr2l,c
  4285   0006B8  0E00               	movlw	high _ep_data_in
  4286   0006BA  2053               	addwfc	(??_USBStdFeatureReqHandler+1)^0,w,c
  4287   0006BC  6EDA               	movwf	fsr2h,c
  4288   0006BE  92DF               	bcf	indf2,1,c
  4289   0006C0                     l3707:
  4290                           
  4291                           ;usb_device.c: 2890:                     p->STAT.Val &= ~(0x80 | 0x40 | 0x04);
  4292   0006C0  C057  FFD9         	movff	USBStdFeatureReqHandler@p,fsr2l
  4293   0006C4  C058  FFDA         	movff	USBStdFeatureReqHandler@p+1,fsr2h
  4294   0006C8  0E3B               	movlw	59
  4295   0006CA  16DF               	andwf	indf2,f,c
  4296   0006CC                     
  4297                           ;usb_device.c: 2893:                     USER_USB_CALLBACK_EVENT_HANDLER((USB_EVENT)EVEN
      +                          T_TRANSFER_TERMINATED,p,sizeof(p));
  4298   0006CC  0E00               	movlw	0
  4299   0006CE  6E4B               	movwf	(USER_USB_CALLBACK_EVENT_HANDLER@event+1)^0,c
  4300   0006D0  0E05               	movlw	5
  4301   0006D2  6E4A               	movwf	USER_USB_CALLBACK_EVENT_HANDLER@event^0,c
  4302   0006D4  C057  F04C         	movff	USBStdFeatureReqHandler@p,USER_USB_CALLBACK_EVENT_HANDLER@pdata
  4303   0006D8  C058  F04D         	movff	USBStdFeatureReqHandler@p+1,USER_USB_CALLBACK_EVENT_HANDLER@pdata+1
  4304   0006DC  0E00               	movlw	0
  4305   0006DE  6E4F               	movwf	(USER_USB_CALLBACK_EVENT_HANDLER@size+1)^0,c
  4306   0006E0  0E02               	movlw	2
  4307   0006E2  6E4E               	movwf	USER_USB_CALLBACK_EVENT_HANDLER@size^0,c
  4308   0006E4  ECA4  F00E         	call	_USER_USB_CALLBACK_EVENT_HANDLER	;wreg free
  4309                           
  4310                           ;usb_device.c: 2894:                 }
  4311   0006E8  EF7C  F003         	goto	l3713
  4312   0006EC                     l3711:
  4313                           
  4314                           ;usb_device.c: 2896:                 {;usb_device.c: 2898:                     p->STAT.V
      +                          al &= ~(0x80 | 0x40 | 0x04);
  4315   0006EC  C057  FFD9         	movff	USBStdFeatureReqHandler@p,fsr2l
  4316   0006F0  C058  FFDA         	movff	USBStdFeatureReqHandler@p+1,fsr2h
  4317   0006F4  0E3B               	movlw	59
  4318   0006F6  16DF               	andwf	indf2,f,c
  4319   0006F8                     l3713:
  4320                           
  4321                           ;usb_device.c: 2946:                 pUEP = (unsigned char*)(&UEP0+SetupPkt.EPNum);
  4322   0006F8  0102               	movlb	2	; () banked
  4323   0006FA  5134               	movf	52,w,b	;volatile
  4324   0006FC  0B0F               	andlw	15
  4325   0006FE  6E52               	movwf	??_USBStdFeatureReqHandler^0,c
  4326   000700  6A53               	clrf	(??_USBStdFeatureReqHandler+1)^0,c
  4327   000702  0E53               	movlw	83
  4328   000704  2452               	addwf	??_USBStdFeatureReqHandler^0,w,c
  4329   000706  6E54               	movwf	USBStdFeatureReqHandler@pUEP^0,c
  4330   000708  0E0F               	movlw	15
  4331   00070A  2053               	addwfc	(??_USBStdFeatureReqHandler+1)^0,w,c
  4332   00070C  6E55               	movwf	(USBStdFeatureReqHandler@pUEP+1)^0,c
  4333   00070E                     
  4334                           ; BSR set to: 2
  4335                           ;usb_device.c: 2950:             *pUEP &= ~0x0001;
  4336   00070E  C054  FFD9         	movff	USBStdFeatureReqHandler@pUEP,fsr2l
  4337   000712  C055  FFDA         	movff	USBStdFeatureReqHandler@pUEP+1,fsr2h
  4338   000716  0EFE               	movlw	254
  4339   000718  16DF               	andwf	indf2,f,c
  4340   00071A                     l618:
  4341   00071A  0012               	return		;funcret
  4342   00071C                     __end_of_USBStdFeatureReqHandler:
  4343                           	callstack 0
  4344                           
  4345 ;; *************** function _USER_USB_CALLBACK_EVENT_HANDLER *****************
  4346 ;; Defined at:
  4347 ;;		line 51 in file "usb_events.c"
  4348 ;; Parameters:    Size  Location     Type
  4349 ;;  event           2   14[COMRAM] enum E2852
  4350 ;;  pdata           2   16[COMRAM] PTR void 
  4351 ;;		 -> RAM(767), USTATcopy(1), USBActiveConfiguration(1), NULL(0), 
  4352 ;;		 -> BDT(48), 
  4353 ;;  size            2   18[COMRAM] unsigned short 
  4354 ;; Auto vars:     Size  Location     Type
  4355 ;;		None
  4356 ;; Return value:  Size  Location     Type
  4357 ;;                  1    wreg      _Bool 
  4358 ;; Registers used:
  4359 ;;		wreg, fsr2l, fsr2h, status,2, status,0, prodl, prodh, cstack
  4360 ;; Tracked objects:
  4361 ;;		On entry : 0/0
  4362 ;;		On exit  : 0/0
  4363 ;;		Unchanged: 0/0
  4364 ;; Data sizes:     COMRAM   BANK0   BANK1   BANK2
  4365 ;;      Params:         6       0       0       0
  4366 ;;      Locals:         0       0       0       0
  4367 ;;      Temps:          2       0       0       0
  4368 ;;      Totals:         8       0       0       0
  4369 ;;Total ram usage:        8 bytes
  4370 ;; Hardware stack levels used: 1
  4371 ;; Hardware stack levels required when called: 4
  4372 ;; This function calls:
  4373 ;;		_APP_DeviceCDCBasicDemoInitialize
  4374 ;;		_APP_LEDUpdateUSBStatus
  4375 ;;		_CDCInitEP
  4376 ;;		_SYSTEM_Initialize
  4377 ;;		_USBCheckCDCRequest
  4378 ;; This function is called by:
  4379 ;;		_USBDeviceTasks
  4380 ;;		_USBStdSetCfgHandler
  4381 ;;		_USBSuspend
  4382 ;;		_USBWakeFromSuspend
  4383 ;;		_USBCtrlTrfSetupHandler
  4384 ;;		_USBCheckStdRequest
  4385 ;;		_USBStdFeatureReqHandler
  4386 ;; This function uses a non-reentrant model
  4387 ;;
  4388                           
  4389                           	psect	text18
  4390   001D48                     __ptext18:
  4391                           	callstack 0
  4392   001D48                     _USER_USB_CALLBACK_EVENT_HANDLER:
  4393                           	callstack 25
  4394   001D48                     
  4395                           ;usb_events.c: 51: _Bool USER_USB_CALLBACK_EVENT_HANDLER(USB_EVENT event, void *pdata, u
      +                          int16_t size);usb_events.c: 52: {;usb_events.c: 53:     switch( (int) event )
  4396   001D48  EFC2  F00E         	goto	l3409
  4397   001D4C                     l3395:
  4398                           
  4399                           ;usb_events.c: 61:             APP_LEDUpdateUSBStatus();
  4400   001D4C  EC8C  F00C         	call	_APP_LEDUpdateUSBStatus	;wreg free
  4401                           
  4402                           ;usb_events.c: 62:             break;
  4403   001D50  EFFB  F00E         	goto	l767
  4404   001D54                     l3397:
  4405                           
  4406                           ;usb_events.c: 66:             APP_LEDUpdateUSBStatus();
  4407   001D54  EC8C  F00C         	call	_APP_LEDUpdateUSBStatus	;wreg free
  4408                           
  4409                           ;usb_events.c: 74:             SYSTEM_Initialize(SYSTEM_STATE_USB_SUSPEND);
  4410   001D58  0E01               	movlw	1
  4411   001D5A  EC97  F011         	call	_SYSTEM_Initialize
  4412                           
  4413                           ;usb_events.c: 75:             break;
  4414   001D5E  EFFB  F00E         	goto	l767
  4415   001D62                     l3399:
  4416                           
  4417                           ;usb_events.c: 79:             APP_LEDUpdateUSBStatus();
  4418   001D62  EC8C  F00C         	call	_APP_LEDUpdateUSBStatus	;wreg free
  4419                           
  4420                           ;usb_events.c: 85:             SYSTEM_Initialize(SYSTEM_STATE_USB_RESUME);
  4421   001D66  0E02               	movlw	2
  4422   001D68  EC97  F011         	call	_SYSTEM_Initialize
  4423                           
  4424                           ;usb_events.c: 86:             break;
  4425   001D6C  EFFB  F00E         	goto	l767
  4426   001D70                     l3401:
  4427                           
  4428                           ;usb_events.c: 91:             CDCInitEP();
  4429   001D70  EC8D  F010         	call	_CDCInitEP	;wreg free
  4430   001D74                     
  4431                           ;usb_events.c: 92:             APP_DeviceCDCBasicDemoInitialize();
  4432   001D74  EC51  F012         	call	_APP_DeviceCDCBasicDemoInitialize	;wreg free
  4433                           
  4434                           ;usb_events.c: 93:             break;
  4435   001D78  EFFB  F00E         	goto	l767
  4436   001D7C                     l3405:
  4437                           
  4438                           ;usb_events.c: 101:             USBCheckCDCRequest();
  4439   001D7C  EC8C  F00B         	call	_USBCheckCDCRequest	;wreg free
  4440                           
  4441                           ;usb_events.c: 102:             break;
  4442   001D80  EFFB  F00E         	goto	l767
  4443   001D84                     l3409:
  4444   001D84  C04A  F050         	movff	USER_USB_CALLBACK_EVENT_HANDLER@event,??_USER_USB_CALLBACK_EVENT_HANDLER
  4445   001D88  C04B  F051         	movff	USER_USB_CALLBACK_EVENT_HANDLER@event+1,??_USER_USB_CALLBACK_EVENT_HANDLER+1
  4446                           
  4447                           ; Switch on 2 bytes has been partitioned into a top level switch of size 1, and 2 sub-sw
      +                          itches
  4448                           ; Switch size 1, requested type "simple"
  4449                           ; Number of cases is 2, Range of values is 0 to 127
  4450                           ; switch strategies available:
  4451                           ; Name         Instructions Cycles
  4452                           ; simple_byte            7     4 (average)
  4453                           ;	Chosen strategy is simple_byte
  4454   001D8C  5051               	movf	(??_USER_USB_CALLBACK_EVENT_HANDLER+1)^0,w,c
  4455   001D8E  0A00               	xorlw	0	; case 0
  4456   001D90  B4D8               	btfsc	status,2,c
  4457   001D92  EFD1  F00E         	goto	l4787
  4458   001D96  0A7F               	xorlw	127	; case 127
  4459   001D98  B4D8               	btfsc	status,2,c
  4460   001D9A  EFF4  F00E         	goto	l4789
  4461   001D9E  EFFB  F00E         	goto	l767
  4462   001DA2                     l4787:
  4463                           
  4464                           ; Switch size 1, requested type "simple"
  4465                           ; Number of cases is 8, Range of values is 1 to 117
  4466                           ; switch strategies available:
  4467                           ; Name         Instructions Cycles
  4468                           ; simple_byte           25    13 (average)
  4469                           ;	Chosen strategy is simple_byte
  4470   001DA2  5050               	movf	??_USER_USB_CALLBACK_EVENT_HANDLER^0,w,c
  4471   001DA4  0A01               	xorlw	1	; case 1
  4472   001DA6  B4D8               	btfsc	status,2,c
  4473   001DA8  EFB8  F00E         	goto	l3401
  4474   001DAC  0A03               	xorlw	3	; case 2
  4475   001DAE  B4D8               	btfsc	status,2,c
  4476   001DB0  EFFB  F00E         	goto	l767
  4477   001DB4  0A01               	xorlw	1	; case 3
  4478   001DB6  B4D8               	btfsc	status,2,c
  4479   001DB8  EFBE  F00E         	goto	l3405
  4480   001DBC  0A06               	xorlw	6	; case 5
  4481   001DBE  B4D8               	btfsc	status,2,c
  4482   001DC0  EFFB  F00E         	goto	l767
  4483   001DC4  0A77               	xorlw	119	; case 114
  4484   001DC6  B4D8               	btfsc	status,2,c
  4485   001DC8  EFFB  F00E         	goto	l767
  4486   001DCC  0A01               	xorlw	1	; case 115
  4487   001DCE  B4D8               	btfsc	status,2,c
  4488   001DD0  EFA6  F00E         	goto	l3395
  4489   001DD4  0A07               	xorlw	7	; case 116
  4490   001DD6  B4D8               	btfsc	status,2,c
  4491   001DD8  EFB1  F00E         	goto	l3399
  4492   001DDC  0A01               	xorlw	1	; case 117
  4493   001DDE  B4D8               	btfsc	status,2,c
  4494   001DE0  EFAA  F00E         	goto	l3397
  4495   001DE4  EFFB  F00E         	goto	l767
  4496   001DE8                     l4789:
  4497                           
  4498                           ; Switch size 1, requested type "simple"
  4499                           ; Number of cases is 1, Range of values is 255 to 255
  4500                           ; switch strategies available:
  4501                           ; Name         Instructions Cycles
  4502                           ; simple_byte            4     3 (average)
  4503                           ;	Chosen strategy is simple_byte
  4504   001DE8  5050               	movf	??_USER_USB_CALLBACK_EVENT_HANDLER^0,w,c
  4505   001DEA  0AFF               	xorlw	255	; case 255
  4506   001DEC  B4D8               	btfsc	status,2,c
  4507   001DEE  EFFB  F00E         	goto	l767
  4508   001DF2  EFFB  F00E         	goto	l767
  4509   001DF6                     l767:
  4510   001DF6  0012               	return		;funcret
  4511   001DF8                     __end_of_USER_USB_CALLBACK_EVENT_HANDLER:
  4512                           	callstack 0
  4513                           
  4514 ;; *************** function _USBCheckCDCRequest *****************
  4515 ;; Defined at:
  4516 ;;		line 148 in file "usb_device_cdc.c"
  4517 ;; Parameters:    Size  Location     Type
  4518 ;;		None
  4519 ;; Auto vars:     Size  Location     Type
  4520 ;;		None
  4521 ;; Return value:  Size  Location     Type
  4522 ;;                  1    wreg      void 
  4523 ;; Registers used:
  4524 ;;		wreg, status,2, status,0
  4525 ;; Tracked objects:
  4526 ;;		On entry : 0/0
  4527 ;;		On exit  : 0/0
  4528 ;;		Unchanged: 0/0
  4529 ;; Data sizes:     COMRAM   BANK0   BANK1   BANK2
  4530 ;;      Params:         0       0       0       0
  4531 ;;      Locals:         0       0       0       0
  4532 ;;      Temps:          2       0       0       0
  4533 ;;      Totals:         2       0       0       0
  4534 ;;Total ram usage:        2 bytes
  4535 ;; Hardware stack levels used: 1
  4536 ;; Hardware stack levels required when called: 1
  4537 ;; This function calls:
  4538 ;;		Nothing
  4539 ;; This function is called by:
  4540 ;;		_USER_USB_CALLBACK_EVENT_HANDLER
  4541 ;; This function uses a non-reentrant model
  4542 ;;
  4543                           
  4544                           	psect	text19
  4545   001718                     __ptext19:
  4546                           	callstack 0
  4547   001718                     _USBCheckCDCRequest:
  4548                           	callstack 27
  4549   001718                     
  4550                           ;usb_device_cdc.c: 153:     if(SetupPkt.Recipient != (0x01)) return;
  4551   001718  0102               	movlb	2	; () banked
  4552   00171A  5130               	movf	48,w,b	;volatile
  4553   00171C  0B1F               	andlw	31
  4554   00171E  06E8               	decf	wreg,f,c
  4555   001720  B4D8               	btfsc	status,2,c
  4556   001722  EF95  F00B         	goto	u1831
  4557   001726  EF97  F00B         	goto	u1830
  4558   00172A                     u1831:
  4559   00172A  EF99  F00B         	goto	l3305
  4560   00172E                     u1830:
  4561   00172E  EF0B  F00C         	goto	l670
  4562   001732                     l3305:
  4563                           
  4564                           ; BSR set to: 2
  4565                           ;usb_device_cdc.c: 158:     if(SetupPkt.RequestType != (0x20>>5)) return;
  4566   001732  3930               	swapf	48,w,b	;volatile
  4567   001734  32E8               	rrcf	wreg,f,c
  4568   001736  0B03               	andlw	3
  4569   001738  06E8               	decf	wreg,f,c
  4570   00173A  B4D8               	btfsc	status,2,c
  4571   00173C  EFA2  F00B         	goto	u1841
  4572   001740  EFA4  F00B         	goto	u1840
  4573   001744                     u1841:
  4574   001744  EFA6  F00B         	goto	l3309
  4575   001748                     u1840:
  4576   001748  EF0B  F00C         	goto	l670
  4577   00174C                     l3309:
  4578                           
  4579                           ; BSR set to: 2
  4580                           ;usb_device_cdc.c: 164:     if((SetupPkt.bIntfID != 0x0)&&
  4581   00174C  5134               	movf	52,w,b	;volatile
  4582   00174E  B4D8               	btfsc	status,2,c
  4583   001750  EFAC  F00B         	goto	u1851
  4584   001754  EFAE  F00B         	goto	u1850
  4585   001758                     u1851:
  4586   001758  EFEA  F00B         	goto	l3339
  4587   00175C                     u1850:
  4588   00175C                     
  4589                           ; BSR set to: 2
  4590   00175C  0534               	decf	52,w,b	;volatile
  4591   00175E  B4D8               	btfsc	status,2,c
  4592   001760  EFB4  F00B         	goto	u1861
  4593   001764  EFB6  F00B         	goto	u1860
  4594   001768                     u1861:
  4595   001768  EFEA  F00B         	goto	l3339
  4596   00176C                     u1860:
  4597   00176C  EF0B  F00C         	goto	l670
  4598   001770                     l3315:
  4599                           
  4600                           ; BSR set to: 2
  4601                           ;usb_device_cdc.c: 172:             inPipes[0].pSrc.bRam = (uint8_t*)&dummy_encapsulated
      +                          _cmd_response;
  4602   001770  0EC1               	movlw	low _dummy_encapsulated_cmd_response
  4603   001772  6E09               	movwf	_inPipes^0,c
  4604   001774  0E00               	movlw	high _dummy_encapsulated_cmd_response
  4605   001776  6E0A               	movwf	(_inPipes+1)^0,c
  4606   001778                     
  4607                           ; BSR set to: 2
  4608                           ;usb_device_cdc.c: 173:             inPipes[0].wCount.Val = 0x08;
  4609   001778  0E00               	movlw	0
  4610   00177A  6E0E               	movwf	(_inPipes+5)^0,c
  4611   00177C  0E08               	movlw	8
  4612   00177E  6E0D               	movwf	(_inPipes+4)^0,c
  4613   001780                     
  4614                           ; BSR set to: 2
  4615                           ;usb_device_cdc.c: 174:             inPipes[0].info.bits.ctrl_trf_mem = 0x01;
  4616   001780  800C               	bsf	(_inPipes+3)^0,0,c
  4617   001782                     l3321:
  4618                           
  4619                           ; BSR set to: 2
  4620                           ;usb_device_cdc.c: 175:             inPipes[0].info.bits.busy = 1;
  4621   001782  8E0C               	bsf	(_inPipes+3)^0,7,c
  4622                           
  4623                           ;usb_device_cdc.c: 176:             break;
  4624   001784  EF0B  F00C         	goto	l670
  4625   001788                     l3323:
  4626                           
  4627                           ; BSR set to: 2
  4628                           ;usb_device_cdc.c: 179:             inPipes[0].pSrc.bRam = (uint8_t*)&dummy_encapsulated
      +                          _cmd_response;
  4629   001788  0EC1               	movlw	low _dummy_encapsulated_cmd_response
  4630   00178A  6E09               	movwf	_inPipes^0,c
  4631   00178C  0E00               	movlw	high _dummy_encapsulated_cmd_response
  4632   00178E  6E0A               	movwf	(_inPipes+1)^0,c
  4633   001790  EFC1  F00B         	goto	l3321
  4634   001794                     l677:
  4635                           
  4636                           ; BSR set to: 2
  4637                           ;usb_device_cdc.c: 186:             outPipes[0].wCount.Val = SetupPkt.wLength;
  4638   001794  C236 F005          	movff	566,_outPipes+4	;volatile
  4639   001798  C237 F006          	movff	567,_outPipes+5	;volatile
  4640   00179C                     
  4641                           ; BSR set to: 2
  4642                           ;usb_device_cdc.c: 187:             outPipes[0].pDst.bRam = (uint8_t*)&line_coding._byte
      +                          [0];
  4643   00179C  0EC9               	movlw	low _line_coding
  4644   00179E  6E01               	movwf	_outPipes^0,c
  4645   0017A0  0E00               	movlw	high _line_coding
  4646   0017A2  6E02               	movwf	(_outPipes+1)^0,c
  4647                           
  4648                           ;usb_device_cdc.c: 188:             outPipes[0].pFunc = ((void*)0);
  4649   0017A4  0E00               	movlw	0
  4650   0017A6  6E07               	movwf	(_outPipes+6)^0,c
  4651   0017A8  0E00               	movlw	0
  4652   0017AA  6E08               	movwf	(_outPipes+7)^0,c
  4653   0017AC                     
  4654                           ; BSR set to: 2
  4655                           ;usb_device_cdc.c: 189:             outPipes[0].info.bits.busy = 1;
  4656   0017AC  8E04               	bsf	(_outPipes+3)^0,7,c
  4657                           
  4658                           ;usb_device_cdc.c: 190:             break;
  4659   0017AE  EF0B  F00C         	goto	l670
  4660   0017B2                     l3331:
  4661                           
  4662                           ; BSR set to: 2
  4663                           ;usb_device_cdc.c: 193:             { inPipes[0].pSrc.bRam = (uint8_t*)&line_coding; inP
      +                          ipes[0].wCount.Val = 0x07; inPipes[0].info.Val = 0x40 | 0x80 | 0x01; };
  4664   0017B2  0EC9               	movlw	low _line_coding
  4665   0017B4  6E09               	movwf	_inPipes^0,c
  4666   0017B6  0E00               	movlw	high _line_coding
  4667   0017B8  6E0A               	movwf	(_inPipes+1)^0,c
  4668   0017BA                     
  4669                           ; BSR set to: 2
  4670   0017BA  0E00               	movlw	0
  4671   0017BC  6E0E               	movwf	(_inPipes+5)^0,c
  4672   0017BE  0E07               	movlw	7
  4673   0017C0  6E0D               	movwf	(_inPipes+4)^0,c
  4674   0017C2                     
  4675                           ; BSR set to: 2
  4676   0017C2  0EC1               	movlw	193
  4677   0017C4  6E0C               	movwf	(_inPipes+3)^0,c
  4678                           
  4679                           ;usb_device_cdc.c: 197:             break;
  4680   0017C6  EF0B  F00C         	goto	l670
  4681   0017CA                     l679:
  4682                           
  4683                           ; BSR set to: 2
  4684                           ;usb_device_cdc.c: 200:             control_signal_bitmap._byte = (uint8_t)SetupPkt.wVal
      +                          ue;
  4685   0017CA  C232 F024          	movff	562,_control_signal_bitmap	;volatile
  4686                           
  4687                           ;usb_device_cdc.c: 232:             inPipes[0].info.bits.busy = 1;
  4688   0017CE  8E0C               	bsf	(_inPipes+3)^0,7,c
  4689                           
  4690                           ;usb_device_cdc.c: 233:             break;
  4691   0017D0  EF0B  F00C         	goto	l670
  4692   0017D4                     l3339:
  4693                           
  4694                           ; BSR set to: 2
  4695   0017D4  5131               	movf	49,w,b	;volatile
  4696   0017D6  6E3C               	movwf	??_USBCheckCDCRequest^0,c
  4697   0017D8  6A3D               	clrf	(??_USBCheckCDCRequest+1)^0,c
  4698                           
  4699                           ; Switch on 2 bytes has been partitioned into a top level switch of size 1, and 1 sub-sw
      +                          itches
  4700                           ; Switch size 1, requested type "simple"
  4701                           ; Number of cases is 1, Range of values is 0 to 0
  4702                           ; switch strategies available:
  4703                           ; Name         Instructions Cycles
  4704                           ; simple_byte            4     3 (average)
  4705                           ;	Chosen strategy is simple_byte
  4706   0017DA  503D               	movf	(??_USBCheckCDCRequest+1)^0,w,c
  4707   0017DC  0A00               	xorlw	0	; case 0
  4708   0017DE  B4D8               	btfsc	status,2,c
  4709   0017E0  EFF4  F00B         	goto	l4791
  4710   0017E4  EF0B  F00C         	goto	l670
  4711   0017E8                     l4791:
  4712                           
  4713                           ; BSR set to: 2
  4714                           ; Switch size 1, requested type "simple"
  4715                           ; Number of cases is 5, Range of values is 0 to 34
  4716                           ; switch strategies available:
  4717                           ; Name         Instructions Cycles
  4718                           ; simple_byte           16     9 (average)
  4719                           ;	Chosen strategy is simple_byte
  4720   0017E8  503C               	movf	??_USBCheckCDCRequest^0,w,c
  4721   0017EA  0A00               	xorlw	0	; case 0
  4722   0017EC  B4D8               	btfsc	status,2,c
  4723   0017EE  EFB8  F00B         	goto	l3315
  4724   0017F2  0A01               	xorlw	1	; case 1
  4725   0017F4  B4D8               	btfsc	status,2,c
  4726   0017F6  EFC4  F00B         	goto	l3323
  4727   0017FA  0A21               	xorlw	33	; case 32
  4728   0017FC  B4D8               	btfsc	status,2,c
  4729   0017FE  EFCA  F00B         	goto	l677
  4730   001802  0A01               	xorlw	1	; case 33
  4731   001804  B4D8               	btfsc	status,2,c
  4732   001806  EFD9  F00B         	goto	l3331
  4733   00180A  0A03               	xorlw	3	; case 34
  4734   00180C  B4D8               	btfsc	status,2,c
  4735   00180E  EFE5  F00B         	goto	l679
  4736   001812  EF0B  F00C         	goto	l670
  4737   001816                     l670:
  4738                           
  4739                           ; BSR set to: 2
  4740   001816  0012               	return		;funcret
  4741   001818                     __end_of_USBCheckCDCRequest:
  4742                           	callstack 0
  4743                           
  4744 ;; *************** function _SYSTEM_Initialize *****************
  4745 ;; Defined at:
  4746 ;;		line 65 in file "system.c"
  4747 ;; Parameters:    Size  Location     Type
  4748 ;;  state           1    wreg     enum E2834
  4749 ;; Auto vars:     Size  Location     Type
  4750 ;;  state           1    5[COMRAM] enum E2834
  4751 ;; Return value:  Size  Location     Type
  4752 ;;                  1    wreg      void 
  4753 ;; Registers used:
  4754 ;;		wreg, status,2, status,0, cstack
  4755 ;; Tracked objects:
  4756 ;;		On entry : 0/0
  4757 ;;		On exit  : 0/0
  4758 ;;		Unchanged: 0/0
  4759 ;; Data sizes:     COMRAM   BANK0   BANK1   BANK2
  4760 ;;      Params:         0       0       0       0
  4761 ;;      Locals:         1       0       0       0
  4762 ;;      Temps:          2       0       0       0
  4763 ;;      Totals:         3       0       0       0
  4764 ;;Total ram usage:        3 bytes
  4765 ;; Hardware stack levels used: 1
  4766 ;; Hardware stack levels required when called: 2
  4767 ;; This function calls:
  4768 ;;		_BUTTON_Enable
  4769 ;;		_LED_Enable
  4770 ;; This function is called by:
  4771 ;;		_USER_USB_CALLBACK_EVENT_HANDLER
  4772 ;; This function uses a non-reentrant model
  4773 ;;
  4774                           
  4775                           	psect	text20
  4776   00232E                     __ptext20:
  4777                           	callstack 0
  4778   00232E                     _SYSTEM_Initialize:
  4779                           	callstack 26
  4780                           
  4781                           ; BSR set to: 2
  4782                           ;incstack = 0
  4783                           ;SYSTEM_Initialize@state stored from wreg
  4784   00232E  6E41               	movwf	SYSTEM_Initialize@state^0,c
  4785   002330                     
  4786                           ;system.c: 65: void SYSTEM_Initialize( SYSTEM_STATE state );system.c: 66: {;system.c: 67
      +                          :     switch(state)
  4787   002330  EFA2  F011         	goto	l3295
  4788   002334                     l3291:
  4789                           
  4790                           ;system.c: 70:             LED_Enable(LED_D1);
  4791   002334  0E01               	movlw	1
  4792   002336  EC5C  F010         	call	_LED_Enable
  4793                           
  4794                           ;system.c: 71:             BUTTON_Enable(BUTTON_S1);
  4795   00233A  0E01               	movlw	1
  4796   00233C  EC11  F012         	call	_BUTTON_Enable
  4797                           
  4798                           ;system.c: 72:             break;
  4799   002340  EFBB  F011         	goto	l222
  4800   002344                     l3295:
  4801   002344  5041               	movf	SYSTEM_Initialize@state^0,w,c
  4802   002346  6E3F               	movwf	??_SYSTEM_Initialize^0,c
  4803   002348  6A40               	clrf	(??_SYSTEM_Initialize+1)^0,c
  4804                           
  4805                           ; Switch on 2 bytes has been partitioned into a top level switch of size 1, and 1 sub-sw
      +                          itches
  4806                           ; Switch size 1, requested type "simple"
  4807                           ; Number of cases is 1, Range of values is 0 to 0
  4808                           ; switch strategies available:
  4809                           ; Name         Instructions Cycles
  4810                           ; simple_byte            4     3 (average)
  4811                           ;	Chosen strategy is simple_byte
  4812   00234A  5040               	movf	(??_SYSTEM_Initialize+1)^0,w,c
  4813   00234C  0A00               	xorlw	0	; case 0
  4814   00234E  B4D8               	btfsc	status,2,c
  4815   002350  EFAC  F011         	goto	l4793
  4816   002354  EFBB  F011         	goto	l222
  4817   002358                     l4793:
  4818                           
  4819                           ; Switch size 1, requested type "simple"
  4820                           ; Number of cases is 3, Range of values is 0 to 2
  4821                           ; switch strategies available:
  4822                           ; Name         Instructions Cycles
  4823                           ; simple_byte           10     6 (average)
  4824                           ;	Chosen strategy is simple_byte
  4825   002358  503F               	movf	??_SYSTEM_Initialize^0,w,c
  4826   00235A  0A00               	xorlw	0	; case 0
  4827   00235C  B4D8               	btfsc	status,2,c
  4828   00235E  EF9A  F011         	goto	l3291
  4829   002362  0A01               	xorlw	1	; case 1
  4830   002364  B4D8               	btfsc	status,2,c
  4831   002366  EFBB  F011         	goto	l222
  4832   00236A  0A03               	xorlw	3	; case 2
  4833   00236C  B4D8               	btfsc	status,2,c
  4834   00236E  EFBB  F011         	goto	l222
  4835   002372  EFBB  F011         	goto	l222
  4836   002376                     l222:
  4837   002376  0012               	return		;funcret
  4838   002378                     __end_of_SYSTEM_Initialize:
  4839                           	callstack 0
  4840                           
  4841 ;; *************** function _LED_Enable *****************
  4842 ;; Defined at:
  4843 ;;		line 220 in file "leds.c"
  4844 ;; Parameters:    Size  Location     Type
  4845 ;;  led             1    wreg     enum E2
  4846 ;; Auto vars:     Size  Location     Type
  4847 ;;  led             1    2[COMRAM] enum E2
  4848 ;; Return value:  Size  Location     Type
  4849 ;;                  1    wreg      void 
  4850 ;; Registers used:
  4851 ;;		wreg, status,2, status,0
  4852 ;; Tracked objects:
  4853 ;;		On entry : 0/0
  4854 ;;		On exit  : 0/0
  4855 ;;		Unchanged: 0/0
  4856 ;; Data sizes:     COMRAM   BANK0   BANK1   BANK2
  4857 ;;      Params:         0       0       0       0
  4858 ;;      Locals:         1       0       0       0
  4859 ;;      Temps:          2       0       0       0
  4860 ;;      Totals:         3       0       0       0
  4861 ;;Total ram usage:        3 bytes
  4862 ;; Hardware stack levels used: 1
  4863 ;; Hardware stack levels required when called: 1
  4864 ;; This function calls:
  4865 ;;		Nothing
  4866 ;; This function is called by:
  4867 ;;		_SYSTEM_Initialize
  4868 ;; This function uses a non-reentrant model
  4869 ;;
  4870                           
  4871                           	psect	text21
  4872   0020B8                     __ptext21:
  4873                           	callstack 0
  4874   0020B8                     _LED_Enable:
  4875                           	callstack 26
  4876                           
  4877                           ;incstack = 0
  4878                           ;LED_Enable@led stored from wreg
  4879   0020B8  6E3E               	movwf	LED_Enable@led^0,c
  4880   0020BA                     
  4881                           ;leds.c: 220: void LED_Enable(LED led);leds.c: 221: {;leds.c: 222:     switch(led)
  4882   0020BA  EF6B  F010         	goto	l3199
  4883   0020BE                     l140:
  4884                           
  4885                           ;leds.c: 225:             TRISCbits.TRISC0 = 0;
  4886   0020BE  9094               	bcf	148,0,c	;volatile
  4887                           
  4888                           ;leds.c: 226:             break;
  4889   0020C0  EF8C  F010         	goto	l146
  4890   0020C4                     l142:
  4891                           
  4892                           ;leds.c: 229:             TRISCbits.TRISC1 = 0;
  4893   0020C4  9294               	bcf	148,1,c	;volatile
  4894                           
  4895                           ;leds.c: 230:             break;
  4896   0020C6  EF8C  F010         	goto	l146
  4897   0020CA                     l143:
  4898                           
  4899                           ;leds.c: 233:             TRISCbits.TRISC2 = 0;
  4900   0020CA  9494               	bcf	148,2,c	;volatile
  4901                           
  4902                           ;leds.c: 234:             break;
  4903   0020CC  EF8C  F010         	goto	l146
  4904   0020D0                     l144:
  4905                           
  4906                           ;leds.c: 237:             TRISCbits.TRISC3 = 0;
  4907   0020D0  9694               	bcf	148,3,c	;volatile
  4908                           
  4909                           ;leds.c: 238:             break;
  4910   0020D2  EF8C  F010         	goto	l146
  4911   0020D6                     l3199:
  4912   0020D6  503E               	movf	LED_Enable@led^0,w,c
  4913   0020D8  6E3C               	movwf	??_LED_Enable^0,c
  4914   0020DA  6A3D               	clrf	(??_LED_Enable+1)^0,c
  4915                           
  4916                           ; Switch on 2 bytes has been partitioned into a top level switch of size 1, and 1 sub-sw
      +                          itches
  4917                           ; Switch size 1, requested type "simple"
  4918                           ; Number of cases is 1, Range of values is 0 to 0
  4919                           ; switch strategies available:
  4920                           ; Name         Instructions Cycles
  4921                           ; simple_byte            4     3 (average)
  4922                           ;	Chosen strategy is simple_byte
  4923   0020DC  503D               	movf	(??_LED_Enable+1)^0,w,c
  4924   0020DE  0A00               	xorlw	0	; case 0
  4925   0020E0  B4D8               	btfsc	status,2,c
  4926   0020E2  EF75  F010         	goto	l4795
  4927   0020E6  EF8C  F010         	goto	l146
  4928   0020EA                     l4795:
  4929                           
  4930                           ; Switch size 1, requested type "simple"
  4931                           ; Number of cases is 5, Range of values is 0 to 4
  4932                           ; switch strategies available:
  4933                           ; Name         Instructions Cycles
  4934                           ; simple_byte           16     9 (average)
  4935                           ;	Chosen strategy is simple_byte
  4936   0020EA  503C               	movf	??_LED_Enable^0,w,c
  4937   0020EC  0A00               	xorlw	0	; case 0
  4938   0020EE  B4D8               	btfsc	status,2,c
  4939   0020F0  EF8C  F010         	goto	l146
  4940   0020F4  0A01               	xorlw	1	; case 1
  4941   0020F6  B4D8               	btfsc	status,2,c
  4942   0020F8  EF5F  F010         	goto	l140
  4943   0020FC  0A03               	xorlw	3	; case 2
  4944   0020FE  B4D8               	btfsc	status,2,c
  4945   002100  EF62  F010         	goto	l142
  4946   002104  0A01               	xorlw	1	; case 3
  4947   002106  B4D8               	btfsc	status,2,c
  4948   002108  EF65  F010         	goto	l143
  4949   00210C  0A07               	xorlw	7	; case 4
  4950   00210E  B4D8               	btfsc	status,2,c
  4951   002110  EF68  F010         	goto	l144
  4952   002114  EF8C  F010         	goto	l146
  4953   002118                     l146:
  4954   002118  0012               	return		;funcret
  4955   00211A                     __end_of_LED_Enable:
  4956                           	callstack 0
  4957                           
  4958 ;; *************** function _BUTTON_Enable *****************
  4959 ;; Defined at:
  4960 ;;		line 85 in file "buttons.c"
  4961 ;; Parameters:    Size  Location     Type
  4962 ;;  button          1    wreg     enum E2809
  4963 ;; Auto vars:     Size  Location     Type
  4964 ;;  button          1    2[COMRAM] enum E2809
  4965 ;; Return value:  Size  Location     Type
  4966 ;;                  1    wreg      void 
  4967 ;; Registers used:
  4968 ;;		wreg, status,2, status,0
  4969 ;; Tracked objects:
  4970 ;;		On entry : 0/0
  4971 ;;		On exit  : 0/0
  4972 ;;		Unchanged: 0/0
  4973 ;; Data sizes:     COMRAM   BANK0   BANK1   BANK2
  4974 ;;      Params:         0       0       0       0
  4975 ;;      Locals:         1       0       0       0
  4976 ;;      Temps:          2       0       0       0
  4977 ;;      Totals:         3       0       0       0
  4978 ;;Total ram usage:        3 bytes
  4979 ;; Hardware stack levels used: 1
  4980 ;; Hardware stack levels required when called: 1
  4981 ;; This function calls:
  4982 ;;		Nothing
  4983 ;; This function is called by:
  4984 ;;		_SYSTEM_Initialize
  4985 ;; This function uses a non-reentrant model
  4986 ;;
  4987                           
  4988                           	psect	text22
  4989   002422                     __ptext22:
  4990                           	callstack 0
  4991   002422                     _BUTTON_Enable:
  4992                           	callstack 26
  4993                           
  4994                           ;incstack = 0
  4995                           ;BUTTON_Enable@button stored from wreg
  4996   002422  6E3E               	movwf	BUTTON_Enable@button^0,c
  4997   002424  503E               	movf	BUTTON_Enable@button^0,w,c
  4998   002426  6E3C               	movwf	??_BUTTON_Enable^0,c
  4999   002428  6A3D               	clrf	(??_BUTTON_Enable+1)^0,c
  5000                           
  5001                           ; Switch on 2 bytes has been partitioned into a top level switch of size 1, and 1 sub-sw
      +                          itches
  5002                           ; Switch size 1, requested type "simple"
  5003                           ; Number of cases is 1, Range of values is 0 to 0
  5004                           ; switch strategies available:
  5005                           ; Name         Instructions Cycles
  5006                           ; simple_byte            4     3 (average)
  5007                           ;	Chosen strategy is simple_byte
  5008   00242A  503D               	movf	(??_BUTTON_Enable+1)^0,w,c
  5009   00242C  0A00               	xorlw	0	; case 0
  5010   00242E  B4D8               	btfsc	status,2,c
  5011   002430  EF1C  F012         	goto	l4797
  5012   002434  EF27  F012         	goto	l92
  5013   002438                     l4797:
  5014                           
  5015                           ; Switch size 1, requested type "simple"
  5016                           ; Number of cases is 2, Range of values is 0 to 1
  5017                           ; switch strategies available:
  5018                           ; Name         Instructions Cycles
  5019                           ; simple_byte            7     4 (average)
  5020                           ;	Chosen strategy is simple_byte
  5021   002438  503C               	movf	??_BUTTON_Enable^0,w,c
  5022   00243A  0A00               	xorlw	0	; case 0
  5023   00243C  B4D8               	btfsc	status,2,c
  5024   00243E  EF27  F012         	goto	l92
  5025   002442  0A01               	xorlw	1	; case 1
  5026   002444  B4D8               	btfsc	status,2,c
  5027   002446  EF27  F012         	goto	l92
  5028   00244A  EF27  F012         	goto	l92
  5029   00244E                     l92:
  5030   00244E  0012               	return		;funcret
  5031   002450                     __end_of_BUTTON_Enable:
  5032                           	callstack 0
  5033                           
  5034 ;; *************** function _CDCInitEP *****************
  5035 ;; Defined at:
  5036 ;;		line 295 in file "usb_device_cdc.c"
  5037 ;; Parameters:    Size  Location     Type
  5038 ;;		None
  5039 ;; Auto vars:     Size  Location     Type
  5040 ;;		None
  5041 ;; Return value:  Size  Location     Type
  5042 ;;                  1    wreg      void 
  5043 ;; Registers used:
  5044 ;;		wreg, fsr2l, fsr2h, status,2, status,0, prodl, prodh, cstack
  5045 ;; Tracked objects:
  5046 ;;		On entry : 0/0
  5047 ;;		On exit  : 0/0
  5048 ;;		Unchanged: 0/0
  5049 ;; Data sizes:     COMRAM   BANK0   BANK1   BANK2
  5050 ;;      Params:         0       0       0       0
  5051 ;;      Locals:         0       0       0       0
  5052 ;;      Temps:          0       0       0       0
  5053 ;;      Totals:         0       0       0       0
  5054 ;;Total ram usage:        0 bytes
  5055 ;; Hardware stack levels used: 1
  5056 ;; Hardware stack levels required when called: 3
  5057 ;; This function calls:
  5058 ;;		_USBEnableEndpoint
  5059 ;;		_USBTransferOnePacket
  5060 ;; This function is called by:
  5061 ;;		_USER_USB_CALLBACK_EVENT_HANDLER
  5062 ;; This function uses a non-reentrant model
  5063 ;;
  5064                           
  5065                           	psect	text23
  5066   00211A                     __ptext23:
  5067                           	callstack 0
  5068   00211A                     _CDCInitEP:
  5069                           	callstack 25
  5070   00211A                     
  5071                           ;usb_device_cdc.c: 298:     line_coding.dwDTERate = 19200;
  5072   00211A  0E00               	movlw	0
  5073   00211C  0100               	movlb	0	; () banked
  5074   00211E  6FC9               	movwf	_line_coding& (0+255),b
  5075   002120  0E4B               	movlw	75
  5076   002122  6FCA               	movwf	(_line_coding+1)& (0+255),b
  5077   002124  0E00               	movlw	0
  5078   002126  6FCB               	movwf	(_line_coding+2)& (0+255),b
  5079   002128  0E00               	movlw	0
  5080   00212A  6FCC               	movwf	(_line_coding+3)& (0+255),b
  5081                           
  5082                           ;usb_device_cdc.c: 299:     line_coding.bCharFormat = 0x00;
  5083   00212C  0E00               	movlw	0
  5084   00212E  6FCD               	movwf	(_line_coding+4)& (0+255),b
  5085                           
  5086                           ;usb_device_cdc.c: 300:     line_coding.bParityType = 0x00;
  5087   002130  0E00               	movlw	0
  5088   002132  6FCE               	movwf	(_line_coding+5)& (0+255),b
  5089                           
  5090                           ;usb_device_cdc.c: 301:     line_coding.bDataBits = 0x08;
  5091   002134  0E08               	movlw	8
  5092   002136  6FCF               	movwf	(_line_coding+6)& (0+255),b
  5093                           
  5094                           ;usb_device_cdc.c: 303:     cdc_rx_len = 0;
  5095   002138  0E00               	movlw	0
  5096   00213A  6E27               	movwf	_cdc_rx_len^0,c
  5097   00213C                     
  5098                           ; BSR set to: 0
  5099                           ;usb_device_cdc.c: 316:     USBEnableEndpoint(1,0x02|0x10|0x08);
  5100   00213C  0E1A               	movlw	26
  5101   00213E  6E46               	movwf	USBEnableEndpoint@options^0,c
  5102   002140  0E01               	movlw	1
  5103   002142  EC71  F011         	call	_USBEnableEndpoint
  5104   002146                     
  5105                           ;usb_device_cdc.c: 317:     USBEnableEndpoint(2,0x02|0x04|0x10|0x08);
  5106   002146  0E1E               	movlw	30
  5107   002148  6E46               	movwf	USBEnableEndpoint@options^0,c
  5108   00214A  0E02               	movlw	2
  5109   00214C  EC71  F011         	call	_USBEnableEndpoint
  5110   002150                     
  5111                           ;usb_device_cdc.c: 319:     CDCDataOutHandle = USBTransferOnePacket(2,0,(uint8_t*)&cdc_d
      +                          ata_rx,sizeof(cdc_data_rx));
  5112   002150  0E00               	movlw	0
  5113   002152  6E3C               	movwf	USBTransferOnePacket@dir^0,c
  5114   002154  0E80               	movlw	128
  5115   002156  6E3D               	movwf	USBTransferOnePacket@data^0,c
  5116   002158  0E02               	movlw	2
  5117   00215A  6E3E               	movwf	(USBTransferOnePacket@data+1)^0,c
  5118   00215C  0E40               	movlw	64
  5119   00215E  6E3F               	movwf	USBTransferOnePacket@len^0,c
  5120   002160  0E02               	movlw	2
  5121   002162  ECD0  F008         	call	_USBTransferOnePacket
  5122   002166  C03C  F01A         	movff	?_USBTransferOnePacket,_CDCDataOutHandle
  5123   00216A  C03D  F01B         	movff	?_USBTransferOnePacket+1,_CDCDataOutHandle+1
  5124   00216E                     
  5125                           ;usb_device_cdc.c: 320:     CDCDataInHandle = ((void*)0);
  5126   00216E  0E00               	movlw	0
  5127   002170  6E18               	movwf	_CDCDataInHandle^0,c
  5128   002172  0E00               	movlw	0
  5129   002174  6E19               	movwf	(_CDCDataInHandle+1)^0,c
  5130   002176                     
  5131                           ;usb_device_cdc.c: 347:     cdc_trf_state = 0;
  5132   002176  0E00               	movlw	0
  5133   002178  6E36               	movwf	_cdc_trf_state^0,c
  5134   00217A  0012               	return		;funcret
  5135   00217C                     __end_of_CDCInitEP:
  5136                           	callstack 0
  5137                           
  5138 ;; *************** function _USBEnableEndpoint *****************
  5139 ;; Defined at:
  5140 ;;		line 882 in file "usb_device.c"
  5141 ;; Parameters:    Size  Location     Type
  5142 ;;  ep              1    wreg     unsigned char 
  5143 ;;  options         1   10[COMRAM] unsigned char 
  5144 ;; Auto vars:     Size  Location     Type
  5145 ;;  ep              1   13[COMRAM] unsigned char 
  5146 ;;  p               2   11[COMRAM] PTR unsigned char 
  5147 ;;		 -> UEP0(1), 
  5148 ;; Return value:  Size  Location     Type
  5149 ;;                  1    wreg      void 
  5150 ;; Registers used:
  5151 ;;		wreg, fsr2l, fsr2h, status,2, status,0, prodl, prodh, cstack
  5152 ;; Tracked objects:
  5153 ;;		On entry : 0/0
  5154 ;;		On exit  : 0/0
  5155 ;;		Unchanged: 0/0
  5156 ;; Data sizes:     COMRAM   BANK0   BANK1   BANK2
  5157 ;;      Params:         1       0       0       0
  5158 ;;      Locals:         3       0       0       0
  5159 ;;      Temps:          0       0       0       0
  5160 ;;      Totals:         4       0       0       0
  5161 ;;Total ram usage:        4 bytes
  5162 ;; Hardware stack levels used: 1
  5163 ;; Hardware stack levels required when called: 2
  5164 ;; This function calls:
  5165 ;;		_USBConfigureEndpoint
  5166 ;; This function is called by:
  5167 ;;		_CDCInitEP
  5168 ;; This function uses a non-reentrant model
  5169 ;;
  5170                           
  5171                           	psect	text24
  5172   0022E2                     __ptext24:
  5173                           	callstack 0
  5174   0022E2                     _USBEnableEndpoint:
  5175                           	callstack 25
  5176                           
  5177                           ;incstack = 0
  5178                           ;USBEnableEndpoint@ep stored from wreg
  5179   0022E2  6E49               	movwf	USBEnableEndpoint@ep^0,c
  5180   0022E4                     
  5181                           ;usb_device.c: 882: void USBEnableEndpoint(uint8_t ep, uint8_t options);usb_device.c: 88
      +                          3: {;usb_device.c: 884:     unsigned char* p;;usb_device.c: 888:     if(options & 0x04)
  5182   0022E4  A446               	btfss	USBEnableEndpoint@options^0,2,c
  5183   0022E6  EF77  F011         	goto	u1711
  5184   0022EA  EF79  F011         	goto	u1710
  5185   0022EE                     u1711:
  5186   0022EE  EF7E  F011         	goto	l3209
  5187   0022F2                     u1710:
  5188   0022F2                     
  5189                           ;usb_device.c: 889:     {;usb_device.c: 890:         USBConfigureEndpoint(ep, 0);
  5190   0022F2  0E00               	movlw	0
  5191   0022F4  6E3C               	movwf	USBConfigureEndpoint@direction^0,c
  5192   0022F6  5049               	movf	USBEnableEndpoint@ep^0,w,c
  5193   0022F8  ECFC  F00E         	call	_USBConfigureEndpoint
  5194   0022FC                     l3209:
  5195                           
  5196                           ;usb_device.c: 892:     if(options & 0x02)
  5197   0022FC  A246               	btfss	USBEnableEndpoint@options^0,1,c
  5198   0022FE  EF83  F011         	goto	u1721
  5199   002302  EF85  F011         	goto	u1720
  5200   002306                     u1721:
  5201   002306  EF8A  F011         	goto	l3213
  5202   00230A                     u1720:
  5203   00230A                     
  5204                           ;usb_device.c: 893:     {;usb_device.c: 894:         USBConfigureEndpoint(ep, 1);
  5205   00230A  0E01               	movlw	1
  5206   00230C  6E3C               	movwf	USBConfigureEndpoint@direction^0,c
  5207   00230E  5049               	movf	USBEnableEndpoint@ep^0,w,c
  5208   002310  ECFC  F00E         	call	_USBConfigureEndpoint
  5209   002314                     l3213:
  5210                           
  5211                           ;usb_device.c: 903:         p = (unsigned char*)(&UEP0+ep);
  5212   002314  0E53               	movlw	83
  5213   002316  2449               	addwf	USBEnableEndpoint@ep^0,w,c
  5214   002318  6E47               	movwf	USBEnableEndpoint@p^0,c
  5215   00231A  6A48               	clrf	(USBEnableEndpoint@p+1)^0,c
  5216   00231C  0E0F               	movlw	15
  5217   00231E  2248               	addwfc	(USBEnableEndpoint@p+1)^0,f,c
  5218   002320                     
  5219                           ;usb_device.c: 905:     *p = options;
  5220   002320  C047  FFD9         	movff	USBEnableEndpoint@p,fsr2l
  5221   002324  C048  FFDA         	movff	USBEnableEndpoint@p+1,fsr2h
  5222   002328  C046  FFDF         	movff	USBEnableEndpoint@options,indf2
  5223   00232C  0012               	return		;funcret
  5224   00232E                     __end_of_USBEnableEndpoint:
  5225                           	callstack 0
  5226                           
  5227 ;; *************** function _USBConfigureEndpoint *****************
  5228 ;; Defined at:
  5229 ;;		line 1547 in file "usb_device.c"
  5230 ;; Parameters:    Size  Location     Type
  5231 ;;  EPNum           1    wreg     unsigned char 
  5232 ;;  direction       1    0[COMRAM] unsigned char 
  5233 ;; Auto vars:     Size  Location     Type
  5234 ;;  EPNum           1    7[COMRAM] unsigned char 
  5235 ;;  handle          2    8[COMRAM] PTR volatile struct __BD
  5236 ;;		 -> BDT(48), 
  5237 ;; Return value:  Size  Location     Type
  5238 ;;                  1    wreg      void 
  5239 ;; Registers used:
  5240 ;;		wreg, fsr2l, fsr2h, status,2, status,0, prodl, prodh
  5241 ;; Tracked objects:
  5242 ;;		On entry : 0/0
  5243 ;;		On exit  : 0/0
  5244 ;;		Unchanged: 0/0
  5245 ;; Data sizes:     COMRAM   BANK0   BANK1   BANK2
  5246 ;;      Params:         1       0       0       0
  5247 ;;      Locals:         3       0       0       0
  5248 ;;      Temps:          6       0       0       0
  5249 ;;      Totals:        10       0       0       0
  5250 ;;Total ram usage:       10 bytes
  5251 ;; Hardware stack levels used: 1
  5252 ;; Hardware stack levels required when called: 1
  5253 ;; This function calls:
  5254 ;;		Nothing
  5255 ;; This function is called by:
  5256 ;;		_USBEnableEndpoint
  5257 ;; This function uses a non-reentrant model
  5258 ;;
  5259                           
  5260                           	psect	text25
  5261   001DF8                     __ptext25:
  5262                           	callstack 0
  5263   001DF8                     _USBConfigureEndpoint:
  5264                           	callstack 25
  5265                           
  5266                           ;incstack = 0
  5267                           ;USBConfigureEndpoint@EPNum stored from wreg
  5268   001DF8  6E43               	movwf	USBConfigureEndpoint@EPNum^0,c
  5269   001DFA                     
  5270                           ;usb_device.c: 1547: static void USBConfigureEndpoint(uint8_t EPNum, uint8_t direction);
      +                          usb_device.c: 1548: {;usb_device.c: 1549:     volatile BDT_ENTRY* handle;;usb_device.c: 
      +                          1553:     handle = (volatile BDT_ENTRY*)&BDT[0];
  5271   001DFA  0E00               	movlw	0
  5272   001DFC  6E44               	movwf	USBConfigureEndpoint@handle^0,c
  5273   001DFE  0E02               	movlw	2
  5274   001E00  6E45               	movwf	(USBConfigureEndpoint@handle+1)^0,c
  5275   001E02                     
  5276                           ;usb_device.c: 1554:     handle += (4*EPNum+2*direction+0u);
  5277   001E02  503C               	movf	USBConfigureEndpoint@direction^0,w,c
  5278   001E04  6E3D               	movwf	??_USBConfigureEndpoint^0,c
  5279   001E06  6A3E               	clrf	(??_USBConfigureEndpoint+1)^0,c
  5280   001E08  90D8               	bcf	status,0,c
  5281   001E0A  363D               	rlcf	??_USBConfigureEndpoint^0,f,c
  5282   001E0C  363E               	rlcf	(??_USBConfigureEndpoint+1)^0,f,c
  5283   001E0E  5043               	movf	USBConfigureEndpoint@EPNum^0,w,c
  5284   001E10  6E3F               	movwf	(??_USBConfigureEndpoint+2)^0,c
  5285   001E12  6A40               	clrf	(??_USBConfigureEndpoint+3)^0,c
  5286   001E14  90D8               	bcf	status,0,c
  5287   001E16  363F               	rlcf	(??_USBConfigureEndpoint+2)^0,f,c
  5288   001E18  3640               	rlcf	(??_USBConfigureEndpoint+3)^0,f,c
  5289   001E1A  90D8               	bcf	status,0,c
  5290   001E1C  363F               	rlcf	(??_USBConfigureEndpoint+2)^0,f,c
  5291   001E1E  3640               	rlcf	(??_USBConfigureEndpoint+3)^0,f,c
  5292   001E20  503D               	movf	??_USBConfigureEndpoint^0,w,c
  5293   001E22  243F               	addwf	(??_USBConfigureEndpoint+2)^0,w,c
  5294   001E24  6E41               	movwf	(??_USBConfigureEndpoint+4)^0,c
  5295   001E26  503E               	movf	(??_USBConfigureEndpoint+1)^0,w,c
  5296   001E28  2040               	addwfc	(??_USBConfigureEndpoint+3)^0,w,c
  5297   001E2A  6E42               	movwf	(??_USBConfigureEndpoint+5)^0,c
  5298   001E2C  90D8               	bcf	status,0,c
  5299   001E2E  3641               	rlcf	(??_USBConfigureEndpoint+4)^0,f,c
  5300   001E30  3642               	rlcf	(??_USBConfigureEndpoint+5)^0,f,c
  5301   001E32  90D8               	bcf	status,0,c
  5302   001E34  3641               	rlcf	(??_USBConfigureEndpoint+4)^0,f,c
  5303   001E36  3642               	rlcf	(??_USBConfigureEndpoint+5)^0,f,c
  5304   001E38  5041               	movf	(??_USBConfigureEndpoint+4)^0,w,c
  5305   001E3A  2644               	addwf	USBConfigureEndpoint@handle^0,f,c
  5306   001E3C  5042               	movf	(??_USBConfigureEndpoint+5)^0,w,c
  5307   001E3E  2245               	addwfc	(USBConfigureEndpoint@handle+1)^0,f,c
  5308   001E40                     
  5309                           ;usb_device.c: 1556:     handle->STAT.UOWN = 0;
  5310   001E40  C044  FFD9         	movff	USBConfigureEndpoint@handle,fsr2l
  5311   001E44  C045  FFDA         	movff	USBConfigureEndpoint@handle+1,fsr2h
  5312   001E48  9EDF               	bcf	indf2,7,c
  5313   001E4A                     
  5314                           ;usb_device.c: 1561:     if(direction == 0)
  5315   001E4A  503C               	movf	USBConfigureEndpoint@direction^0,w,c
  5316   001E4C  A4D8               	btfss	status,2,c
  5317   001E4E  EF2B  F00F         	goto	u1701
  5318   001E52  EF2D  F00F         	goto	u1700
  5319   001E56                     u1701:
  5320   001E56  EF3B  F00F         	goto	l3159
  5321   001E5A                     u1700:
  5322   001E5A                     
  5323                           ;usb_device.c: 1562:     {;usb_device.c: 1563:         pBDTEntryOut[EPNum] = handle;
  5324   001E5A  5043               	movf	USBConfigureEndpoint@EPNum^0,w,c
  5325   001E5C  0D02               	mullw	2
  5326   001E5E  0E6A               	movlw	low _pBDTEntryOut
  5327   001E60  24F3               	addwf	243,w,c
  5328   001E62  6ED9               	movwf	fsr2l,c
  5329   001E64  0E00               	movlw	high _pBDTEntryOut
  5330   001E66  20F4               	addwfc	prodh,w,c
  5331   001E68  6EDA               	movwf	fsr2h,c
  5332   001E6A  C044  FFDE         	movff	USBConfigureEndpoint@handle,postinc2
  5333   001E6E  C045  FFDD         	movff	USBConfigureEndpoint@handle+1,postdec2
  5334                           
  5335                           ;usb_device.c: 1564:     }
  5336   001E72  EF47  F00F         	goto	l3161
  5337   001E76                     l3159:
  5338                           
  5339                           ;usb_device.c: 1566:     {;usb_device.c: 1567:         pBDTEntryIn[EPNum] = handle;
  5340   001E76  5043               	movf	USBConfigureEndpoint@EPNum^0,w,c
  5341   001E78  0D02               	mullw	2
  5342   001E7A  0E0F               	movlw	low _pBDTEntryIn
  5343   001E7C  24F3               	addwf	243,w,c
  5344   001E7E  6ED9               	movwf	fsr2l,c
  5345   001E80  0E00               	movlw	high _pBDTEntryIn
  5346   001E82  20F4               	addwfc	prodh,w,c
  5347   001E84  6EDA               	movwf	fsr2h,c
  5348   001E86  C044  FFDE         	movff	USBConfigureEndpoint@handle,postinc2
  5349   001E8A  C045  FFDD         	movff	USBConfigureEndpoint@handle+1,postdec2
  5350   001E8E                     l3161:
  5351                           
  5352                           ;usb_device.c: 1571:         handle->STAT.DTS = 0;
  5353   001E8E  C044  FFD9         	movff	USBConfigureEndpoint@handle,fsr2l
  5354   001E92  C045  FFDA         	movff	USBConfigureEndpoint@handle+1,fsr2h
  5355   001E96  9CDF               	bcf	indf2,6,c
  5356   001E98                     
  5357                           ;usb_device.c: 1572:         (handle+1)->STAT.DTS = 1;
  5358   001E98  EE20 F004          	lfsr	2,4
  5359   001E9C  5044               	movf	USBConfigureEndpoint@handle^0,w,c
  5360   001E9E  26D9               	addwf	fsr2l,f,c
  5361   001EA0  5045               	movf	(USBConfigureEndpoint@handle+1)^0,w,c
  5362   001EA2  22DA               	addwfc	fsr2h,f,c
  5363   001EA4  8CDF               	bsf	indf2,6,c
  5364   001EA6  0012               	return		;funcret
  5365   001EA8                     __end_of_USBConfigureEndpoint:
  5366                           	callstack 0
  5367                           
  5368 ;; *************** function _APP_LEDUpdateUSBStatus *****************
  5369 ;; Defined at:
  5370 ;;		line 50 in file "app_led_usb_status.c"
  5371 ;; Parameters:    Size  Location     Type
  5372 ;;		None
  5373 ;; Auto vars:     Size  Location     Type
  5374 ;;		None
  5375 ;; Return value:  Size  Location     Type
  5376 ;;                  1    wreg      void 
  5377 ;; Registers used:
  5378 ;;		wreg, status,2, status,0, cstack
  5379 ;; Tracked objects:
  5380 ;;		On entry : 0/0
  5381 ;;		On exit  : 0/0
  5382 ;;		Unchanged: 0/0
  5383 ;; Data sizes:     COMRAM   BANK0   BANK1   BANK2
  5384 ;;      Params:         0       0       0       0
  5385 ;;      Locals:         0       0       0       0
  5386 ;;      Temps:          2       0       0       0
  5387 ;;      Totals:         2       0       0       0
  5388 ;;Total ram usage:        2 bytes
  5389 ;; Hardware stack levels used: 1
  5390 ;; Hardware stack levels required when called: 2
  5391 ;; This function calls:
  5392 ;;		_LED_Off
  5393 ;;		_LED_On
  5394 ;; This function is called by:
  5395 ;;		_USER_USB_CALLBACK_EVENT_HANDLER
  5396 ;; This function uses a non-reentrant model
  5397 ;;
  5398                           
  5399                           	psect	text26
  5400   001918                     __ptext26:
  5401                           	callstack 0
  5402   001918                     _APP_LEDUpdateUSBStatus:
  5403                           	callstack 26
  5404   001918                     
  5405                           ;app_led_usb_status.c: 52:     static uint16_t ledCount = 0;;app_led_usb_status.c: 54:  
      +                             if(UCONbits.SUSPND == 1)
  5406   001918  A264               	btfss	100,1,c	;volatile
  5407   00191A  EF91  F00C         	goto	u1761
  5408   00191E  EF93  F00C         	goto	u1760
  5409   001922                     u1761:
  5410   001922  EFF2  F00C         	goto	l3281
  5411   001926                     u1760:
  5412   001926                     
  5413                           ;app_led_usb_status.c: 55:     {;app_led_usb_status.c: 56:         LED_Off(LED_D1);
  5414   001926  0E01               	movlw	1
  5415   001928  ECEF  F010         	call	_LED_Off
  5416   00192C  EF05  F00D         	goto	l62
  5417   001930                     l3255:
  5418                           
  5419                           ;app_led_usb_status.c: 65:             if(ledCount == 1)
  5420   001930  0422               	decf	APP_LEDUpdateUSBStatus@ledCount^0,w,c
  5421   001932  1023               	iorwf	(APP_LEDUpdateUSBStatus@ledCount+1)^0,w,c
  5422   001934  A4D8               	btfss	status,2,c
  5423   001936  EF9F  F00C         	goto	u1771
  5424   00193A  EFA1  F00C         	goto	u1770
  5425   00193E                     u1771:
  5426   00193E  EFA6  F00C         	goto	l3259
  5427   001942                     u1770:
  5428   001942                     
  5429                           ;app_led_usb_status.c: 66:             {;app_led_usb_status.c: 67:                 LED_O
      +                          n(LED_D1);
  5430   001942  0E01               	movlw	1
  5431   001944  ECBE  F010         	call	_LED_On
  5432                           
  5433                           ;app_led_usb_status.c: 68:             }
  5434   001948  EF03  F00D         	goto	l3283
  5435   00194C                     l3259:
  5436   00194C  0E4B               	movlw	75
  5437   00194E  1822               	xorwf	APP_LEDUpdateUSBStatus@ledCount^0,w,c
  5438   001950  1023               	iorwf	(APP_LEDUpdateUSBStatus@ledCount+1)^0,w,c
  5439   001952  A4D8               	btfss	status,2,c
  5440   001954  EFAE  F00C         	goto	u1781
  5441   001958  EFB0  F00C         	goto	u1780
  5442   00195C                     u1781:
  5443   00195C  EFB5  F00C         	goto	l3263
  5444   001960                     u1780:
  5445   001960                     
  5446                           ;app_led_usb_status.c: 70:             {;app_led_usb_status.c: 71:                 LED_O
      +                          ff(LED_D1);
  5447   001960  0E01               	movlw	1
  5448   001962  ECEF  F010         	call	_LED_Off
  5449                           
  5450                           ;app_led_usb_status.c: 72:             }
  5451   001966  EF03  F00D         	goto	l3283
  5452   00196A                     l3263:
  5453   00196A  5023               	movf	(APP_LEDUpdateUSBStatus@ledCount+1)^0,w,c
  5454   00196C  E109               	bnz	u1790
  5455   00196E  0E97               	movlw	151
  5456   001970  5C22               	subwf	APP_LEDUpdateUSBStatus@ledCount^0,w,c
  5457   001972  A0D8               	btfss	status,0,c
  5458   001974  EFBE  F00C         	goto	u1791
  5459   001978  EFC0  F00C         	goto	u1790
  5460   00197C                     u1791:
  5461   00197C  EFC6  F00C         	goto	l66
  5462   001980                     u1790:
  5463   001980                     l3265:
  5464                           
  5465                           ;app_led_usb_status.c: 74:             {;app_led_usb_status.c: 75:                 ledCo
      +                          unt = 0;
  5466   001980  0E00               	movlw	0
  5467   001982  6E23               	movwf	(APP_LEDUpdateUSBStatus@ledCount+1)^0,c
  5468   001984  0E00               	movlw	0
  5469   001986  6E22               	movwf	APP_LEDUpdateUSBStatus@ledCount^0,c
  5470   001988  EF03  F00D         	goto	l3283
  5471   00198C                     l66:
  5472                           
  5473                           ;app_led_usb_status.c: 77:             break;
  5474   00198C  EF03  F00D         	goto	l3283
  5475   001990                     l3267:
  5476                           
  5477                           ;app_led_usb_status.c: 82:             if(ledCount == 1)
  5478   001990  0422               	decf	APP_LEDUpdateUSBStatus@ledCount^0,w,c
  5479   001992  1023               	iorwf	(APP_LEDUpdateUSBStatus@ledCount+1)^0,w,c
  5480   001994  A4D8               	btfss	status,2,c
  5481   001996  EFCF  F00C         	goto	u1801
  5482   00199A  EFD1  F00C         	goto	u1800
  5483   00199E                     u1801:
  5484   00199E  EFD6  F00C         	goto	l3271
  5485   0019A2                     u1800:
  5486   0019A2                     
  5487                           ;app_led_usb_status.c: 83:             {;app_led_usb_status.c: 84:                 LED_O
      +                          n(LED_D1);
  5488   0019A2  0E01               	movlw	1
  5489   0019A4  ECBE  F010         	call	_LED_On
  5490                           
  5491                           ;app_led_usb_status.c: 85:             }
  5492   0019A8  EF03  F00D         	goto	l3283
  5493   0019AC                     l3271:
  5494   0019AC  0E32               	movlw	50
  5495   0019AE  1822               	xorwf	APP_LEDUpdateUSBStatus@ledCount^0,w,c
  5496   0019B0  1023               	iorwf	(APP_LEDUpdateUSBStatus@ledCount+1)^0,w,c
  5497   0019B2  A4D8               	btfss	status,2,c
  5498   0019B4  EFDE  F00C         	goto	u1811
  5499   0019B8  EFE0  F00C         	goto	u1810
  5500   0019BC                     u1811:
  5501   0019BC  EFE5  F00C         	goto	l3275
  5502   0019C0                     u1810:
  5503   0019C0                     
  5504                           ;app_led_usb_status.c: 87:             {;app_led_usb_status.c: 88:                 LED_O
      +                          ff(LED_D1);
  5505   0019C0  0E01               	movlw	1
  5506   0019C2  ECEF  F010         	call	_LED_Off
  5507                           
  5508                           ;app_led_usb_status.c: 89:             }
  5509   0019C6  EF03  F00D         	goto	l3283
  5510   0019CA                     l3275:
  5511   0019CA  0EB7               	movlw	183
  5512   0019CC  5C22               	subwf	APP_LEDUpdateUSBStatus@ledCount^0,w,c
  5513   0019CE  0E03               	movlw	3
  5514   0019D0  5823               	subwfb	(APP_LEDUpdateUSBStatus@ledCount+1)^0,w,c
  5515   0019D2  A0D8               	btfss	status,0,c
  5516   0019D4  EFEE  F00C         	goto	u1821
  5517   0019D8  EFF0  F00C         	goto	u1820
  5518   0019DC                     u1821:
  5519   0019DC  EF03  F00D         	goto	l3283
  5520   0019E0                     u1820:
  5521   0019E0  EFC0  F00C         	goto	l3265
  5522   0019E4                     l3281:
  5523   0019E4  5037               	movf	_USBDeviceState^0,w,c
  5524   0019E6  6E3F               	movwf	??_APP_LEDUpdateUSBStatus^0,c
  5525   0019E8  6A40               	clrf	(??_APP_LEDUpdateUSBStatus+1)^0,c
  5526                           
  5527                           ; Switch on 2 bytes has been partitioned into a top level switch of size 1, and 1 sub-sw
      +                          itches
  5528                           ; Switch size 1, requested type "simple"
  5529                           ; Number of cases is 1, Range of values is 0 to 0
  5530                           ; switch strategies available:
  5531                           ; Name         Instructions Cycles
  5532                           ; simple_byte            4     3 (average)
  5533                           ;	Chosen strategy is simple_byte
  5534   0019EA  5040               	movf	(??_APP_LEDUpdateUSBStatus+1)^0,w,c
  5535   0019EC  0A00               	xorlw	0	; case 0
  5536   0019EE  B4D8               	btfsc	status,2,c
  5537   0019F0  EFFC  F00C         	goto	l4799
  5538   0019F4  EFC8  F00C         	goto	l3267
  5539   0019F8                     l4799:
  5540                           
  5541                           ; Switch size 1, requested type "simple"
  5542                           ; Number of cases is 1, Range of values is 32 to 32
  5543                           ; switch strategies available:
  5544                           ; Name         Instructions Cycles
  5545                           ; simple_byte            4     3 (average)
  5546                           ;	Chosen strategy is simple_byte
  5547   0019F8  503F               	movf	??_APP_LEDUpdateUSBStatus^0,w,c
  5548   0019FA  0A20               	xorlw	32	; case 32
  5549   0019FC  B4D8               	btfsc	status,2,c
  5550   0019FE  EF98  F00C         	goto	l3255
  5551   001A02  EFC8  F00C         	goto	l3267
  5552   001A06                     l3283:
  5553                           
  5554                           ;app_led_usb_status.c: 98:     ledCount++;
  5555   001A06  4A22               	infsnz	APP_LEDUpdateUSBStatus@ledCount^0,f,c
  5556   001A08  2A23               	incf	(APP_LEDUpdateUSBStatus@ledCount+1)^0,f,c
  5557   001A0A                     l62:
  5558   001A0A  0012               	return		;funcret
  5559   001A0C                     __end_of_APP_LEDUpdateUSBStatus:
  5560                           	callstack 0
  5561                           
  5562 ;; *************** function _LED_On *****************
  5563 ;; Defined at:
  5564 ;;		line 59 in file "leds.c"
  5565 ;; Parameters:    Size  Location     Type
  5566 ;;  led             1    wreg     enum E2
  5567 ;; Auto vars:     Size  Location     Type
  5568 ;;  led             1    2[COMRAM] enum E2
  5569 ;; Return value:  Size  Location     Type
  5570 ;;                  1    wreg      void 
  5571 ;; Registers used:
  5572 ;;		wreg, status,2, status,0
  5573 ;; Tracked objects:
  5574 ;;		On entry : 0/0
  5575 ;;		On exit  : 0/0
  5576 ;;		Unchanged: 0/0
  5577 ;; Data sizes:     COMRAM   BANK0   BANK1   BANK2
  5578 ;;      Params:         0       0       0       0
  5579 ;;      Locals:         1       0       0       0
  5580 ;;      Temps:          2       0       0       0
  5581 ;;      Totals:         3       0       0       0
  5582 ;;Total ram usage:        3 bytes
  5583 ;; Hardware stack levels used: 1
  5584 ;; Hardware stack levels required when called: 1
  5585 ;; This function calls:
  5586 ;;		Nothing
  5587 ;; This function is called by:
  5588 ;;		_APP_LEDUpdateUSBStatus
  5589 ;; This function uses a non-reentrant model
  5590 ;;
  5591                           
  5592                           	psect	text27
  5593   00217C                     __ptext27:
  5594                           	callstack 0
  5595   00217C                     _LED_On:
  5596                           	callstack 26
  5597                           
  5598                           ;incstack = 0
  5599                           ;LED_On@led stored from wreg
  5600   00217C  6E3E               	movwf	LED_On@led^0,c
  5601   00217E                     
  5602                           ;leds.c: 59: void LED_On(LED led);leds.c: 60: {;leds.c: 61:     switch(led)
  5603   00217E  EFCD  F010         	goto	l3179
  5604   002182                     l100:
  5605                           
  5606                           ;leds.c: 64:             LATCbits.LATC0 = 1;
  5607   002182  808B               	bsf	139,0,c	;volatile
  5608                           
  5609                           ;leds.c: 65:             break;
  5610   002184  EFEE  F010         	goto	l106
  5611   002188                     l102:
  5612                           
  5613                           ;leds.c: 68:             LATCbits.LATC1 = 1;
  5614   002188  828B               	bsf	139,1,c	;volatile
  5615                           
  5616                           ;leds.c: 69:             break;
  5617   00218A  EFEE  F010         	goto	l106
  5618   00218E                     l103:
  5619                           
  5620                           ;leds.c: 72:             LATCbits.LATC2 = 1;
  5621   00218E  848B               	bsf	139,2,c	;volatile
  5622                           
  5623                           ;leds.c: 73:             break;
  5624   002190  EFEE  F010         	goto	l106
  5625   002194                     l104:
  5626                           
  5627                           ;leds.c: 76:             LATCbits.LATC3 = 1;
  5628   002194  868B               	bsf	139,3,c	;volatile
  5629                           
  5630                           ;leds.c: 77:             break;
  5631   002196  EFEE  F010         	goto	l106
  5632   00219A                     l3179:
  5633   00219A  503E               	movf	LED_On@led^0,w,c
  5634   00219C  6E3C               	movwf	??_LED_On^0,c
  5635   00219E  6A3D               	clrf	(??_LED_On+1)^0,c
  5636                           
  5637                           ; Switch on 2 bytes has been partitioned into a top level switch of size 1, and 1 sub-sw
      +                          itches
  5638                           ; Switch size 1, requested type "simple"
  5639                           ; Number of cases is 1, Range of values is 0 to 0
  5640                           ; switch strategies available:
  5641                           ; Name         Instructions Cycles
  5642                           ; simple_byte            4     3 (average)
  5643                           ;	Chosen strategy is simple_byte
  5644   0021A0  503D               	movf	(??_LED_On+1)^0,w,c
  5645   0021A2  0A00               	xorlw	0	; case 0
  5646   0021A4  B4D8               	btfsc	status,2,c
  5647   0021A6  EFD7  F010         	goto	l4801
  5648   0021AA  EFEE  F010         	goto	l106
  5649   0021AE                     l4801:
  5650                           
  5651                           ; Switch size 1, requested type "simple"
  5652                           ; Number of cases is 5, Range of values is 0 to 4
  5653                           ; switch strategies available:
  5654                           ; Name         Instructions Cycles
  5655                           ; simple_byte           16     9 (average)
  5656                           ;	Chosen strategy is simple_byte
  5657   0021AE  503C               	movf	??_LED_On^0,w,c
  5658   0021B0  0A00               	xorlw	0	; case 0
  5659   0021B2  B4D8               	btfsc	status,2,c
  5660   0021B4  EFEE  F010         	goto	l106
  5661   0021B8  0A01               	xorlw	1	; case 1
  5662   0021BA  B4D8               	btfsc	status,2,c
  5663   0021BC  EFC1  F010         	goto	l100
  5664   0021C0  0A03               	xorlw	3	; case 2
  5665   0021C2  B4D8               	btfsc	status,2,c
  5666   0021C4  EFC4  F010         	goto	l102
  5667   0021C8  0A01               	xorlw	1	; case 3
  5668   0021CA  B4D8               	btfsc	status,2,c
  5669   0021CC  EFC7  F010         	goto	l103
  5670   0021D0  0A07               	xorlw	7	; case 4
  5671   0021D2  B4D8               	btfsc	status,2,c
  5672   0021D4  EFCA  F010         	goto	l104
  5673   0021D8  EFEE  F010         	goto	l106
  5674   0021DC                     l106:
  5675   0021DC  0012               	return		;funcret
  5676   0021DE                     __end_of_LED_On:
  5677                           	callstack 0
  5678                           
  5679 ;; *************** function _LED_Off *****************
  5680 ;; Defined at:
  5681 ;;		line 100 in file "leds.c"
  5682 ;; Parameters:    Size  Location     Type
  5683 ;;  led             1    wreg     enum E2
  5684 ;; Auto vars:     Size  Location     Type
  5685 ;;  led             1    2[COMRAM] enum E2
  5686 ;; Return value:  Size  Location     Type
  5687 ;;                  1    wreg      void 
  5688 ;; Registers used:
  5689 ;;		wreg, status,2, status,0
  5690 ;; Tracked objects:
  5691 ;;		On entry : 0/0
  5692 ;;		On exit  : 0/0
  5693 ;;		Unchanged: 0/0
  5694 ;; Data sizes:     COMRAM   BANK0   BANK1   BANK2
  5695 ;;      Params:         0       0       0       0
  5696 ;;      Locals:         1       0       0       0
  5697 ;;      Temps:          2       0       0       0
  5698 ;;      Totals:         3       0       0       0
  5699 ;;Total ram usage:        3 bytes
  5700 ;; Hardware stack levels used: 1
  5701 ;; Hardware stack levels required when called: 1
  5702 ;; This function calls:
  5703 ;;		Nothing
  5704 ;; This function is called by:
  5705 ;;		_APP_LEDUpdateUSBStatus
  5706 ;; This function uses a non-reentrant model
  5707 ;;
  5708                           
  5709                           	psect	text28
  5710   0021DE                     __ptext28:
  5711                           	callstack 0
  5712   0021DE                     _LED_Off:
  5713                           	callstack 26
  5714                           
  5715                           ;incstack = 0
  5716                           ;LED_Off@led stored from wreg
  5717   0021DE  6E3E               	movwf	LED_Off@led^0,c
  5718   0021E0                     
  5719                           ;leds.c: 100: void LED_Off(LED led);leds.c: 101: {;leds.c: 102:     switch(led)
  5720   0021E0  EFFE  F010         	goto	l3169
  5721   0021E4                     l110:
  5722                           
  5723                           ;leds.c: 105:             LATCbits.LATC0 = 0;
  5724   0021E4  908B               	bcf	139,0,c	;volatile
  5725                           
  5726                           ;leds.c: 106:             break;
  5727   0021E6  EF1F  F011         	goto	l116
  5728   0021EA                     l112:
  5729                           
  5730                           ;leds.c: 109:             LATCbits.LATC1 = 0;
  5731   0021EA  928B               	bcf	139,1,c	;volatile
  5732                           
  5733                           ;leds.c: 110:             break;
  5734   0021EC  EF1F  F011         	goto	l116
  5735   0021F0                     l113:
  5736                           
  5737                           ;leds.c: 113:             LATCbits.LATC2 = 0;
  5738   0021F0  948B               	bcf	139,2,c	;volatile
  5739                           
  5740                           ;leds.c: 114:             break;
  5741   0021F2  EF1F  F011         	goto	l116
  5742   0021F6                     l114:
  5743                           
  5744                           ;leds.c: 117:             LATCbits.LATC3 = 0;
  5745   0021F6  968B               	bcf	139,3,c	;volatile
  5746                           
  5747                           ;leds.c: 118:             break;
  5748   0021F8  EF1F  F011         	goto	l116
  5749   0021FC                     l3169:
  5750   0021FC  503E               	movf	LED_Off@led^0,w,c
  5751   0021FE  6E3C               	movwf	??_LED_Off^0,c
  5752   002200  6A3D               	clrf	(??_LED_Off+1)^0,c
  5753                           
  5754                           ; Switch on 2 bytes has been partitioned into a top level switch of size 1, and 1 sub-sw
      +                          itches
  5755                           ; Switch size 1, requested type "simple"
  5756                           ; Number of cases is 1, Range of values is 0 to 0
  5757                           ; switch strategies available:
  5758                           ; Name         Instructions Cycles
  5759                           ; simple_byte            4     3 (average)
  5760                           ;	Chosen strategy is simple_byte
  5761   002202  503D               	movf	(??_LED_Off+1)^0,w,c
  5762   002204  0A00               	xorlw	0	; case 0
  5763   002206  B4D8               	btfsc	status,2,c
  5764   002208  EF08  F011         	goto	l4803
  5765   00220C  EF1F  F011         	goto	l116
  5766   002210                     l4803:
  5767                           
  5768                           ; Switch size 1, requested type "simple"
  5769                           ; Number of cases is 5, Range of values is 0 to 4
  5770                           ; switch strategies available:
  5771                           ; Name         Instructions Cycles
  5772                           ; simple_byte           16     9 (average)
  5773                           ;	Chosen strategy is simple_byte
  5774   002210  503C               	movf	??_LED_Off^0,w,c
  5775   002212  0A00               	xorlw	0	; case 0
  5776   002214  B4D8               	btfsc	status,2,c
  5777   002216  EF1F  F011         	goto	l116
  5778   00221A  0A01               	xorlw	1	; case 1
  5779   00221C  B4D8               	btfsc	status,2,c
  5780   00221E  EFF2  F010         	goto	l110
  5781   002222  0A03               	xorlw	3	; case 2
  5782   002224  B4D8               	btfsc	status,2,c
  5783   002226  EFF5  F010         	goto	l112
  5784   00222A  0A01               	xorlw	1	; case 3
  5785   00222C  B4D8               	btfsc	status,2,c
  5786   00222E  EFF8  F010         	goto	l113
  5787   002232  0A07               	xorlw	7	; case 4
  5788   002234  B4D8               	btfsc	status,2,c
  5789   002236  EFFB  F010         	goto	l114
  5790   00223A  EF1F  F011         	goto	l116
  5791   00223E                     l116:
  5792   00223E  0012               	return		;funcret
  5793   002240                     __end_of_LED_Off:
  5794                           	callstack 0
  5795                           
  5796 ;; *************** function _APP_DeviceCDCBasicDemoInitialize *****************
  5797 ;; Defined at:
  5798 ;;		line 52 in file "app_device_cdc_basic.c"
  5799 ;; Parameters:    Size  Location     Type
  5800 ;;		None
  5801 ;; Auto vars:     Size  Location     Type
  5802 ;;		None
  5803 ;; Return value:  Size  Location     Type
  5804 ;;                  1    wreg      void 
  5805 ;; Registers used:
  5806 ;;		wreg, status,2
  5807 ;; Tracked objects:
  5808 ;;		On entry : 0/0
  5809 ;;		On exit  : 0/0
  5810 ;;		Unchanged: 0/0
  5811 ;; Data sizes:     COMRAM   BANK0   BANK1   BANK2
  5812 ;;      Params:         0       0       0       0
  5813 ;;      Locals:         0       0       0       0
  5814 ;;      Temps:          0       0       0       0
  5815 ;;      Totals:         0       0       0       0
  5816 ;;Total ram usage:        0 bytes
  5817 ;; Hardware stack levels used: 1
  5818 ;; Hardware stack levels required when called: 1
  5819 ;; This function calls:
  5820 ;;		Nothing
  5821 ;; This function is called by:
  5822 ;;		_USER_USB_CALLBACK_EVENT_HANDLER
  5823 ;; This function uses a non-reentrant model
  5824 ;;
  5825                           
  5826                           	psect	text29
  5827   0024A2                     __ptext29:
  5828                           	callstack 0
  5829   0024A2                     _APP_DeviceCDCBasicDemoInitialize:
  5830                           	callstack 27
  5831   0024A2                     
  5832                           ;app_device_cdc_basic.c: 54:     line_coding.bCharFormat = 0;
  5833   0024A2  0E00               	movlw	0
  5834   0024A4  0100               	movlb	0	; () banked
  5835   0024A6  6FCD               	movwf	(_line_coding+4)& (0+255),b
  5836                           
  5837                           ;app_device_cdc_basic.c: 55:     line_coding.bDataBits = 8;
  5838   0024A8  0E08               	movlw	8
  5839   0024AA  6FCF               	movwf	(_line_coding+6)& (0+255),b
  5840                           
  5841                           ;app_device_cdc_basic.c: 56:     line_coding.bParityType = 0;
  5842   0024AC  0E00               	movlw	0
  5843   0024AE  6FCE               	movwf	(_line_coding+5)& (0+255),b
  5844                           
  5845                           ;app_device_cdc_basic.c: 57:     line_coding.dwDTERate = 9600;
  5846   0024B0  0E80               	movlw	128
  5847   0024B2  6FC9               	movwf	_line_coding& (0+255),b
  5848   0024B4  0E25               	movlw	37
  5849   0024B6  6FCA               	movwf	(_line_coding+1)& (0+255),b
  5850   0024B8  0E00               	movlw	0
  5851   0024BA  6FCB               	movwf	(_line_coding+2)& (0+255),b
  5852   0024BC  0E00               	movlw	0
  5853   0024BE  6FCC               	movwf	(_line_coding+3)& (0+255),b
  5854                           
  5855                           ;app_device_cdc_basic.c: 59:     buttonPressed = 0;
  5856   0024C0  0E00               	movlw	0
  5857   0024C2  6E35               	movwf	_buttonPressed^0,c
  5858   0024C4                     
  5859                           ; BSR set to: 0
  5860   0024C4  0012               	return		;funcret
  5861   0024C6                     __end_of_APP_DeviceCDCBasicDemoInitialize:
  5862                           	callstack 0
  5863                           
  5864 ;; *************** function _USBCtrlTrfOutHandler *****************
  5865 ;; Defined at:
  5866 ;;		line 2545 in file "usb_device.c"
  5867 ;; Parameters:    Size  Location     Type
  5868 ;;		None
  5869 ;; Auto vars:     Size  Location     Type
  5870 ;;		None
  5871 ;; Return value:  Size  Location     Type
  5872 ;;                  1    wreg      void 
  5873 ;; Registers used:
  5874 ;;		wreg, fsr1l, fsr1h, fsr2l, fsr2h, status,2, status,0, cstack
  5875 ;; Tracked objects:
  5876 ;;		On entry : 0/0
  5877 ;;		On exit  : 0/0
  5878 ;;		Unchanged: 0/0
  5879 ;; Data sizes:     COMRAM   BANK0   BANK1   BANK2
  5880 ;;      Params:         0       0       0       0
  5881 ;;      Locals:         0       0       0       0
  5882 ;;      Temps:          0       0       0       0
  5883 ;;      Totals:         0       0       0       0
  5884 ;;Total ram usage:        0 bytes
  5885 ;; Hardware stack levels used: 1
  5886 ;; Hardware stack levels required when called: 3
  5887 ;; This function calls:
  5888 ;;		_USBCtrlTrfRxService
  5889 ;; This function is called by:
  5890 ;;		_USBCtrlEPService
  5891 ;; This function uses a non-reentrant model
  5892 ;;
  5893                           
  5894                           	psect	text30
  5895   001FE2                     __ptext30:
  5896                           	callstack 0
  5897   001FE2                     _USBCtrlTrfOutHandler:
  5898                           	callstack 25
  5899   001FE2                     
  5900                           ;usb_device.c: 2547:     if(controlTransferState == 2)
  5901   001FE2  0E02               	movlw	2
  5902   001FE4  1833               	xorwf	_controlTransferState^0,w,c
  5903   001FE6  A4D8               	btfss	status,2,c
  5904   001FE8  EFF8  F00F         	goto	u2521
  5905   001FEC  EFFA  F00F         	goto	u2520
  5906   001FF0                     u2521:
  5907   001FF0  EFFE  F00F         	goto	l3897
  5908   001FF4                     u2520:
  5909   001FF4                     
  5910                           ;usb_device.c: 2548:     {;usb_device.c: 2549:         USBCtrlTrfRxService();
  5911   001FF4  EC8F  F007         	call	_USBCtrlTrfRxService	;wreg free
  5912                           
  5913                           ;usb_device.c: 2550:     }
  5914   001FF8  EF2A  F010         	goto	l560
  5915   001FFC                     l3897:
  5916                           
  5917                           ;usb_device.c: 2552:     {;usb_device.c: 2555:         controlTransferState = 0;
  5918   001FFC  0E00               	movlw	0
  5919   001FFE  6E33               	movwf	_controlTransferState^0,c
  5920                           
  5921                           ;usb_device.c: 2562:         if(BothEP0OutUOWNsSet == 0)
  5922   002000  502F               	movf	_BothEP0OutUOWNsSet^0,w,c
  5923   002002  A4D8               	btfss	status,2,c
  5924   002004  EF06  F010         	goto	u2531
  5925   002008  EF08  F010         	goto	u2530
  5926   00200C                     u2531:
  5927   00200C  EF28  F010         	goto	l3905
  5928   002010                     u2530:
  5929   002010                     
  5930                           ;usb_device.c: 2563:         {;usb_device.c: 2564:             pBDTEntryEP0OutNext->CNT 
      +                          = 8;
  5931   002010  EE20 F001          	lfsr	2,1
  5932   002014  501E               	movf	_pBDTEntryEP0OutNext^0,w,c
  5933   002016  26D9               	addwf	fsr2l,f,c
  5934   002018  501F               	movf	(_pBDTEntryEP0OutNext+1)^0,w,c
  5935   00201A  22DA               	addwfc	fsr2h,f,c
  5936   00201C  0E08               	movlw	8
  5937   00201E  6EDF               	movwf	indf2,c
  5938                           
  5939                           ;usb_device.c: 2565:             pBDTEntryEP0OutNext->ADR = ((uint16_t)(&SetupPkt));
  5940   002020  EE20 F002          	lfsr	2,2
  5941   002024  501E               	movf	_pBDTEntryEP0OutNext^0,w,c
  5942   002026  26D9               	addwf	fsr2l,f,c
  5943   002028  501F               	movf	(_pBDTEntryEP0OutNext+1)^0,w,c
  5944   00202A  22DA               	addwfc	fsr2h,f,c
  5945   00202C  0E30               	movlw	48
  5946   00202E  6EDE               	movwf	postinc2,c
  5947   002030  0E02               	movlw	2
  5948   002032  6EDD               	movwf	postdec2,c
  5949   002034                     
  5950                           ;usb_device.c: 2566:             pBDTEntryEP0OutNext->STAT.Val = 0x00|(0x08 & 0x08)|0x04
      +                          ;
  5951   002034  C01E  FFD9         	movff	_pBDTEntryEP0OutNext,fsr2l
  5952   002038  C01F  FFDA         	movff	_pBDTEntryEP0OutNext+1,fsr2h
  5953   00203C  0E0C               	movlw	12
  5954   00203E  6EDF               	movwf	indf2,c
  5955   002040                     
  5956                           ;usb_device.c: 2567:             pBDTEntryEP0OutNext->STAT.Val |= 0x80;
  5957   002040  C01E  FFD9         	movff	_pBDTEntryEP0OutNext,fsr2l
  5958   002044  C01F  FFDA         	movff	_pBDTEntryEP0OutNext+1,fsr2h
  5959   002048  0E00               	movlw	0
  5960   00204A  8EDB               	bsf	plusw2,7,c
  5961                           
  5962                           ;usb_device.c: 2568:         }
  5963   00204C  EF2A  F010         	goto	l560
  5964   002050                     l3905:
  5965                           
  5966                           ;usb_device.c: 2570:         {;usb_device.c: 2571:             BothEP0OutUOWNsSet = 0;
  5967   002050  0E00               	movlw	0
  5968   002052  6E2F               	movwf	_BothEP0OutUOWNsSet^0,c
  5969   002054                     l560:
  5970   002054  0012               	return		;funcret
  5971   002056                     __end_of_USBCtrlTrfOutHandler:
  5972                           	callstack 0
  5973                           
  5974 ;; *************** function _USBCtrlTrfRxService *****************
  5975 ;; Defined at:
  5976 ;;		line 1856 in file "usb_device.c"
  5977 ;; Parameters:    Size  Location     Type
  5978 ;;		None
  5979 ;; Auto vars:     Size  Location     Type
  5980 ;;  byteToRead      1    1[COMRAM] unsigned char 
  5981 ;;  i               1    0[COMRAM] unsigned char 
  5982 ;; Return value:  Size  Location     Type
  5983 ;;                  1    wreg      void 
  5984 ;; Registers used:
  5985 ;;		wreg, fsr1l, fsr1h, fsr2l, fsr2h, status,2, status,0, cstack
  5986 ;; Tracked objects:
  5987 ;;		On entry : 0/0
  5988 ;;		On exit  : 0/0
  5989 ;;		Unchanged: 0/0
  5990 ;; Data sizes:     COMRAM   BANK0   BANK1   BANK2
  5991 ;;      Params:         0       0       0       0
  5992 ;;      Locals:         2       0       0       0
  5993 ;;      Temps:          0       0       0       0
  5994 ;;      Totals:         2       0       0       0
  5995 ;;Total ram usage:        2 bytes
  5996 ;; Hardware stack levels used: 1
  5997 ;; Hardware stack levels required when called: 2
  5998 ;; This function calls:
  5999 ;;		_USBCtrlEPAllowStatusStage
  6000 ;; This function is called by:
  6001 ;;		_USBCtrlTrfOutHandler
  6002 ;; This function uses a non-reentrant model
  6003 ;;
  6004                           
  6005                           	psect	text31
  6006   000F1E                     __ptext31:
  6007                           	callstack 0
  6008   000F1E                     _USBCtrlTrfRxService:
  6009                           	callstack 25
  6010   000F1E                     
  6011                           ;usb_device.c: 1858:     uint8_t byteToRead;;usb_device.c: 1859:     uint8_t i;;usb_devi
      +                          ce.c: 1863:     byteToRead = pBDTEntryEP0OutCurrent->CNT;
  6012   000F1E  EE20 F001          	lfsr	2,1
  6013   000F22  5020               	movf	_pBDTEntryEP0OutCurrent^0,w,c
  6014   000F24  26D9               	addwf	fsr2l,f,c
  6015   000F26  5021               	movf	(_pBDTEntryEP0OutCurrent+1)^0,w,c
  6016   000F28  22DA               	addwfc	fsr2h,f,c
  6017   000F2A  50DF               	movf	indf2,w,c
  6018   000F2C  6E3D               	movwf	USBCtrlTrfRxService@byteToRead^0,c
  6019   000F2E                     
  6020                           ;usb_device.c: 1869:     if(byteToRead > outPipes[0].wCount.Val)
  6021   000F2E  503D               	movf	USBCtrlTrfRxService@byteToRead^0,w,c
  6022   000F30  5C05               	subwf	(_outPipes+4)^0,w,c
  6023   000F32  0E00               	movlw	0
  6024   000F34  5806               	subwfb	(_outPipes+5)^0,w,c
  6025   000F36  B0D8               	btfsc	status,0,c
  6026   000F38  EFA0  F007         	goto	u2451
  6027   000F3C  EFA2  F007         	goto	u2450
  6028   000F40                     u2451:
  6029   000F40  EFA4  F007         	goto	l3773
  6030   000F44                     u2450:
  6031   000F44                     
  6032                           ;usb_device.c: 1870:     {;usb_device.c: 1871:         byteToRead = outPipes[0].wCount.V
      +                          al;
  6033   000F44  C005  F03D         	movff	_outPipes+4,USBCtrlTrfRxService@byteToRead
  6034   000F48                     l3773:
  6035                           
  6036                           ;usb_device.c: 1874:     outPipes[0].wCount.Val -= byteToRead;
  6037   000F48  503D               	movf	USBCtrlTrfRxService@byteToRead^0,w,c
  6038   000F4A  5E05               	subwf	(_outPipes+4)^0,f,c
  6039   000F4C  0E00               	movlw	0
  6040   000F4E  5A06               	subwfb	(_outPipes+5)^0,f,c
  6041   000F50                     
  6042                           ;usb_device.c: 1878:     for(i=0;i<byteToRead;i++)
  6043   000F50  0E00               	movlw	0
  6044   000F52  6E3C               	movwf	USBCtrlTrfRxService@i^0,c
  6045   000F54  EFBB  F007         	goto	l3783
  6046   000F58                     l3777:
  6047                           
  6048                           ;usb_device.c: 1879:     {;usb_device.c: 1880:         *outPipes[0].pDst.bRam++ = CtrlTr
      +                          fData[i];
  6049   000F58  0E38               	movlw	56
  6050   000F5A  243C               	addwf	USBCtrlTrfRxService@i^0,w,c
  6051   000F5C  6ED9               	movwf	fsr2l,c
  6052   000F5E  6ADA               	clrf	fsr2h,c
  6053   000F60  0E02               	movlw	2
  6054   000F62  22DA               	addwfc	fsr2h,f,c
  6055   000F64  C001  FFE1         	movff	_outPipes,fsr1l
  6056   000F68  C002  FFE2         	movff	_outPipes+1,fsr1h
  6057   000F6C  CFDF FFE7          	movff	indf2,indf1
  6058   000F70  4A01               	infsnz	_outPipes^0,f,c
  6059   000F72  2A02               	incf	(_outPipes+1)^0,f,c
  6060   000F74                     
  6061                           ;usb_device.c: 1881:     }
  6062   000F74  2A3C               	incf	USBCtrlTrfRxService@i^0,f,c
  6063   000F76                     l3783:
  6064   000F76  503D               	movf	USBCtrlTrfRxService@byteToRead^0,w,c
  6065   000F78  5C3C               	subwf	USBCtrlTrfRxService@i^0,w,c
  6066   000F7A  A0D8               	btfss	status,0,c
  6067   000F7C  EFC2  F007         	goto	u2461
  6068   000F80  EFC4  F007         	goto	u2460
  6069   000F84                     u2461:
  6070   000F84  EFAC  F007         	goto	l3777
  6071   000F88                     u2460:
  6072   000F88                     
  6073                           ;usb_device.c: 1885:     if(outPipes[0].wCount.Val > 0)
  6074   000F88  5005               	movf	(_outPipes+4)^0,w,c
  6075   000F8A  1006               	iorwf	(_outPipes+5)^0,w,c
  6076   000F8C  B4D8               	btfsc	status,2,c
  6077   000F8E  EFCB  F007         	goto	u2471
  6078   000F92  EFCD  F007         	goto	u2470
  6079   000F96                     u2471:
  6080   000F96  EF06  F008         	goto	l3799
  6081   000F9A                     u2470:
  6082   000F9A                     
  6083                           ;usb_device.c: 1886:     {;usb_device.c: 1887:         pBDTEntryEP0OutNext->CNT = 8;
  6084   000F9A  EE20 F001          	lfsr	2,1
  6085   000F9E  501E               	movf	_pBDTEntryEP0OutNext^0,w,c
  6086   000FA0  26D9               	addwf	fsr2l,f,c
  6087   000FA2  501F               	movf	(_pBDTEntryEP0OutNext+1)^0,w,c
  6088   000FA4  22DA               	addwfc	fsr2h,f,c
  6089   000FA6  0E08               	movlw	8
  6090   000FA8  6EDF               	movwf	indf2,c
  6091                           
  6092                           ;usb_device.c: 1888:         pBDTEntryEP0OutNext->ADR = ((uint16_t)(&CtrlTrfData));
  6093   000FAA  EE20 F002          	lfsr	2,2
  6094   000FAE  501E               	movf	_pBDTEntryEP0OutNext^0,w,c
  6095   000FB0  26D9               	addwf	fsr2l,f,c
  6096   000FB2  501F               	movf	(_pBDTEntryEP0OutNext+1)^0,w,c
  6097   000FB4  22DA               	addwfc	fsr2h,f,c
  6098   000FB6  0E38               	movlw	56
  6099   000FB8  6EDE               	movwf	postinc2,c
  6100   000FBA  0E02               	movlw	2
  6101   000FBC  6EDD               	movwf	postdec2,c
  6102   000FBE                     
  6103                           ;usb_device.c: 1889:         if(pBDTEntryEP0OutCurrent->STAT.DTS == 0)
  6104   000FBE  C020  FFD9         	movff	_pBDTEntryEP0OutCurrent,fsr2l
  6105   000FC2  C021  FFDA         	movff	_pBDTEntryEP0OutCurrent+1,fsr2h
  6106   000FC6  BCDF               	btfsc	indf2,6,c
  6107   000FC8  EFE8  F007         	goto	u2481
  6108   000FCC  EFEA  F007         	goto	u2480
  6109   000FD0                     u2481:
  6110   000FD0  EFF8  F007         	goto	l3795
  6111   000FD4                     u2480:
  6112   000FD4                     
  6113                           ;usb_device.c: 1890:         {;usb_device.c: 1891:             pBDTEntryEP0OutNext->STAT
      +                          .Val = 0x40|(0x08 & 0x08);
  6114   000FD4  C01E  FFD9         	movff	_pBDTEntryEP0OutNext,fsr2l
  6115   000FD8  C01F  FFDA         	movff	_pBDTEntryEP0OutNext+1,fsr2h
  6116   000FDC  0E48               	movlw	72
  6117   000FDE  6EDF               	movwf	indf2,c
  6118   000FE0                     
  6119                           ;usb_device.c: 1892:             pBDTEntryEP0OutNext->STAT.Val |= 0x80;
  6120   000FE0  C01E  FFD9         	movff	_pBDTEntryEP0OutNext,fsr2l
  6121   000FE4  C01F  FFDA         	movff	_pBDTEntryEP0OutNext+1,fsr2h
  6122   000FE8  0E00               	movlw	0
  6123   000FEA  8EDB               	bsf	plusw2,7,c
  6124                           
  6125                           ;usb_device.c: 1893:         }
  6126   000FEC  EF2F  F008         	goto	l492
  6127   000FF0                     l3795:
  6128                           
  6129                           ;usb_device.c: 1895:         {;usb_device.c: 1896:             pBDTEntryEP0OutNext->STAT
      +                          .Val = 0x00|(0x08 & 0x08);
  6130   000FF0  C01E  FFD9         	movff	_pBDTEntryEP0OutNext,fsr2l
  6131   000FF4  C01F  FFDA         	movff	_pBDTEntryEP0OutNext+1,fsr2h
  6132   000FF8  0E08               	movlw	8
  6133   000FFA  6EDF               	movwf	indf2,c
  6134   000FFC                     
  6135                           ;usb_device.c: 1897:             pBDTEntryEP0OutNext->STAT.Val |= 0x80;
  6136   000FFC  C01E  FFD9         	movff	_pBDTEntryEP0OutNext,fsr2l
  6137   001000  C01F  FFDA         	movff	_pBDTEntryEP0OutNext+1,fsr2h
  6138   001004  0E00               	movlw	0
  6139   001006  8EDB               	bsf	plusw2,7,c
  6140   001008  EF2F  F008         	goto	l492
  6141   00100C                     l3799:
  6142                           
  6143                           ;usb_device.c: 1901:     {;usb_device.c: 1905:         pBDTEntryEP0OutNext->CNT = 8;
  6144   00100C  EE20 F001          	lfsr	2,1
  6145   001010  501E               	movf	_pBDTEntryEP0OutNext^0,w,c
  6146   001012  26D9               	addwf	fsr2l,f,c
  6147   001014  501F               	movf	(_pBDTEntryEP0OutNext+1)^0,w,c
  6148   001016  22DA               	addwfc	fsr2h,f,c
  6149   001018  0E08               	movlw	8
  6150   00101A  6EDF               	movwf	indf2,c
  6151                           
  6152                           ;usb_device.c: 1906:         pBDTEntryEP0OutNext->ADR = ((uint16_t)(&SetupPkt));
  6153   00101C  EE20 F002          	lfsr	2,2
  6154   001020  501E               	movf	_pBDTEntryEP0OutNext^0,w,c
  6155   001022  26D9               	addwf	fsr2l,f,c
  6156   001024  501F               	movf	(_pBDTEntryEP0OutNext+1)^0,w,c
  6157   001026  22DA               	addwfc	fsr2h,f,c
  6158   001028  0E30               	movlw	48
  6159   00102A  6EDE               	movwf	postinc2,c
  6160   00102C  0E02               	movlw	2
  6161   00102E  6EDD               	movwf	postdec2,c
  6162   001030                     
  6163                           ;usb_device.c: 1910:         pBDTEntryEP0OutNext->STAT.Val = 0x04;
  6164   001030  C01E  FFD9         	movff	_pBDTEntryEP0OutNext,fsr2l
  6165   001034  C01F  FFDA         	movff	_pBDTEntryEP0OutNext+1,fsr2h
  6166   001038  0E04               	movlw	4
  6167   00103A  6EDF               	movwf	indf2,c
  6168   00103C                     
  6169                           ;usb_device.c: 1911:         pBDTEntryEP0OutNext->STAT.Val |= 0x80;
  6170   00103C  C01E  FFD9         	movff	_pBDTEntryEP0OutNext,fsr2l
  6171   001040  C01F  FFDA         	movff	_pBDTEntryEP0OutNext+1,fsr2h
  6172   001044  0E00               	movlw	0
  6173   001046  8EDB               	bsf	plusw2,7,c
  6174   001048  9E04               	bcf	(_outPipes+3)^0,7,c
  6175   00104A                     
  6176                           ;usb_device.c: 1945:         if(USBDeferStatusStagePacket == 0)
  6177   00104A  502D               	movf	_USBDeferStatusStagePacket^0,w,c	;volatile
  6178   00104C  A4D8               	btfss	status,2,c
  6179   00104E  EF2B  F008         	goto	u2491
  6180   001052  EF2D  F008         	goto	u2490
  6181   001056                     u2491:
  6182   001056  EF2F  F008         	goto	l492
  6183   00105A                     u2490:
  6184   00105A                     
  6185                           ;usb_device.c: 1946:         {;usb_device.c: 1947:             USBCtrlEPAllowStatusStage
      +                          ();
  6186   00105A  EC06  F00D         	call	_USBCtrlEPAllowStatusStage	;wreg free
  6187   00105E                     l492:
  6188   00105E  0012               	return		;funcret
  6189   001060                     __end_of_USBCtrlTrfRxService:
  6190                           	callstack 0
  6191                           
  6192 ;; *************** function _USBCtrlEPAllowStatusStage *****************
  6193 ;; Defined at:
  6194 ;;		line 1420 in file "usb_device.c"
  6195 ;; Parameters:    Size  Location     Type
  6196 ;;		None
  6197 ;; Auto vars:     Size  Location     Type
  6198 ;;		None
  6199 ;; Return value:  Size  Location     Type
  6200 ;;                  1    wreg      void 
  6201 ;; Registers used:
  6202 ;;		wreg, fsr2l, fsr2h, status,2, status,0
  6203 ;; Tracked objects:
  6204 ;;		On entry : 0/0
  6205 ;;		On exit  : 0/0
  6206 ;;		Unchanged: 0/0
  6207 ;; Data sizes:     COMRAM   BANK0   BANK1   BANK2
  6208 ;;      Params:         0       0       0       0
  6209 ;;      Locals:         0       0       0       0
  6210 ;;      Temps:          0       0       0       0
  6211 ;;      Totals:         0       0       0       0
  6212 ;;Total ram usage:        0 bytes
  6213 ;; Hardware stack levels used: 1
  6214 ;; Hardware stack levels required when called: 1
  6215 ;; This function calls:
  6216 ;;		Nothing
  6217 ;; This function is called by:
  6218 ;;		_USBDeviceTasks
  6219 ;;		_USBCtrlEPServiceComplete
  6220 ;;		_USBCtrlTrfRxService
  6221 ;; This function uses a non-reentrant model
  6222 ;;
  6223                           
  6224                           	psect	text32
  6225   001A0C                     __ptext32:
  6226                           	callstack 0
  6227   001A0C                     _USBCtrlEPAllowStatusStage:
  6228                           	callstack 25
  6229   001A0C                     
  6230                           ;usb_device.c: 1427:     if(USBStatusStageEnabledFlag1 == 0)
  6231   001A0C  502C               	movf	_USBStatusStageEnabledFlag1^0,w,c	;volatile
  6232   001A0E  A4D8               	btfss	status,2,c
  6233   001A10  EF0C  F00D         	goto	u2001
  6234   001A14  EF0E  F00D         	goto	u2000
  6235   001A18                     u2001:
  6236   001A18  EF7C  F00D         	goto	l440
  6237   001A1C                     u2000:
  6238   001A1C                     
  6239                           ;usb_device.c: 1428:     {;usb_device.c: 1429:         USBStatusStageEnabledFlag1 = 1;
  6240   001A1C  0E01               	movlw	1
  6241   001A1E  6E2C               	movwf	_USBStatusStageEnabledFlag1^0,c	;volatile
  6242                           
  6243                           ;usb_device.c: 1430:         if(USBStatusStageEnabledFlag2 == 0)
  6244   001A20  502B               	movf	_USBStatusStageEnabledFlag2^0,w,c	;volatile
  6245   001A22  A4D8               	btfss	status,2,c
  6246   001A24  EF16  F00D         	goto	u2011
  6247   001A28  EF18  F00D         	goto	u2010
  6248   001A2C                     u2011:
  6249   001A2C  EF7C  F00D         	goto	l440
  6250   001A30                     u2010:
  6251   001A30                     
  6252                           ;usb_device.c: 1431:         {;usb_device.c: 1432:             USBStatusStageEnabledFlag
      +                          2 = 1;
  6253   001A30  0E01               	movlw	1
  6254   001A32  6E2B               	movwf	_USBStatusStageEnabledFlag2^0,c	;volatile
  6255   001A34                     
  6256                           ;usb_device.c: 1436:             if(controlTransferState == 2)
  6257   001A34  0E02               	movlw	2
  6258   001A36  1833               	xorwf	_controlTransferState^0,w,c
  6259   001A38  A4D8               	btfss	status,2,c
  6260   001A3A  EF21  F00D         	goto	u2021
  6261   001A3E  EF23  F00D         	goto	u2020
  6262   001A42                     u2021:
  6263   001A42  EF38  F00D         	goto	l3477
  6264   001A46                     u2020:
  6265   001A46                     
  6266                           ;usb_device.c: 1437:             {;usb_device.c: 1438:                 pBDTEntryIn[0]->C
      +                          NT = 0;
  6267   001A46  EE20 F001          	lfsr	2,1
  6268   001A4A  500F               	movf	_pBDTEntryIn^0,w,c
  6269   001A4C  26D9               	addwf	fsr2l,f,c
  6270   001A4E  5010               	movf	(_pBDTEntryIn+1)^0,w,c
  6271   001A50  22DA               	addwfc	fsr2h,f,c
  6272   001A52  6ADF               	clrf	indf2,c
  6273   001A54                     
  6274                           ;usb_device.c: 1439:                 pBDTEntryIn[0]->STAT.Val = 0x40|(0x08 & 0x08);
  6275   001A54  C00F  FFD9         	movff	_pBDTEntryIn,fsr2l
  6276   001A58  C010  FFDA         	movff	_pBDTEntryIn+1,fsr2h
  6277   001A5C  0E48               	movlw	72
  6278   001A5E  6EDF               	movwf	indf2,c
  6279   001A60                     
  6280                           ;usb_device.c: 1440:                 pBDTEntryIn[0]->STAT.Val |= 0x80;
  6281   001A60  C00F  FFD9         	movff	_pBDTEntryIn,fsr2l
  6282   001A64  C010  FFDA         	movff	_pBDTEntryIn+1,fsr2h
  6283   001A68  0E00               	movlw	0
  6284   001A6A  8EDB               	bsf	plusw2,7,c
  6285                           
  6286                           ;usb_device.c: 1441:             }
  6287   001A6C  EF7C  F00D         	goto	l440
  6288   001A70                     l3477:
  6289   001A70  0433               	decf	_controlTransferState^0,w,c
  6290   001A72  A4D8               	btfss	status,2,c
  6291   001A74  EF3E  F00D         	goto	u2031
  6292   001A78  EF40  F00D         	goto	u2030
  6293   001A7C                     u2031:
  6294   001A7C  EF7C  F00D         	goto	l436
  6295   001A80                     u2030:
  6296   001A80                     
  6297                           ;usb_device.c: 1443:             {;usb_device.c: 1444:                 BothEP0OutUOWNsSe
      +                          t = 0;
  6298   001A80  0E00               	movlw	0
  6299   001A82  6E2F               	movwf	_BothEP0OutUOWNsSet^0,c
  6300   001A84                     
  6301                           ;usb_device.c: 1449:                     pBDTEntryEP0OutCurrent->CNT = 8;
  6302   001A84  EE20 F001          	lfsr	2,1
  6303   001A88  5020               	movf	_pBDTEntryEP0OutCurrent^0,w,c
  6304   001A8A  26D9               	addwf	fsr2l,f,c
  6305   001A8C  5021               	movf	(_pBDTEntryEP0OutCurrent+1)^0,w,c
  6306   001A8E  22DA               	addwfc	fsr2h,f,c
  6307   001A90  0E08               	movlw	8
  6308   001A92  6EDF               	movwf	indf2,c
  6309   001A94                     
  6310                           ;usb_device.c: 1450:                     pBDTEntryEP0OutCurrent->ADR = ((uint16_t)(&Setu
      +                          pPkt));
  6311   001A94  EE20 F002          	lfsr	2,2
  6312   001A98  5020               	movf	_pBDTEntryEP0OutCurrent^0,w,c
  6313   001A9A  26D9               	addwf	fsr2l,f,c
  6314   001A9C  5021               	movf	(_pBDTEntryEP0OutCurrent+1)^0,w,c
  6315   001A9E  22DA               	addwfc	fsr2h,f,c
  6316   001AA0  0E30               	movlw	48
  6317   001AA2  6EDE               	movwf	postinc2,c
  6318   001AA4  0E02               	movlw	2
  6319   001AA6  6EDD               	movwf	postdec2,c
  6320   001AA8                     
  6321                           ;usb_device.c: 1451:                     pBDTEntryEP0OutCurrent->STAT.Val = 0x04;
  6322   001AA8  C020  FFD9         	movff	_pBDTEntryEP0OutCurrent,fsr2l
  6323   001AAC  C021  FFDA         	movff	_pBDTEntryEP0OutCurrent+1,fsr2h
  6324   001AB0  0E04               	movlw	4
  6325   001AB2  6EDF               	movwf	indf2,c
  6326   001AB4                     
  6327                           ;usb_device.c: 1452:                     pBDTEntryEP0OutCurrent->STAT.Val |= 0x80;
  6328   001AB4  C020  FFD9         	movff	_pBDTEntryEP0OutCurrent,fsr2l
  6329   001AB8  C021  FFDA         	movff	_pBDTEntryEP0OutCurrent+1,fsr2h
  6330   001ABC  0E00               	movlw	0
  6331   001ABE  8EDB               	bsf	plusw2,7,c
  6332   001AC0                     
  6333                           ;usb_device.c: 1453:                     BothEP0OutUOWNsSet = 1;
  6334   001AC0  0E01               	movlw	1
  6335   001AC2  6E2F               	movwf	_BothEP0OutUOWNsSet^0,c
  6336   001AC4                     
  6337                           ;usb_device.c: 1457:                 pBDTEntryEP0OutNext->CNT = 8;
  6338   001AC4  EE20 F001          	lfsr	2,1
  6339   001AC8  501E               	movf	_pBDTEntryEP0OutNext^0,w,c
  6340   001ACA  26D9               	addwf	fsr2l,f,c
  6341   001ACC  501F               	movf	(_pBDTEntryEP0OutNext+1)^0,w,c
  6342   001ACE  22DA               	addwfc	fsr2h,f,c
  6343   001AD0  0E08               	movlw	8
  6344   001AD2  6EDF               	movwf	indf2,c
  6345   001AD4                     
  6346                           ;usb_device.c: 1458:                 pBDTEntryEP0OutNext->ADR = ((uint16_t)(&SetupPkt));
  6347   001AD4  EE20 F002          	lfsr	2,2
  6348   001AD8  501E               	movf	_pBDTEntryEP0OutNext^0,w,c
  6349   001ADA  26D9               	addwf	fsr2l,f,c
  6350   001ADC  501F               	movf	(_pBDTEntryEP0OutNext+1)^0,w,c
  6351   001ADE  22DA               	addwfc	fsr2h,f,c
  6352   001AE0  0E30               	movlw	48
  6353   001AE2  6EDE               	movwf	postinc2,c
  6354   001AE4  0E02               	movlw	2
  6355   001AE6  6EDD               	movwf	postdec2,c
  6356   001AE8                     
  6357                           ;usb_device.c: 1459:                 pBDTEntryEP0OutNext->STAT.Val = 0x80;
  6358   001AE8  C01E  FFD9         	movff	_pBDTEntryEP0OutNext,fsr2l
  6359   001AEC  C01F  FFDA         	movff	_pBDTEntryEP0OutNext+1,fsr2h
  6360   001AF0  0E80               	movlw	128
  6361   001AF2  6EDF               	movwf	indf2,c
  6362   001AF4  EF7C  F00D         	goto	l440
  6363   001AF8                     l436:
  6364   001AF8                     l440:
  6365   001AF8  0012               	return		;funcret
  6366   001AFA                     __end_of_USBCtrlEPAllowStatusStage:
  6367                           	callstack 0
  6368                           
  6369 ;; *************** function _USBCtrlTrfInHandler *****************
  6370 ;; Defined at:
  6371 ;;		line 2599 in file "usb_device.c"
  6372 ;; Parameters:    Size  Location     Type
  6373 ;;		None
  6374 ;; Auto vars:     Size  Location     Type
  6375 ;;  lastDTS         1    1[COMRAM] unsigned char 
  6376 ;; Return value:  Size  Location     Type
  6377 ;;                  1    wreg      void 
  6378 ;; Registers used:
  6379 ;;		wreg, fsr0l, fsr0h, fsr2l, fsr2h, status,2, status,0, tblptrl, tblptrh, tblptru, cstack
  6380 ;; Tracked objects:
  6381 ;;		On entry : 0/0
  6382 ;;		On exit  : 0/0
  6383 ;;		Unchanged: 0/0
  6384 ;; Data sizes:     COMRAM   BANK0   BANK1   BANK2
  6385 ;;      Params:         0       0       0       0
  6386 ;;      Locals:         1       0       0       0
  6387 ;;      Temps:          0       0       0       0
  6388 ;;      Totals:         1       0       0       0
  6389 ;;Total ram usage:        1 bytes
  6390 ;; Hardware stack levels used: 1
  6391 ;; Hardware stack levels required when called: 2
  6392 ;; This function calls:
  6393 ;;		_USBCtrlTrfTxService
  6394 ;; This function is called by:
  6395 ;;		_USBCtrlEPService
  6396 ;; This function uses a non-reentrant model
  6397 ;;
  6398                           
  6399                           	psect	text33
  6400   001612                     __ptext33:
  6401                           	callstack 0
  6402   001612                     _USBCtrlTrfInHandler:
  6403                           	callstack 26
  6404   001612                     
  6405                           ;usb_device.c: 2601:     uint8_t lastDTS;;usb_device.c: 2603:     lastDTS = pBDTEntryIn[
      +                          0]->STAT.DTS;
  6406   001612  C00F  FFD9         	movff	_pBDTEntryIn,fsr2l
  6407   001616  C010  FFDA         	movff	_pBDTEntryIn+1,fsr2h
  6408   00161A  0E00               	movlw	0
  6409   00161C  BCDF               	btfsc	indf2,6,c
  6410   00161E  0E01               	movlw	1
  6411   001620  6E3D               	movwf	USBCtrlTrfInHandler@lastDTS^0,c
  6412   001622                     
  6413                           ;usb_device.c: 2606:     pBDTEntryIn[0] = (volatile BDT_ENTRY*)(((uint16_t)pBDTEntryIn[0
      +                          ]) ^ 0x0004);
  6414   001622  0E04               	movlw	4
  6415   001624  180F               	xorwf	_pBDTEntryIn^0,w,c
  6416   001626  6E0F               	movwf	_pBDTEntryIn^0,c
  6417   001628  5010               	movf	(_pBDTEntryIn+1)^0,w,c
  6418   00162A  6E10               	movwf	(_pBDTEntryIn+1)^0,c
  6419   00162C                     
  6420                           ;usb_device.c: 2611:     if(USBDeviceState == ADR_PENDING_STATE)
  6421   00162C  0E08               	movlw	8
  6422   00162E  1837               	xorwf	_USBDeviceState^0,w,c
  6423   001630  A4D8               	btfss	status,2,c
  6424   001632  EF1D  F00B         	goto	u2541
  6425   001636  EF1F  F00B         	goto	u2540
  6426   00163A                     u2541:
  6427   00163A  EF32  F00B         	goto	l3921
  6428   00163E                     u2540:
  6429   00163E                     
  6430                           ;usb_device.c: 2612:     {;usb_device.c: 2613:         UADDR = (SetupPkt.bDevADR & 0x7F)
      +                          ;
  6431   00163E  0102               	movlb	2	; () banked
  6432   001640  5132               	movf	50,w,b	;volatile
  6433   001642  0B7F               	andlw	127
  6434   001644  010F               	movlb	15	; () banked
  6435   001646  6F5C               	movwf	92,b	;volatile
  6436   001648                     
  6437                           ; BSR set to: 15
  6438                           ;usb_device.c: 2614:         if(UADDR != 0u)
  6439   001648  515C               	movf	92,w,b	;volatile
  6440   00164A  B4D8               	btfsc	status,2,c
  6441   00164C  EF2A  F00B         	goto	u2551
  6442   001650  EF2C  F00B         	goto	u2550
  6443   001654                     u2551:
  6444   001654  EF30  F00B         	goto	l3919
  6445   001658                     u2550:
  6446   001658                     
  6447                           ; BSR set to: 15
  6448                           ;usb_device.c: 2615:         {;usb_device.c: 2616:             USBDeviceState=ADDRESS_ST
      +                          ATE;
  6449   001658  0E10               	movlw	16
  6450   00165A  6E37               	movwf	_USBDeviceState^0,c
  6451                           
  6452                           ;usb_device.c: 2617:         }
  6453   00165C  EF32  F00B         	goto	l3921
  6454   001660                     l3919:
  6455                           
  6456                           ; BSR set to: 15
  6457                           ;usb_device.c: 2619:         {;usb_device.c: 2620:             USBDeviceState=DEFAULT_ST
      +                          ATE;
  6458   001660  0E04               	movlw	4
  6459   001662  6E37               	movwf	_USBDeviceState^0,c
  6460   001664                     l3921:
  6461                           
  6462                           ;usb_device.c: 2625:     if(controlTransferState == 1)
  6463   001664  0433               	decf	_controlTransferState^0,w,c
  6464   001666  A4D8               	btfss	status,2,c
  6465   001668  EF38  F00B         	goto	u2561
  6466   00166C  EF3A  F00B         	goto	u2560
  6467   001670                     u2561:
  6468   001670  EF81  F00B         	goto	l566
  6469   001674                     u2560:
  6470   001674                     
  6471                           ;usb_device.c: 2626:     {;usb_device.c: 2627:         pBDTEntryIn[0]->ADR = ((uint16_t)
      +                          (CtrlTrfData));
  6472   001674  EE20 F002          	lfsr	2,2
  6473   001678  500F               	movf	_pBDTEntryIn^0,w,c
  6474   00167A  26D9               	addwf	fsr2l,f,c
  6475   00167C  5010               	movf	(_pBDTEntryIn+1)^0,w,c
  6476   00167E  22DA               	addwfc	fsr2h,f,c
  6477   001680  0E38               	movlw	56
  6478   001682  6EDE               	movwf	postinc2,c
  6479   001684  0E02               	movlw	2
  6480   001686  6EDD               	movwf	postdec2,c
  6481   001688                     
  6482                           ;usb_device.c: 2628:         USBCtrlTrfTxService();
  6483   001688  EC84  F00A         	call	_USBCtrlTrfTxService	;wreg free
  6484   00168C                     
  6485                           ;usb_device.c: 2634:         if(shortPacketStatus == 2)
  6486   00168C  0E02               	movlw	2
  6487   00168E  1834               	xorwf	_shortPacketStatus^0,w,c
  6488   001690  A4D8               	btfss	status,2,c
  6489   001692  EF4D  F00B         	goto	u2571
  6490   001696  EF4F  F00B         	goto	u2570
  6491   00169A                     u2571:
  6492   00169A  EF5D  F00B         	goto	l3933
  6493   00169E                     u2570:
  6494   00169E                     
  6495                           ;usb_device.c: 2635:         {;usb_device.c: 2638:             pBDTEntryIn[0]->STAT.Val 
      +                          = 0x04;
  6496   00169E  C00F  FFD9         	movff	_pBDTEntryIn,fsr2l
  6497   0016A2  C010  FFDA         	movff	_pBDTEntryIn+1,fsr2h
  6498   0016A6  0E04               	movlw	4
  6499   0016A8  6EDF               	movwf	indf2,c
  6500   0016AA                     
  6501                           ;usb_device.c: 2639:             pBDTEntryIn[0]->STAT.Val |= 0x80;
  6502   0016AA  C00F  FFD9         	movff	_pBDTEntryIn,fsr2l
  6503   0016AE  C010  FFDA         	movff	_pBDTEntryIn+1,fsr2h
  6504   0016B2  0E00               	movlw	0
  6505   0016B4  8EDB               	bsf	plusw2,7,c
  6506                           
  6507                           ;usb_device.c: 2640:         }
  6508   0016B6  EF8B  F00B         	goto	l574
  6509   0016BA                     l3933:
  6510                           
  6511                           ;usb_device.c: 2642:         {;usb_device.c: 2643:             if(lastDTS == 0)
  6512   0016BA  503D               	movf	USBCtrlTrfInHandler@lastDTS^0,w,c
  6513   0016BC  A4D8               	btfss	status,2,c
  6514   0016BE  EF63  F00B         	goto	u2581
  6515   0016C2  EF65  F00B         	goto	u2580
  6516   0016C6                     u2581:
  6517   0016C6  EF73  F00B         	goto	l3939
  6518   0016CA                     u2580:
  6519   0016CA                     
  6520                           ;usb_device.c: 2644:             {;usb_device.c: 2645:                 pBDTEntryIn[0]->S
      +                          TAT.Val = 0x40|(0x08 & 0x08);
  6521   0016CA  C00F  FFD9         	movff	_pBDTEntryIn,fsr2l
  6522   0016CE  C010  FFDA         	movff	_pBDTEntryIn+1,fsr2h
  6523   0016D2  0E48               	movlw	72
  6524   0016D4  6EDF               	movwf	indf2,c
  6525   0016D6                     
  6526                           ;usb_device.c: 2646:                 pBDTEntryIn[0]->STAT.Val |= 0x80;
  6527   0016D6  C00F  FFD9         	movff	_pBDTEntryIn,fsr2l
  6528   0016DA  C010  FFDA         	movff	_pBDTEntryIn+1,fsr2h
  6529   0016DE  0E00               	movlw	0
  6530   0016E0  8EDB               	bsf	plusw2,7,c
  6531                           
  6532                           ;usb_device.c: 2647:             }
  6533   0016E2  EF8B  F00B         	goto	l574
  6534   0016E6                     l3939:
  6535                           
  6536                           ;usb_device.c: 2649:             {;usb_device.c: 2650:                 pBDTEntryIn[0]->S
      +                          TAT.Val = 0x00|(0x08 & 0x08);
  6537   0016E6  C00F  FFD9         	movff	_pBDTEntryIn,fsr2l
  6538   0016EA  C010  FFDA         	movff	_pBDTEntryIn+1,fsr2h
  6539   0016EE  0E08               	movlw	8
  6540   0016F0  6EDF               	movwf	indf2,c
  6541   0016F2                     
  6542                           ;usb_device.c: 2651:                 pBDTEntryIn[0]->STAT.Val |= 0x80;
  6543   0016F2  C00F  FFD9         	movff	_pBDTEntryIn,fsr2l
  6544   0016F6  C010  FFDA         	movff	_pBDTEntryIn+1,fsr2h
  6545   0016FA  0E00               	movlw	0
  6546   0016FC  8EDB               	bsf	plusw2,7,c
  6547   0016FE  EF8B  F00B         	goto	l574
  6548   001702                     l566:
  6549                           
  6550                           ;usb_device.c: 2656:  {;usb_device.c: 2660:         if(outPipes[0].info.bits.busy == 1)
  6551   001702  AE04               	btfss	(_outPipes+3)^0,7,c
  6552   001704  EF86  F00B         	goto	u2591
  6553   001708  EF88  F00B         	goto	u2590
  6554   00170C                     u2591:
  6555   00170C  EF89  F00B         	goto	l3945
  6556   001710                     u2590:
  6557   001710                     
  6558                           ;usb_device.c: 2666:             outPipes[0].info.bits.busy = 0;
  6559   001710  9E04               	bcf	(_outPipes+3)^0,7,c
  6560   001712                     l3945:
  6561                           
  6562                           ;usb_device.c: 2669:         controlTransferState = 0;
  6563   001712  0E00               	movlw	0
  6564   001714  6E33               	movwf	_controlTransferState^0,c
  6565   001716                     l574:
  6566   001716  0012               	return		;funcret
  6567   001718                     __end_of_USBCtrlTrfInHandler:
  6568                           	callstack 0
  6569                           
  6570 ;; *************** function _USBCtrlTrfTxService *****************
  6571 ;; Defined at:
  6572 ;;		line 1775 in file "usb_device.c"
  6573 ;; Parameters:    Size  Location     Type
  6574 ;;		None
  6575 ;; Auto vars:     Size  Location     Type
  6576 ;;  byteToSend      1    0[COMRAM] unsigned char 
  6577 ;; Return value:  Size  Location     Type
  6578 ;;                  1    wreg      void 
  6579 ;; Registers used:
  6580 ;;		wreg, fsr0l, fsr0h, fsr2l, fsr2h, status,2, status,0, tblptrl, tblptrh, tblptru
  6581 ;; Tracked objects:
  6582 ;;		On entry : 0/0
  6583 ;;		On exit  : 0/0
  6584 ;;		Unchanged: 0/0
  6585 ;; Data sizes:     COMRAM   BANK0   BANK1   BANK2
  6586 ;;      Params:         0       0       0       0
  6587 ;;      Locals:         1       0       0       0
  6588 ;;      Temps:          0       0       0       0
  6589 ;;      Totals:         1       0       0       0
  6590 ;;Total ram usage:        1 bytes
  6591 ;; Hardware stack levels used: 1
  6592 ;; Hardware stack levels required when called: 1
  6593 ;; This function calls:
  6594 ;;		Nothing
  6595 ;; This function is called by:
  6596 ;;		_USBCtrlEPAllowDataStage
  6597 ;;		_USBCtrlTrfInHandler
  6598 ;; This function uses a non-reentrant model
  6599 ;;
  6600                           
  6601                           	psect	text34
  6602   001508                     __ptext34:
  6603                           	callstack 0
  6604   001508                     _USBCtrlTrfTxService:
  6605                           	callstack 24
  6606   001508                     
  6607                           ;usb_device.c: 1777:     uint8_t byteToSend;;usb_device.c: 1781:     byteToSend = 8;
  6608   001508  0E08               	movlw	8
  6609   00150A  6E3C               	movwf	USBCtrlTrfTxService@byteToSend^0,c
  6610   00150C                     
  6611                           ;usb_device.c: 1782:     if(inPipes[0].wCount.Val < (uint8_t)8)
  6612   00150C  500E               	movf	(_inPipes+5)^0,w,c
  6613   00150E  E107               	bnz	u1921
  6614   001510  0E08               	movlw	8
  6615   001512  5C0D               	subwf	(_inPipes+4)^0,w,c
  6616   001514  B0D8               	btfsc	status,0,c
  6617   001516  EF8F  F00A         	goto	u1921
  6618   00151A  EF91  F00A         	goto	u1920
  6619   00151E                     u1921:
  6620   00151E  EFA9  F00A         	goto	l3433
  6621   001522                     u1920:
  6622   001522                     
  6623                           ;usb_device.c: 1783:     {;usb_device.c: 1784:         byteToSend = inPipes[0].wCount.Va
      +                          l;
  6624   001522  C00D  F03C         	movff	_inPipes+4,USBCtrlTrfTxService@byteToSend
  6625   001526                     
  6626                           ;usb_device.c: 1791:         if(shortPacketStatus == 0)
  6627   001526  5034               	movf	_shortPacketStatus^0,w,c
  6628   001528  A4D8               	btfss	status,2,c
  6629   00152A  EF99  F00A         	goto	u1931
  6630   00152E  EF9B  F00A         	goto	u1930
  6631   001532                     u1931:
  6632   001532  EF9F  F00A         	goto	l3429
  6633   001536                     u1930:
  6634   001536                     
  6635                           ;usb_device.c: 1792:         {;usb_device.c: 1793:             shortPacketStatus = 1;
  6636   001536  0E01               	movlw	1
  6637   001538  6E34               	movwf	_shortPacketStatus^0,c
  6638                           
  6639                           ;usb_device.c: 1794:         }
  6640   00153A  EFA9  F00A         	goto	l3433
  6641   00153E                     l3429:
  6642   00153E  0434               	decf	_shortPacketStatus^0,w,c
  6643   001540  A4D8               	btfss	status,2,c
  6644   001542  EFA5  F00A         	goto	u1941
  6645   001546  EFA7  F00A         	goto	u1940
  6646   00154A                     u1941:
  6647   00154A  EFA9  F00A         	goto	l3433
  6648   00154E                     u1940:
  6649   00154E                     
  6650                           ;usb_device.c: 1796:         {;usb_device.c: 1797:             shortPacketStatus = 2;
  6651   00154E  0E02               	movlw	2
  6652   001550  6E34               	movwf	_shortPacketStatus^0,c
  6653   001552                     l3433:
  6654                           
  6655                           ;usb_device.c: 1803:     inPipes[0].wCount.Val -= byteToSend;
  6656   001552  503C               	movf	USBCtrlTrfTxService@byteToSend^0,w,c
  6657   001554  5E0D               	subwf	(_inPipes+4)^0,f,c
  6658   001556  0E00               	movlw	0
  6659   001558  5A0E               	subwfb	(_inPipes+5)^0,f,c
  6660   00155A                     
  6661                           ;usb_device.c: 1808:     pBDTEntryIn[0]->CNT = byteToSend;
  6662   00155A  EE20 F001          	lfsr	2,1
  6663   00155E  500F               	movf	_pBDTEntryIn^0,w,c
  6664   001560  26D9               	addwf	fsr2l,f,c
  6665   001562  5010               	movf	(_pBDTEntryIn+1)^0,w,c
  6666   001564  22DA               	addwfc	fsr2h,f,c
  6667   001566  C03C  FFDF         	movff	USBCtrlTrfTxService@byteToSend,indf2
  6668   00156A                     
  6669                           ;usb_device.c: 1812:     pDst = ( uint8_t*)CtrlTrfData;
  6670   00156A  0E38               	movlw	56
  6671   00156C  6E1C               	movwf	_pDst^0,c
  6672   00156E  0E02               	movlw	2
  6673   001570  6E1D               	movwf	(_pDst+1)^0,c
  6674   001572                     
  6675                           ;usb_device.c: 1813:     if(inPipes[0].info.bits.ctrl_trf_mem == 0x00)
  6676   001572  B00C               	btfsc	(_inPipes+3)^0,0,c
  6677   001574  EFBE  F00A         	goto	u1951
  6678   001578  EFC0  F00A         	goto	u1950
  6679   00157C                     u1951:
  6680   00157C  EF00  F00B         	goto	l3461
  6681   001580                     u1950:
  6682   001580  EFDC  F00A         	goto	l3451
  6683   001584                     l3443:
  6684                           
  6685                           ;usb_device.c: 1816:         {;usb_device.c: 1817:             *pDst++ = *inPipes[0].pSr
      +                          c.bRom++;
  6686   001584  C009  FFF6         	movff	_inPipes,tblptrl
  6687   001588  C00A  FFF7         	movff	_inPipes+1,tblptrh
  6688   00158C  6AF8               	clrf	tblptru,c
  6689   00158E  C01C  FFD9         	movff	_pDst,fsr2l
  6690   001592  C01D  FFDA         	movff	_pDst+1,fsr2h
  6691   001596  0E02               	movlw	(high __ramtop+-1)
  6692   001598  64F7               	cpfsgt	tblptrh,c
  6693   00159A  D003               	bra	u1967
  6694   00159C  0008               	tblrd		*
  6695   00159E  50F5               	movf	tablat,w,c
  6696   0015A0  D005               	bra	u1960
  6697   0015A2                     u1967:
  6698   0015A2  CFF6 FFE9          	movff	tblptrl,fsr0l
  6699   0015A6  CFF7 FFEA          	movff	tblptrh,fsr0h
  6700   0015AA  50EF               	movf	indf0,w,c
  6701   0015AC                     u1960:
  6702   0015AC  6EDF               	movwf	indf2,c
  6703   0015AE  4A09               	infsnz	_inPipes^0,f,c
  6704   0015B0  2A0A               	incf	(_inPipes+1)^0,f,c
  6705   0015B2  4A1C               	infsnz	_pDst^0,f,c
  6706   0015B4  2A1D               	incf	(_pDst+1)^0,f,c
  6707   0015B6                     
  6708                           ;usb_device.c: 1818:             byteToSend--;
  6709   0015B6  063C               	decf	USBCtrlTrfTxService@byteToSend^0,f,c
  6710   0015B8                     l3451:
  6711                           
  6712                           ;usb_device.c: 1815:         while(byteToSend)
  6713   0015B8  503C               	movf	USBCtrlTrfTxService@byteToSend^0,w,c
  6714   0015BA  A4D8               	btfss	status,2,c
  6715   0015BC  EFE2  F00A         	goto	u1971
  6716   0015C0  EFE4  F00A         	goto	u1970
  6717   0015C4                     u1971:
  6718   0015C4  EFC2  F00A         	goto	l3443
  6719   0015C8                     u1970:
  6720   0015C8  EF08  F00B         	goto	l479
  6721   0015CC                     l3453:
  6722                           
  6723                           ;usb_device.c: 1824:         {;usb_device.c: 1825:             *pDst++ = *inPipes[0].pSr
      +                          c.bRam++;
  6724   0015CC  C009  FFF6         	movff	_inPipes,tblptrl
  6725   0015D0  C00A  FFF7         	movff	_inPipes+1,tblptrh
  6726   0015D4  6AF8               	clrf	tblptru,c
  6727   0015D6  C01C  FFD9         	movff	_pDst,fsr2l
  6728   0015DA  C01D  FFDA         	movff	_pDst+1,fsr2h
  6729   0015DE  0E02               	movlw	(high __ramtop+-1)
  6730   0015E0  64F7               	cpfsgt	tblptrh,c
  6731   0015E2  D003               	bra	u1987
  6732   0015E4  0008               	tblrd		*
  6733   0015E6  50F5               	movf	tablat,w,c
  6734   0015E8  D005               	bra	u1980
  6735   0015EA                     u1987:
  6736   0015EA  CFF6 FFE9          	movff	tblptrl,fsr0l
  6737   0015EE  CFF7 FFEA          	movff	tblptrh,fsr0h
  6738   0015F2  50EF               	movf	indf0,w,c
  6739   0015F4                     u1980:
  6740   0015F4  6EDF               	movwf	indf2,c
  6741   0015F6  4A09               	infsnz	_inPipes^0,f,c
  6742   0015F8  2A0A               	incf	(_inPipes+1)^0,f,c
  6743   0015FA  4A1C               	infsnz	_pDst^0,f,c
  6744   0015FC  2A1D               	incf	(_pDst+1)^0,f,c
  6745   0015FE                     
  6746                           ;usb_device.c: 1826:             byteToSend--;
  6747   0015FE  063C               	decf	USBCtrlTrfTxService@byteToSend^0,f,c
  6748   001600                     l3461:
  6749                           
  6750                           ;usb_device.c: 1823:         while(byteToSend)
  6751   001600  503C               	movf	USBCtrlTrfTxService@byteToSend^0,w,c
  6752   001602  A4D8               	btfss	status,2,c
  6753   001604  EF06  F00B         	goto	u1991
  6754   001608  EF08  F00B         	goto	u1990
  6755   00160C                     u1991:
  6756   00160C  EFE6  F00A         	goto	l3453
  6757   001610                     u1990:
  6758   001610                     l479:
  6759   001610  0012               	return		;funcret
  6760   001612                     __end_of_USBCtrlTrfTxService:
  6761                           	callstack 0
  6762                           
  6763 ;; *************** function _ProcessUSB *****************
  6764 ;; Defined at:
  6765 ;;		line 132 in file "main.c"
  6766 ;; Parameters:    Size  Location     Type
  6767 ;;		None
  6768 ;; Auto vars:     Size  Location     Type
  6769 ;;  i               1   18[COMRAM] unsigned char 
  6770 ;;  numBytesRead    1   17[COMRAM] unsigned char 
  6771 ;; Return value:  Size  Location     Type
  6772 ;;                  1    wreg      void 
  6773 ;; Registers used:
  6774 ;;		wreg, fsr1l, fsr1h, fsr2l, fsr2h, status,2, status,0, prodl, prodh, cstack
  6775 ;; Tracked objects:
  6776 ;;		On entry : 0/0
  6777 ;;		On exit  : 0/0
  6778 ;;		Unchanged: 0/0
  6779 ;; Data sizes:     COMRAM   BANK0   BANK1   BANK2
  6780 ;;      Params:         0       0       0       0
  6781 ;;      Locals:         2       0       0       0
  6782 ;;      Temps:          2       0       0       0
  6783 ;;      Totals:         4       0       0       0
  6784 ;;Total ram usage:        4 bytes
  6785 ;; Hardware stack levels used: 1
  6786 ;; Hardware stack levels required when called: 3
  6787 ;; This function calls:
  6788 ;;		_CDCTxService
  6789 ;;		_getsUSBUSART
  6790 ;;		_putUSBUSART
  6791 ;; This function is called by:
  6792 ;;		_main
  6793 ;; This function uses a non-reentrant model
  6794 ;;
  6795                           
  6796                           	psect	text35
  6797   001818                     __ptext35:
  6798                           	callstack 0
  6799   001818                     _ProcessUSB:
  6800                           	callstack 27
  6801   001818                     
  6802                           ;main.c: 134:      BYTE numBytesRead ;;main.c: 135:      BYTE i ;;main.c: 138:      if (
      +                           (USBDeviceState < CONFIGURED_STATE) || (UCONbits.SUSPND == 1) ) return ;
  6803   001818  0E1F               	movlw	31
  6804   00181A  6437               	cpfsgt	_USBDeviceState^0,c
  6805   00181C  EF12  F00C         	goto	u3141
  6806   001820  EF14  F00C         	goto	u3140
  6807   001824                     u3141:
  6808   001824  EF8B  F00C         	goto	l200
  6809   001828                     u3140:
  6810   001828  A264               	btfss	100,1,c	;volatile
  6811   00182A  EF19  F00C         	goto	u3151
  6812   00182E  EF1B  F00C         	goto	u3150
  6813   001832                     u3151:
  6814   001832  EF1D  F00C         	goto	l4307
  6815   001836                     u3150:
  6816   001836  EF8B  F00C         	goto	l200
  6817   00183A                     l4307:
  6818                           
  6819                           ;main.c: 141:      if ((cdc_trf_state == 0)) {
  6820   00183A  5036               	movf	_cdc_trf_state^0,w,c
  6821   00183C  A4D8               	btfss	status,2,c
  6822   00183E  EF23  F00C         	goto	u3161
  6823   001842  EF25  F00C         	goto	u3160
  6824   001846                     u3161:
  6825   001846  EF89  F00C         	goto	l4329
  6826   00184A                     u3160:
  6827   00184A                     
  6828                           ;main.c: 142:           numBytesRead = getsUSBUSART(USB_Out_Buffer,64) ;
  6829   00184A  0E00               	movlw	low _USB_Out_Buffer
  6830   00184C  6E47               	movwf	getsUSBUSART@buffer^0,c
  6831   00184E  0E01               	movlw	high _USB_Out_Buffer
  6832   001850  6E48               	movwf	(getsUSBUSART@buffer+1)^0,c
  6833   001852  0E40               	movlw	64
  6834   001854  6E49               	movwf	getsUSBUSART@len^0,c
  6835   001856  EC4A  F00E         	call	_getsUSBUSART	;wreg free
  6836   00185A  6E4D               	movwf	ProcessUSB@numBytesRead^0,c
  6837   00185C                     
  6838                           ;main.c: 143:           if(numBytesRead != 0) {
  6839   00185C  504D               	movf	ProcessUSB@numBytesRead^0,w,c
  6840   00185E  B4D8               	btfsc	status,2,c
  6841   001860  EF34  F00C         	goto	u3171
  6842   001864  EF36  F00C         	goto	u3170
  6843   001868                     u3171:
  6844   001868  EF89  F00C         	goto	l4329
  6845   00186C                     u3170:
  6846   00186C                     
  6847                           ;main.c: 144:                for (i=0 ; i<numBytesRead ; i++) {
  6848   00186C  0E00               	movlw	0
  6849   00186E  6E4E               	movwf	ProcessUSB@i^0,c
  6850   001870  EF78  F00C         	goto	l4325
  6851   001874                     l4315:
  6852                           
  6853                           ;main.c: 148:                               USB_In_Buffer[i] = USB_Out_Buffer[i] ;
  6854   001874  0E00               	movlw	low _USB_Out_Buffer
  6855   001876  244E               	addwf	ProcessUSB@i^0,w,c
  6856   001878  6ED9               	movwf	fsr2l,c
  6857   00187A  6ADA               	clrf	fsr2h,c
  6858   00187C  0E01               	movlw	high _USB_Out_Buffer
  6859   00187E  22DA               	addwfc	fsr2h,f,c
  6860   001880  0E40               	movlw	low _USB_In_Buffer
  6861   001882  244E               	addwf	ProcessUSB@i^0,w,c
  6862   001884  6EE1               	movwf	fsr1l,c
  6863   001886  6AE2               	clrf	fsr1h,c
  6864   001888  0E01               	movlw	high _USB_In_Buffer
  6865   00188A  22E2               	addwfc	fsr1h,f,c
  6866   00188C  CFDF FFE7          	movff	indf2,indf1
  6867                           
  6868                           ;main.c: 149:                               break ;
  6869   001890  EF77  F00C         	goto	l4323
  6870   001894                     l4317:
  6871                           
  6872                           ;main.c: 151:                               USB_In_Buffer[i] = USB_Out_Buffer[i] + 1 ;
  6873   001894  0E40               	movlw	low _USB_In_Buffer
  6874   001896  244E               	addwf	ProcessUSB@i^0,w,c
  6875   001898  6ED9               	movwf	fsr2l,c
  6876   00189A  6ADA               	clrf	fsr2h,c
  6877   00189C  0E01               	movlw	high _USB_In_Buffer
  6878   00189E  22DA               	addwfc	fsr2h,f,c
  6879   0018A0  0E00               	movlw	low _USB_Out_Buffer
  6880   0018A2  244E               	addwf	ProcessUSB@i^0,w,c
  6881   0018A4  6EE1               	movwf	fsr1l,c
  6882   0018A6  6AE2               	clrf	fsr1h,c
  6883   0018A8  0E01               	movlw	high _USB_Out_Buffer
  6884   0018AA  22E2               	addwfc	fsr1h,f,c
  6885   0018AC  50E7               	movf	indf1,w,c
  6886   0018AE  6E4B               	movwf	??_ProcessUSB^0,c
  6887   0018B0  284B               	incf	??_ProcessUSB^0,w,c
  6888   0018B2  6EDF               	movwf	indf2,c
  6889                           
  6890                           ;main.c: 152:                               break ;
  6891   0018B4  EF77  F00C         	goto	l4323
  6892   0018B8                     l4321:
  6893   0018B8  0E00               	movlw	low _USB_Out_Buffer
  6894   0018BA  244E               	addwf	ProcessUSB@i^0,w,c
  6895   0018BC  6ED9               	movwf	fsr2l,c
  6896   0018BE  6ADA               	clrf	fsr2h,c
  6897   0018C0  0E01               	movlw	high _USB_Out_Buffer
  6898   0018C2  22DA               	addwfc	fsr2h,f,c
  6899   0018C4  50DF               	movf	indf2,w,c
  6900   0018C6  6E4B               	movwf	??_ProcessUSB^0,c
  6901   0018C8  6A4C               	clrf	(??_ProcessUSB+1)^0,c
  6902                           
  6903                           ; Switch on 2 bytes has been partitioned into a top level switch of size 1, and 1 sub-sw
      +                          itches
  6904                           ; Switch size 1, requested type "simple"
  6905                           ; Number of cases is 1, Range of values is 0 to 0
  6906                           ; switch strategies available:
  6907                           ; Name         Instructions Cycles
  6908                           ; simple_byte            4     3 (average)
  6909                           ;	Chosen strategy is simple_byte
  6910   0018CA  504C               	movf	(??_ProcessUSB+1)^0,w,c
  6911   0018CC  0A00               	xorlw	0	; case 0
  6912   0018CE  B4D8               	btfsc	status,2,c
  6913   0018D0  EF6C  F00C         	goto	l4805
  6914   0018D4  EF4A  F00C         	goto	l4317
  6915   0018D8                     l4805:
  6916                           
  6917                           ; Switch size 1, requested type "simple"
  6918                           ; Number of cases is 2, Range of values is 10 to 13
  6919                           ; switch strategies available:
  6920                           ; Name         Instructions Cycles
  6921                           ; simple_byte            7     4 (average)
  6922                           ;	Chosen strategy is simple_byte
  6923   0018D8  504B               	movf	??_ProcessUSB^0,w,c
  6924   0018DA  0A0A               	xorlw	10	; case 10
  6925   0018DC  B4D8               	btfsc	status,2,c
  6926   0018DE  EF3A  F00C         	goto	l4315
  6927   0018E2  0A07               	xorlw	7	; case 13
  6928   0018E4  B4D8               	btfsc	status,2,c
  6929   0018E6  EF3A  F00C         	goto	l4315
  6930   0018EA  EF4A  F00C         	goto	l4317
  6931   0018EE                     l4323:
  6932                           
  6933                           ;main.c: 154:                }
  6934   0018EE  2A4E               	incf	ProcessUSB@i^0,f,c
  6935   0018F0                     l4325:
  6936   0018F0  504D               	movf	ProcessUSB@numBytesRead^0,w,c
  6937   0018F2  5C4E               	subwf	ProcessUSB@i^0,w,c
  6938   0018F4  A0D8               	btfss	status,0,c
  6939   0018F6  EF7F  F00C         	goto	u3181
  6940   0018FA  EF81  F00C         	goto	u3180
  6941   0018FE                     u3181:
  6942   0018FE  EF5C  F00C         	goto	l4321
  6943   001902                     u3180:
  6944   001902                     
  6945                           ;main.c: 156:                putUSBUSART(USB_In_Buffer,numBytesRead) ;
  6946   001902  0E40               	movlw	low _USB_In_Buffer
  6947   001904  6E3C               	movwf	putUSBUSART@data^0,c
  6948   001906  0E01               	movlw	high _USB_In_Buffer
  6949   001908  6E3D               	movwf	(putUSBUSART@data+1)^0,c
  6950   00190A  C04D  F03E         	movff	ProcessUSB@numBytesRead,putUSBUSART@length
  6951   00190E  EC3E  F012         	call	_putUSBUSART	;wreg free
  6952   001912                     l4329:
  6953                           
  6954                           ;main.c: 161:     CDCTxService() ;
  6955   001912  ECC2  F004         	call	_CDCTxService	;wreg free
  6956   001916                     l200:
  6957   001916  0012               	return		;funcret
  6958   001918                     __end_of_ProcessUSB:
  6959                           	callstack 0
  6960                           
  6961 ;; *************** function _putUSBUSART *****************
  6962 ;; Defined at:
  6963 ;;		line 557 in file "usb_device_cdc.c"
  6964 ;; Parameters:    Size  Location     Type
  6965 ;;  data            2    0[COMRAM] PTR unsigned char 
  6966 ;;		 -> USB_In_Buffer(64), writeBuffer(64), 
  6967 ;;  length          1    2[COMRAM] unsigned char 
  6968 ;; Auto vars:     Size  Location     Type
  6969 ;;		None
  6970 ;; Return value:  Size  Location     Type
  6971 ;;                  1    wreg      void 
  6972 ;; Registers used:
  6973 ;;		wreg, status,2, status,0
  6974 ;; Tracked objects:
  6975 ;;		On entry : 0/0
  6976 ;;		On exit  : 0/0
  6977 ;;		Unchanged: 0/0
  6978 ;; Data sizes:     COMRAM   BANK0   BANK1   BANK2
  6979 ;;      Params:         3       0       0       0
  6980 ;;      Locals:         0       0       0       0
  6981 ;;      Temps:          0       0       0       0
  6982 ;;      Totals:         3       0       0       0
  6983 ;;Total ram usage:        3 bytes
  6984 ;; Hardware stack levels used: 1
  6985 ;; Hardware stack levels required when called: 1
  6986 ;; This function calls:
  6987 ;;		Nothing
  6988 ;; This function is called by:
  6989 ;;		_ProcessUSB
  6990 ;;		_APP_DeviceCDCBasicDemoTasks
  6991 ;; This function uses a non-reentrant model
  6992 ;;
  6993                           
  6994                           	psect	text36
  6995   00247C                     __ptext36:
  6996                           	callstack 0
  6997   00247C                     _putUSBUSART:
  6998                           	callstack 28
  6999   00247C                     
  7000                           ;usb_device_cdc.c: 557: void putUSBUSART(uint8_t *data, uint8_t length);usb_device_cdc.c
      +                          : 558: {;usb_device_cdc.c: 583:     if(cdc_trf_state == 0)
  7001   00247C  5036               	movf	_cdc_trf_state^0,w,c
  7002   00247E  A4D8               	btfss	status,2,c
  7003   002480  EF44  F012         	goto	u2641
  7004   002484  EF46  F012         	goto	u2640
  7005   002488                     u2641:
  7006   002488  EF50  F012         	goto	l706
  7007   00248C                     u2640:
  7008   00248C                     
  7009                           ;usb_device_cdc.c: 584:     {;usb_device_cdc.c: 585:         { pCDCSrc.bRam = (uint8_t*)
      +                          data; cdc_tx_len = length; cdc_mem_type = 0x01; cdc_trf_state = 1; };
  7010   00248C  C03C  F07B         	movff	putUSBUSART@data,_pCDCSrc
  7011   002490  C03D  F07C         	movff	putUSBUSART@data+1,_pCDCSrc+1
  7012   002494  C03E  F026         	movff	putUSBUSART@length,_cdc_tx_len
  7013   002498  0E01               	movlw	1
  7014   00249A  6E25               	movwf	_cdc_mem_type^0,c
  7015   00249C  0E01               	movlw	1
  7016   00249E  6E36               	movwf	_cdc_trf_state^0,c
  7017   0024A0                     l706:
  7018   0024A0  0012               	return		;funcret
  7019   0024A2                     __end_of_putUSBUSART:
  7020                           	callstack 0
  7021                           
  7022 ;; *************** function _getsUSBUSART *****************
  7023 ;; Defined at:
  7024 ;;		line 486 in file "usb_device_cdc.c"
  7025 ;; Parameters:    Size  Location     Type
  7026 ;;  buffer          2   11[COMRAM] PTR unsigned char 
  7027 ;;		 -> USB_Out_Buffer(64), readBuffer(64), 
  7028 ;;  len             1   13[COMRAM] unsigned char 
  7029 ;; Auto vars:     Size  Location     Type
  7030 ;;		None
  7031 ;; Return value:  Size  Location     Type
  7032 ;;                  1    wreg      unsigned char 
  7033 ;; Registers used:
  7034 ;;		wreg, fsr1l, fsr1h, fsr2l, fsr2h, status,2, status,0, prodl, prodh, cstack
  7035 ;; Tracked objects:
  7036 ;;		On entry : 0/0
  7037 ;;		On exit  : 0/0
  7038 ;;		Unchanged: 0/0
  7039 ;; Data sizes:     COMRAM   BANK0   BANK1   BANK2
  7040 ;;      Params:         3       0       0       0
  7041 ;;      Locals:         0       0       0       0
  7042 ;;      Temps:          1       0       0       0
  7043 ;;      Totals:         4       0       0       0
  7044 ;;Total ram usage:        4 bytes
  7045 ;; Hardware stack levels used: 1
  7046 ;; Hardware stack levels required when called: 2
  7047 ;; This function calls:
  7048 ;;		_USBTransferOnePacket
  7049 ;; This function is called by:
  7050 ;;		_ProcessUSB
  7051 ;;		_APP_DeviceCDCBasicDemoTasks
  7052 ;; This function uses a non-reentrant model
  7053 ;;
  7054                           
  7055                           	psect	text37
  7056   001C94                     __ptext37:
  7057                           	callstack 0
  7058   001C94                     _getsUSBUSART:
  7059                           	callstack 27
  7060   001C94                     
  7061                           ;usb_device_cdc.c: 486: uint8_t getsUSBUSART(uint8_t *buffer, uint8_t len);usb_device_cd
      +                          c.c: 487: {;usb_device_cdc.c: 488:     cdc_rx_len = 0;
  7062   001C94  0E00               	movlw	0
  7063   001C96  6E27               	movwf	_cdc_rx_len^0,c
  7064   001C98                     
  7065                           ;usb_device_cdc.c: 490:     if(!((CDCDataOutHandle != 0x0000) && ((*(volatile uint8_t*)C
      +                          DCDataOutHandle & 0x80) != 0x00)))
  7066   001C98  501A               	movf	_CDCDataOutHandle^0,w,c
  7067   001C9A  101B               	iorwf	(_CDCDataOutHandle+1)^0,w,c
  7068   001C9C  B4D8               	btfsc	status,2,c
  7069   001C9E  EF53  F00E         	goto	u2601
  7070   001CA2  EF55  F00E         	goto	u2600
  7071   001CA6                     u2601:
  7072   001CA6  EF60  F00E         	goto	l3953
  7073   001CAA                     u2600:
  7074   001CAA  C01A  FFD9         	movff	_CDCDataOutHandle,fsr2l
  7075   001CAE  C01B  FFDA         	movff	_CDCDataOutHandle+1,fsr2h
  7076   001CB2  BEDF               	btfsc	indf2,7,c
  7077   001CB4  EF5E  F00E         	goto	u2611
  7078   001CB8  EF60  F00E         	goto	u2610
  7079   001CBC                     u2611:
  7080   001CBC  EFA2  F00E         	goto	l3967
  7081   001CC0                     u2610:
  7082   001CC0                     l3953:
  7083                           
  7084                           ;usb_device_cdc.c: 491:     {;usb_device_cdc.c: 496:         if(len > (((volatile BDT_EN
      +                          TRY*)CDCDataOutHandle)->CNT))
  7085   001CC0  EE20 F001          	lfsr	2,1
  7086   001CC4  501A               	movf	_CDCDataOutHandle^0,w,c
  7087   001CC6  26D9               	addwf	fsr2l,f,c
  7088   001CC8  501B               	movf	(_CDCDataOutHandle+1)^0,w,c
  7089   001CCA  22DA               	addwfc	fsr2h,f,c
  7090   001CCC  5049               	movf	getsUSBUSART@len^0,w,c
  7091   001CCE  5CDE               	subwf	postinc2,w,c
  7092   001CD0  B0D8               	btfsc	status,0,c
  7093   001CD2  EF6D  F00E         	goto	u2621
  7094   001CD6  EF6F  F00E         	goto	u2620
  7095   001CDA                     u2621:
  7096   001CDA  EF77  F00E         	goto	l3957
  7097   001CDE                     u2620:
  7098   001CDE                     
  7099                           ;usb_device_cdc.c: 497:             len = (((volatile BDT_ENTRY*)CDCDataOutHandle)->CNT)
      +                          ;
  7100   001CDE  EE20 F001          	lfsr	2,1
  7101   001CE2  501A               	movf	_CDCDataOutHandle^0,w,c
  7102   001CE4  26D9               	addwf	fsr2l,f,c
  7103   001CE6  501B               	movf	(_CDCDataOutHandle+1)^0,w,c
  7104   001CE8  22DA               	addwfc	fsr2h,f,c
  7105   001CEA  50DF               	movf	indf2,w,c
  7106   001CEC  6E49               	movwf	getsUSBUSART@len^0,c
  7107   001CEE                     l3957:
  7108                           
  7109                           ;usb_device_cdc.c: 502:         for(cdc_rx_len = 0; cdc_rx_len < len; cdc_rx_len++)
  7110   001CEE  0E00               	movlw	0
  7111   001CF0  6E27               	movwf	_cdc_rx_len^0,c
  7112   001CF2  EF8A  F00E         	goto	l3963
  7113   001CF6                     l3959:
  7114                           
  7115                           ;usb_device_cdc.c: 503:             buffer[cdc_rx_len] = cdc_data_rx[cdc_rx_len];
  7116   001CF6  0E80               	movlw	128
  7117   001CF8  2427               	addwf	_cdc_rx_len^0,w,c
  7118   001CFA  6ED9               	movwf	fsr2l,c
  7119   001CFC  6ADA               	clrf	fsr2h,c
  7120   001CFE  0E02               	movlw	2
  7121   001D00  22DA               	addwfc	fsr2h,f,c
  7122   001D02  5027               	movf	_cdc_rx_len^0,w,c
  7123   001D04  2447               	addwf	getsUSBUSART@buffer^0,w,c
  7124   001D06  6EE1               	movwf	fsr1l,c
  7125   001D08  0E00               	movlw	0
  7126   001D0A  2048               	addwfc	(getsUSBUSART@buffer+1)^0,w,c
  7127   001D0C  6EE2               	movwf	fsr1h,c
  7128   001D0E  CFDF FFE7          	movff	indf2,indf1
  7129   001D12  2A27               	incf	_cdc_rx_len^0,f,c
  7130   001D14                     l3963:
  7131   001D14  5049               	movf	getsUSBUSART@len^0,w,c
  7132   001D16  5C27               	subwf	_cdc_rx_len^0,w,c
  7133   001D18  A0D8               	btfss	status,0,c
  7134   001D1A  EF91  F00E         	goto	u2631
  7135   001D1E  EF93  F00E         	goto	u2630
  7136   001D22                     u2631:
  7137   001D22  EF7B  F00E         	goto	l3959
  7138   001D26                     u2630:
  7139   001D26                     
  7140                           ;usb_device_cdc.c: 509:         CDCDataOutHandle = USBTransferOnePacket(2,0,(uint8_t*)&c
      +                          dc_data_rx,sizeof(cdc_data_rx));
  7141   001D26  0E00               	movlw	0
  7142   001D28  6E3C               	movwf	USBTransferOnePacket@dir^0,c
  7143   001D2A  0E80               	movlw	128
  7144   001D2C  6E3D               	movwf	USBTransferOnePacket@data^0,c
  7145   001D2E  0E02               	movlw	2
  7146   001D30  6E3E               	movwf	(USBTransferOnePacket@data+1)^0,c
  7147   001D32  0E40               	movlw	64
  7148   001D34  6E3F               	movwf	USBTransferOnePacket@len^0,c
  7149   001D36  0E02               	movlw	2
  7150   001D38  ECD0  F008         	call	_USBTransferOnePacket
  7151   001D3C  C03C  F01A         	movff	?_USBTransferOnePacket,_CDCDataOutHandle
  7152   001D40  C03D  F01B         	movff	?_USBTransferOnePacket+1,_CDCDataOutHandle+1
  7153   001D44                     l3967:
  7154                           
  7155                           ;usb_device_cdc.c: 513:     return cdc_rx_len;
  7156   001D44  5027               	movf	_cdc_rx_len^0,w,c
  7157   001D46  0012               	return		;funcret
  7158   001D48                     __end_of_getsUSBUSART:
  7159                           	callstack 0
  7160                           
  7161 ;; *************** function _CDCTxService *****************
  7162 ;; Defined at:
  7163 ;;		line 837 in file "usb_device_cdc.c"
  7164 ;; Parameters:    Size  Location     Type
  7165 ;;		None
  7166 ;; Auto vars:     Size  Location     Type
  7167 ;;  byte_to_send    1   12[COMRAM] unsigned char 
  7168 ;;  i               1   11[COMRAM] unsigned char 
  7169 ;; Return value:  Size  Location     Type
  7170 ;;                  1    wreg      void 
  7171 ;; Registers used:
  7172 ;;		wreg, fsr1l, fsr1h, fsr2l, fsr2h, status,2, status,0, prodl, prodh, cstack
  7173 ;; Tracked objects:
  7174 ;;		On entry : 0/0
  7175 ;;		On exit  : 0/0
  7176 ;;		Unchanged: 0/0
  7177 ;; Data sizes:     COMRAM   BANK0   BANK1   BANK2
  7178 ;;      Params:         0       0       0       0
  7179 ;;      Locals:         2       0       0       0
  7180 ;;      Temps:          0       0       0       0
  7181 ;;      Totals:         2       0       0       0
  7182 ;;Total ram usage:        2 bytes
  7183 ;; Hardware stack levels used: 1
  7184 ;; Hardware stack levels required when called: 2
  7185 ;; This function calls:
  7186 ;;		_USBTransferOnePacket
  7187 ;; This function is called by:
  7188 ;;		_ProcessUSB
  7189 ;;		_APP_DeviceCDCBasicDemoTasks
  7190 ;; This function uses a non-reentrant model
  7191 ;;
  7192                           
  7193                           	psect	text38
  7194   000984                     __ptext38:
  7195                           	callstack 0
  7196   000984                     _CDCTxService:
  7197                           	callstack 27
  7198   000984                     
  7199                           ;usb_device_cdc.c: 839:     uint8_t byte_to_send;;usb_device_cdc.c: 840:     uint8_t i;;
      +                          usb_device_cdc.c: 844:     {};;usb_device_cdc.c: 846:     if(((CDCDataInHandle != 0x0000
      +                          ) && ((*(volatile uint8_t*)CDCDataInHandle & 0x80) != 0x00)))
  7200   000984  5018               	movf	_CDCDataInHandle^0,w,c
  7201   000986  1019               	iorwf	(_CDCDataInHandle+1)^0,w,c
  7202   000988  B4D8               	btfsc	status,2,c
  7203   00098A  EFC9  F004         	goto	u2651
  7204   00098E  EFCB  F004         	goto	u2650
  7205   000992                     u2651:
  7206   000992  EFD8  F004         	goto	l3987
  7207   000996                     u2650:
  7208   000996  C018  FFD9         	movff	_CDCDataInHandle,fsr2l
  7209   00099A  C019  FFDA         	movff	_CDCDataInHandle+1,fsr2h
  7210   00099E  AEDF               	btfss	indf2,7,c
  7211   0009A0  EFD4  F004         	goto	u2661
  7212   0009A4  EFD6  F004         	goto	u2660
  7213   0009A8                     u2661:
  7214   0009A8  EFD8  F004         	goto	l3987
  7215   0009AC                     u2660:
  7216   0009AC  EF89  F005         	goto	l724
  7217   0009B0                     l3987:
  7218                           
  7219                           ;usb_device_cdc.c: 857:     if(cdc_trf_state == 3)
  7220   0009B0  0E03               	movlw	3
  7221   0009B2  1836               	xorwf	_cdc_trf_state^0,w,c
  7222   0009B4  A4D8               	btfss	status,2,c
  7223   0009B6  EFDF  F004         	goto	u2671
  7224   0009BA  EFE1  F004         	goto	u2670
  7225   0009BE                     u2671:
  7226   0009BE  EFE3  F004         	goto	l725
  7227   0009C2                     u2670:
  7228   0009C2                     
  7229                           ;usb_device_cdc.c: 858:         cdc_trf_state = 0;
  7230   0009C2  0E00               	movlw	0
  7231   0009C4  6E36               	movwf	_cdc_trf_state^0,c
  7232   0009C6                     l725:
  7233                           
  7234                           ;usb_device_cdc.c: 863:     if(cdc_trf_state == 0)
  7235   0009C6  5036               	movf	_cdc_trf_state^0,w,c
  7236   0009C8  A4D8               	btfss	status,2,c
  7237   0009CA  EFE9  F004         	goto	u2681
  7238   0009CE  EFEB  F004         	goto	u2680
  7239   0009D2                     u2681:
  7240   0009D2  EFED  F004         	goto	l3993
  7241   0009D6                     u2680:
  7242   0009D6  EF89  F005         	goto	l724
  7243   0009DA                     l3993:
  7244                           
  7245                           ;usb_device_cdc.c: 872:     if(cdc_trf_state == 2)
  7246   0009DA  0E02               	movlw	2
  7247   0009DC  1836               	xorwf	_cdc_trf_state^0,w,c
  7248   0009DE  A4D8               	btfss	status,2,c
  7249   0009E0  EFF4  F004         	goto	u2691
  7250   0009E4  EFF6  F004         	goto	u2690
  7251   0009E8                     u2691:
  7252   0009E8  EF09  F005         	goto	l3999
  7253   0009EC                     u2690:
  7254   0009EC                     
  7255                           ;usb_device_cdc.c: 873:     {;usb_device_cdc.c: 874:         CDCDataInHandle = USBTransf
      +                          erOnePacket(2,1,((void*)0),0);
  7256   0009EC  0E01               	movlw	1
  7257   0009EE  6E3C               	movwf	USBTransferOnePacket@dir^0,c
  7258   0009F0  0E00               	movlw	0
  7259   0009F2  6E3D               	movwf	USBTransferOnePacket@data^0,c
  7260   0009F4  0E00               	movlw	0
  7261   0009F6  6E3E               	movwf	(USBTransferOnePacket@data+1)^0,c
  7262   0009F8  0E00               	movlw	0
  7263   0009FA  6E3F               	movwf	USBTransferOnePacket@len^0,c
  7264   0009FC  0E02               	movlw	2
  7265   0009FE  ECD0  F008         	call	_USBTransferOnePacket
  7266   000A02  C03C  F018         	movff	?_USBTransferOnePacket,_CDCDataInHandle
  7267   000A06  C03D  F019         	movff	?_USBTransferOnePacket+1,_CDCDataInHandle+1
  7268   000A0A                     
  7269                           ;usb_device_cdc.c: 876:         cdc_trf_state = 3;
  7270   000A0A  0E03               	movlw	3
  7271   000A0C  6E36               	movwf	_cdc_trf_state^0,c
  7272                           
  7273                           ;usb_device_cdc.c: 877:     }
  7274   000A0E  EF89  F005         	goto	l724
  7275   000A12                     l3999:
  7276   000A12  0436               	decf	_cdc_trf_state^0,w,c
  7277   000A14  A4D8               	btfss	status,2,c
  7278   000A16  EF0F  F005         	goto	u2701
  7279   000A1A  EF11  F005         	goto	u2700
  7280   000A1E                     u2701:
  7281   000A1E  EF89  F005         	goto	l724
  7282   000A22                     u2700:
  7283   000A22                     
  7284                           ;usb_device_cdc.c: 879:     {;usb_device_cdc.c: 883:      if(cdc_tx_len > sizeof(cdc_dat
      +                          a_tx))
  7285   000A22  0E40               	movlw	64
  7286   000A24  6426               	cpfsgt	_cdc_tx_len^0,c
  7287   000A26  EF17  F005         	goto	u2711
  7288   000A2A  EF19  F005         	goto	u2710
  7289   000A2E                     u2711:
  7290   000A2E  EF1D  F005         	goto	l730
  7291   000A32                     u2710:
  7292   000A32                     
  7293                           ;usb_device_cdc.c: 884:          byte_to_send = sizeof(cdc_data_tx);
  7294   000A32  0E40               	movlw	64
  7295   000A34  6E48               	movwf	CDCTxService@byte_to_send^0,c
  7296   000A36  EF1F  F005         	goto	l4005
  7297   000A3A                     l730:
  7298                           
  7299                           ;usb_device_cdc.c: 886:          byte_to_send = cdc_tx_len;
  7300   000A3A  C026  F048         	movff	_cdc_tx_len,CDCTxService@byte_to_send
  7301   000A3E                     l4005:
  7302                           
  7303                           ;usb_device_cdc.c: 891:      cdc_tx_len = cdc_tx_len - byte_to_send;
  7304   000A3E  5048               	movf	CDCTxService@byte_to_send^0,w,c
  7305   000A40  5C26               	subwf	_cdc_tx_len^0,w,c
  7306   000A42  6E26               	movwf	_cdc_tx_len^0,c
  7307                           
  7308                           ;usb_device_cdc.c: 893:         pCDCDst.bRam = (uint8_t*)&cdc_data_tx;
  7309   000A44  0E40               	movlw	64
  7310   000A46  0100               	movlb	0	; () banked
  7311   000A48  6F78               	movwf	_pCDCDst& (0+255),b
  7312   000A4A  0E02               	movlw	2
  7313   000A4C  6F79               	movwf	(_pCDCDst+1)& (0+255),b
  7314   000A4E                     
  7315                           ; BSR set to: 0
  7316                           ;usb_device_cdc.c: 895:         i = byte_to_send;
  7317   000A4E  C048  F047         	movff	CDCTxService@byte_to_send,CDCTxService@i
  7318   000A52                     
  7319                           ; BSR set to: 0
  7320                           ;usb_device_cdc.c: 896:         if(cdc_mem_type == 0x00)
  7321   000A52  5025               	movf	_cdc_mem_type^0,w,c
  7322   000A54  A4D8               	btfss	status,2,c
  7323   000A56  EF2F  F005         	goto	u2721
  7324   000A5A  EF31  F005         	goto	u2720
  7325   000A5E                     u2721:
  7326   000A5E  EF5B  F005         	goto	l4031
  7327   000A62                     u2720:
  7328   000A62  EF42  F005         	goto	l4021
  7329   000A66                     l4013:
  7330                           
  7331                           ; BSR set to: 0
  7332                           ;usb_device_cdc.c: 899:             {;usb_device_cdc.c: 900:                 *pCDCDst.bR
      +                          am = *pCDCSrc.bRom;
  7333   000A66  C07B  FFD9         	movff	_pCDCSrc,fsr2l
  7334   000A6A  C07C  FFDA         	movff	_pCDCSrc+1,fsr2h
  7335   000A6E  C078  FFE1         	movff	_pCDCDst,fsr1l
  7336   000A72  C079  FFE2         	movff	_pCDCDst+1,fsr1h
  7337   000A76  CFDF FFE7          	movff	indf2,indf1
  7338   000A7A                     
  7339                           ; BSR set to: 0
  7340                           ;usb_device_cdc.c: 901:                 pCDCDst.bRam++;
  7341   000A7A  4B78               	infsnz	_pCDCDst& (0+255),f,b
  7342   000A7C  2B79               	incf	(_pCDCDst+1)& (0+255),f,b
  7343   000A7E                     
  7344                           ; BSR set to: 0
  7345                           ;usb_device_cdc.c: 902:                 pCDCSrc.bRom++;
  7346   000A7E  4B7B               	infsnz	_pCDCSrc& (0+255),f,b
  7347   000A80  2B7C               	incf	(_pCDCSrc+1)& (0+255),f,b
  7348   000A82                     
  7349                           ; BSR set to: 0
  7350                           ;usb_device_cdc.c: 903:                 i--;
  7351   000A82  0647               	decf	CDCTxService@i^0,f,c
  7352   000A84                     l4021:
  7353                           
  7354                           ; BSR set to: 0
  7355                           ;usb_device_cdc.c: 898:             while(i)
  7356   000A84  5047               	movf	CDCTxService@i^0,w,c
  7357   000A86  A4D8               	btfss	status,2,c
  7358   000A88  EF48  F005         	goto	u2731
  7359   000A8C  EF4A  F005         	goto	u2730
  7360   000A90                     u2731:
  7361   000A90  EF33  F005         	goto	l4013
  7362   000A94                     u2730:
  7363   000A94  EF63  F005         	goto	l4033
  7364   000A98                     l4023:
  7365                           
  7366                           ; BSR set to: 0
  7367                           ;usb_device_cdc.c: 909:             {;usb_device_cdc.c: 910:                 *pCDCDst.bR
      +                          am = *pCDCSrc.bRam;
  7368   000A98  C07B  FFD9         	movff	_pCDCSrc,fsr2l
  7369   000A9C  C07C  FFDA         	movff	_pCDCSrc+1,fsr2h
  7370   000AA0  C078  FFE1         	movff	_pCDCDst,fsr1l
  7371   000AA4  C079  FFE2         	movff	_pCDCDst+1,fsr1h
  7372   000AA8  CFDF FFE7          	movff	indf2,indf1
  7373   000AAC                     
  7374                           ; BSR set to: 0
  7375                           ;usb_device_cdc.c: 911:                 pCDCDst.bRam++;
  7376   000AAC  4B78               	infsnz	_pCDCDst& (0+255),f,b
  7377   000AAE  2B79               	incf	(_pCDCDst+1)& (0+255),f,b
  7378   000AB0                     
  7379                           ; BSR set to: 0
  7380                           ;usb_device_cdc.c: 912:                 pCDCSrc.bRam++;
  7381   000AB0  4B7B               	infsnz	_pCDCSrc& (0+255),f,b
  7382   000AB2  2B7C               	incf	(_pCDCSrc+1)& (0+255),f,b
  7383   000AB4                     
  7384                           ; BSR set to: 0
  7385                           ;usb_device_cdc.c: 913:                 i--;
  7386   000AB4  0647               	decf	CDCTxService@i^0,f,c
  7387   000AB6                     l4031:
  7388                           
  7389                           ; BSR set to: 0
  7390                           ;usb_device_cdc.c: 908:             while(i)
  7391   000AB6  5047               	movf	CDCTxService@i^0,w,c
  7392   000AB8  A4D8               	btfss	status,2,c
  7393   000ABA  EF61  F005         	goto	u2741
  7394   000ABE  EF63  F005         	goto	u2740
  7395   000AC2                     u2741:
  7396   000AC2  EF4C  F005         	goto	l4023
  7397   000AC6                     u2740:
  7398   000AC6                     l4033:
  7399                           
  7400                           ; BSR set to: 0
  7401                           ;usb_device_cdc.c: 921:         if(cdc_tx_len == 0)
  7402   000AC6  5026               	movf	_cdc_tx_len^0,w,c
  7403   000AC8  A4D8               	btfss	status,2,c
  7404   000ACA  EF69  F005         	goto	u2751
  7405   000ACE  EF6B  F005         	goto	u2750
  7406   000AD2                     u2751:
  7407   000AD2  EF7A  F005         	goto	l4041
  7408   000AD6                     u2750:
  7409   000AD6                     
  7410                           ; BSR set to: 0
  7411                           ;usb_device_cdc.c: 922:         {;usb_device_cdc.c: 923:             if(byte_to_send == 
      +                          64)
  7412   000AD6  0E40               	movlw	64
  7413   000AD8  1848               	xorwf	CDCTxService@byte_to_send^0,w,c
  7414   000ADA  A4D8               	btfss	status,2,c
  7415   000ADC  EF72  F005         	goto	u2761
  7416   000AE0  EF74  F005         	goto	u2760
  7417   000AE4                     u2761:
  7418   000AE4  EF78  F005         	goto	l4039
  7419   000AE8                     u2760:
  7420   000AE8                     
  7421                           ; BSR set to: 0
  7422                           ;usb_device_cdc.c: 924:                 cdc_trf_state = 2;
  7423   000AE8  0E02               	movlw	2
  7424   000AEA  6E36               	movwf	_cdc_trf_state^0,c
  7425   000AEC  EF7A  F005         	goto	l4041
  7426   000AF0                     l4039:
  7427                           
  7428                           ; BSR set to: 0
  7429                           ;usb_device_cdc.c: 926:                 cdc_trf_state = 3;
  7430   000AF0  0E03               	movlw	3
  7431   000AF2  6E36               	movwf	_cdc_trf_state^0,c
  7432   000AF4                     l4041:
  7433                           
  7434                           ; BSR set to: 0
  7435                           ;usb_device_cdc.c: 928:         CDCDataInHandle = USBTransferOnePacket(2,1,(uint8_t*)&cd
      +                          c_data_tx,byte_to_send);
  7436   000AF4  0E01               	movlw	1
  7437   000AF6  6E3C               	movwf	USBTransferOnePacket@dir^0,c
  7438   000AF8  0E40               	movlw	64
  7439   000AFA  6E3D               	movwf	USBTransferOnePacket@data^0,c
  7440   000AFC  0E02               	movlw	2
  7441   000AFE  6E3E               	movwf	(USBTransferOnePacket@data+1)^0,c
  7442   000B00  C048  F03F         	movff	CDCTxService@byte_to_send,USBTransferOnePacket@len
  7443   000B04  0E02               	movlw	2
  7444   000B06  ECD0  F008         	call	_USBTransferOnePacket
  7445   000B0A  C03C  F018         	movff	?_USBTransferOnePacket,_CDCDataInHandle
  7446   000B0E  C03D  F019         	movff	?_USBTransferOnePacket+1,_CDCDataInHandle+1
  7447   000B12                     l724:
  7448   000B12  0012               	return		;funcret
  7449   000B14                     __end_of_CDCTxService:
  7450                           	callstack 0
  7451                           
  7452 ;; *************** function _USBTransferOnePacket *****************
  7453 ;; Defined at:
  7454 ;;		line 999 in file "usb_device.c"
  7455 ;; Parameters:    Size  Location     Type
  7456 ;;  ep              1    wreg     unsigned char 
  7457 ;;  dir             1    0[COMRAM] unsigned char 
  7458 ;;  data            2    1[COMRAM] PTR unsigned char 
  7459 ;;		 -> cdc_data_tx(64), cdc_data_rx(64), NULL(0), 
  7460 ;;  len             1    3[COMRAM] unsigned char 
  7461 ;; Auto vars:     Size  Location     Type
  7462 ;;  ep              1    8[COMRAM] unsigned char 
  7463 ;;  handle          2    9[COMRAM] PTR volatile struct __BD
  7464 ;;		 -> RAM(767), NULL(0), BDT(48), 
  7465 ;; Return value:  Size  Location     Type
  7466 ;;                  2    0[COMRAM] PTR void 
  7467 ;; Registers used:
  7468 ;;		wreg, fsr2l, fsr2h, status,2, status,0, prodl, prodh
  7469 ;; Tracked objects:
  7470 ;;		On entry : 0/0
  7471 ;;		On exit  : 0/0
  7472 ;;		Unchanged: 0/0
  7473 ;; Data sizes:     COMRAM   BANK0   BANK1   BANK2
  7474 ;;      Params:         4       0       0       0
  7475 ;;      Locals:         3       0       0       0
  7476 ;;      Temps:          4       0       0       0
  7477 ;;      Totals:        11       0       0       0
  7478 ;;Total ram usage:       11 bytes
  7479 ;; Hardware stack levels used: 1
  7480 ;; Hardware stack levels required when called: 1
  7481 ;; This function calls:
  7482 ;;		Nothing
  7483 ;; This function is called by:
  7484 ;;		_CDCInitEP
  7485 ;;		_getsUSBUSART
  7486 ;;		_CDCTxService
  7487 ;;		_USBCDCEventHandler
  7488 ;; This function uses a non-reentrant model
  7489 ;;
  7490                           
  7491                           	psect	text39
  7492   0011A0                     __ptext39:
  7493                           	callstack 0
  7494   0011A0                     _USBTransferOnePacket:
  7495                           	callstack 26
  7496                           
  7497                           ;incstack = 0
  7498                           ;USBTransferOnePacket@ep stored from wreg
  7499   0011A0  6E44               	movwf	USBTransferOnePacket@ep^0,c
  7500   0011A2                     
  7501                           ;usb_device.c: 999: void* USBTransferOnePacket(uint8_t ep,uint8_t dir,uint8_t* data,uint
      +                          8_t len);usb_device.c: 1000: {;usb_device.c: 1001:     volatile BDT_ENTRY* handle;;usb_d
      +                          evice.c: 1004:     if(dir != 0)
  7502   0011A2  503C               	movf	USBTransferOnePacket@dir^0,w,c
  7503   0011A4  B4D8               	btfsc	status,2,c
  7504   0011A6  EFD7  F008         	goto	u1731
  7505   0011AA  EFD9  F008         	goto	u1730
  7506   0011AE                     u1731:
  7507   0011AE  EFE7  F008         	goto	l3221
  7508   0011B2                     u1730:
  7509   0011B2                     
  7510                           ;usb_device.c: 1005:     {;usb_device.c: 1007:         handle = pBDTEntryIn[ep];
  7511   0011B2  5044               	movf	USBTransferOnePacket@ep^0,w,c
  7512   0011B4  0D02               	mullw	2
  7513   0011B6  0E0F               	movlw	low _pBDTEntryIn
  7514   0011B8  24F3               	addwf	243,w,c
  7515   0011BA  6ED9               	movwf	fsr2l,c
  7516   0011BC  0E00               	movlw	high _pBDTEntryIn
  7517   0011BE  20F4               	addwfc	prodh,w,c
  7518   0011C0  6EDA               	movwf	fsr2h,c
  7519   0011C2  CFDE F045          	movff	postinc2,USBTransferOnePacket@handle
  7520   0011C6  CFDD F046          	movff	postdec2,USBTransferOnePacket@handle+1
  7521                           
  7522                           ;usb_device.c: 1008:     }
  7523   0011CA  EFF3  F008         	goto	l3223
  7524   0011CE                     l3221:
  7525                           
  7526                           ;usb_device.c: 1010:     {;usb_device.c: 1012:         handle = pBDTEntryOut[ep];
  7527   0011CE  5044               	movf	USBTransferOnePacket@ep^0,w,c
  7528   0011D0  0D02               	mullw	2
  7529   0011D2  0E6A               	movlw	low _pBDTEntryOut
  7530   0011D4  24F3               	addwf	243,w,c
  7531   0011D6  6ED9               	movwf	fsr2l,c
  7532   0011D8  0E00               	movlw	high _pBDTEntryOut
  7533   0011DA  20F4               	addwfc	prodh,w,c
  7534   0011DC  6EDA               	movwf	fsr2h,c
  7535   0011DE  CFDE F045          	movff	postinc2,USBTransferOnePacket@handle
  7536   0011E2  CFDD F046          	movff	postdec2,USBTransferOnePacket@handle+1
  7537   0011E6                     l3223:
  7538                           
  7539                           ;usb_device.c: 1017:     if(handle == 0)
  7540   0011E6  5045               	movf	USBTransferOnePacket@handle^0,w,c
  7541   0011E8  1046               	iorwf	(USBTransferOnePacket@handle+1)^0,w,c
  7542   0011EA  A4D8               	btfss	status,2,c
  7543   0011EC  EFFA  F008         	goto	u1741
  7544   0011F0  EFFC  F008         	goto	u1740
  7545   0011F4                     u1741:
  7546   0011F4  EF02  F009         	goto	l3229
  7547   0011F8                     u1740:
  7548   0011F8                     
  7549                           ;usb_device.c: 1018:     {;usb_device.c: 1019:         return 0;
  7550   0011F8  0E00               	movlw	0
  7551   0011FA  6E3C               	movwf	?_USBTransferOnePacket^0,c
  7552   0011FC  0E00               	movlw	0
  7553   0011FE  6E3D               	movwf	(?_USBTransferOnePacket+1)^0,c
  7554   001200  EF6E  F009         	goto	l421
  7555   001204                     l3229:
  7556                           
  7557                           ;usb_device.c: 1033:     handle->ADR = ((uint16_t)(data));
  7558   001204  EE20 F002          	lfsr	2,2
  7559   001208  5045               	movf	USBTransferOnePacket@handle^0,w,c
  7560   00120A  26D9               	addwf	fsr2l,f,c
  7561   00120C  5046               	movf	(USBTransferOnePacket@handle+1)^0,w,c
  7562   00120E  22DA               	addwfc	fsr2h,f,c
  7563   001210  C03D  FFDE         	movff	USBTransferOnePacket@data,postinc2
  7564   001214  C03E  FFDD         	movff	USBTransferOnePacket@data+1,postdec2
  7565                           
  7566                           ;usb_device.c: 1034:     handle->CNT = len;
  7567   001218  EE20 F001          	lfsr	2,1
  7568   00121C  5045               	movf	USBTransferOnePacket@handle^0,w,c
  7569   00121E  26D9               	addwf	fsr2l,f,c
  7570   001220  5046               	movf	(USBTransferOnePacket@handle+1)^0,w,c
  7571   001222  22DA               	addwfc	fsr2h,f,c
  7572   001224  C03F  FFDF         	movff	USBTransferOnePacket@len,indf2
  7573   001228                     
  7574                           ;usb_device.c: 1035:     handle->STAT.Val &= 0x40;
  7575   001228  C045  FFD9         	movff	USBTransferOnePacket@handle,fsr2l
  7576   00122C  C046  FFDA         	movff	USBTransferOnePacket@handle+1,fsr2h
  7577   001230  0E40               	movlw	64
  7578   001232  16DF               	andwf	indf2,f,c
  7579   001234                     
  7580                           ;usb_device.c: 1036:     handle->STAT.Val |= (0x08 & 0x08);
  7581   001234  C045  FFD9         	movff	USBTransferOnePacket@handle,fsr2l
  7582   001238  C046  FFDA         	movff	USBTransferOnePacket@handle+1,fsr2h
  7583   00123C  0E00               	movlw	0
  7584   00123E  86DB               	bsf	plusw2,3,c
  7585   001240                     
  7586                           ;usb_device.c: 1037:     handle->STAT.Val |= 0x80;
  7587   001240  C045  FFD9         	movff	USBTransferOnePacket@handle,fsr2l
  7588   001244  C046  FFDA         	movff	USBTransferOnePacket@handle+1,fsr2h
  7589   001248  0E00               	movlw	0
  7590   00124A  8EDB               	bsf	plusw2,7,c
  7591   00124C                     
  7592                           ;usb_device.c: 1040:     if(dir != 0)
  7593   00124C  503C               	movf	USBTransferOnePacket@dir^0,w,c
  7594   00124E  B4D8               	btfsc	status,2,c
  7595   001250  EF2C  F009         	goto	u1751
  7596   001254  EF2E  F009         	goto	u1750
  7597   001258                     u1751:
  7598   001258  EF4D  F009         	goto	l3241
  7599   00125C                     u1750:
  7600   00125C                     
  7601                           ;usb_device.c: 1041:     {;usb_device.c: 1043:         pBDTEntryIn[ep] = (BDT_ENTRY*)(((
      +                          uint16_t)pBDTEntryIn[ep]) ^ 0x0004);
  7602   00125C  5044               	movf	USBTransferOnePacket@ep^0,w,c
  7603   00125E  0D02               	mullw	2
  7604   001260  0E0F               	movlw	low _pBDTEntryIn
  7605   001262  24F3               	addwf	243,w,c
  7606   001264  6ED9               	movwf	fsr2l,c
  7607   001266  0E00               	movlw	high _pBDTEntryIn
  7608   001268  20F4               	addwfc	prodh,w,c
  7609   00126A  6EDA               	movwf	fsr2h,c
  7610   00126C  CFDE F040          	movff	postinc2,??_USBTransferOnePacket
  7611   001270  CFDD F041          	movff	postdec2,??_USBTransferOnePacket+1
  7612   001274  0E04               	movlw	4
  7613   001276  1840               	xorwf	??_USBTransferOnePacket^0,w,c
  7614   001278  6E42               	movwf	(??_USBTransferOnePacket+2)^0,c
  7615   00127A  5041               	movf	(??_USBTransferOnePacket+1)^0,w,c
  7616   00127C  6E43               	movwf	(??_USBTransferOnePacket+3)^0,c
  7617   00127E  5044               	movf	USBTransferOnePacket@ep^0,w,c
  7618   001280  0D02               	mullw	2
  7619   001282  0E0F               	movlw	low _pBDTEntryIn
  7620   001284  24F3               	addwf	243,w,c
  7621   001286  6ED9               	movwf	fsr2l,c
  7622   001288  0E00               	movlw	high _pBDTEntryIn
  7623   00128A  20F4               	addwfc	prodh,w,c
  7624   00128C  6EDA               	movwf	fsr2h,c
  7625   00128E  C042  FFDE         	movff	??_USBTransferOnePacket+2,postinc2
  7626   001292  C043  FFDD         	movff	??_USBTransferOnePacket+3,postdec2
  7627                           
  7628                           ;usb_device.c: 1044:     }
  7629   001296  EF6A  F009         	goto	l3243
  7630   00129A                     l3241:
  7631                           
  7632                           ;usb_device.c: 1046:     {;usb_device.c: 1048:         pBDTEntryOut[ep] = (BDT_ENTRY*)((
      +                          (uint16_t)pBDTEntryOut[ep]) ^ 0x0004);
  7633   00129A  5044               	movf	USBTransferOnePacket@ep^0,w,c
  7634   00129C  0D02               	mullw	2
  7635   00129E  0E6A               	movlw	low _pBDTEntryOut
  7636   0012A0  24F3               	addwf	243,w,c
  7637   0012A2  6ED9               	movwf	fsr2l,c
  7638   0012A4  0E00               	movlw	high _pBDTEntryOut
  7639   0012A6  20F4               	addwfc	prodh,w,c
  7640   0012A8  6EDA               	movwf	fsr2h,c
  7641   0012AA  CFDE F040          	movff	postinc2,??_USBTransferOnePacket
  7642   0012AE  CFDD F041          	movff	postdec2,??_USBTransferOnePacket+1
  7643   0012B2  0E04               	movlw	4
  7644   0012B4  1840               	xorwf	??_USBTransferOnePacket^0,w,c
  7645   0012B6  6E42               	movwf	(??_USBTransferOnePacket+2)^0,c
  7646   0012B8  5041               	movf	(??_USBTransferOnePacket+1)^0,w,c
  7647   0012BA  6E43               	movwf	(??_USBTransferOnePacket+3)^0,c
  7648   0012BC  5044               	movf	USBTransferOnePacket@ep^0,w,c
  7649   0012BE  0D02               	mullw	2
  7650   0012C0  0E6A               	movlw	low _pBDTEntryOut
  7651   0012C2  24F3               	addwf	243,w,c
  7652   0012C4  6ED9               	movwf	fsr2l,c
  7653   0012C6  0E00               	movlw	high _pBDTEntryOut
  7654   0012C8  20F4               	addwfc	prodh,w,c
  7655   0012CA  6EDA               	movwf	fsr2h,c
  7656   0012CC  C042  FFDE         	movff	??_USBTransferOnePacket+2,postinc2
  7657   0012D0  C043  FFDD         	movff	??_USBTransferOnePacket+3,postdec2
  7658   0012D4                     l3243:
  7659                           
  7660                           ;usb_device.c: 1050:     return (void*)handle;
  7661   0012D4  C045  F03C         	movff	USBTransferOnePacket@handle,?_USBTransferOnePacket
  7662   0012D8  C046  F03D         	movff	USBTransferOnePacket@handle+1,?_USBTransferOnePacket+1
  7663   0012DC                     l421:
  7664   0012DC  0012               	return		;funcret
  7665   0012DE                     __end_of_USBTransferOnePacket:
  7666                           	callstack 0
  7667                           
  7668 ;; *************** function _SYS_InterruptHigh *****************
  7669 ;; Defined at:
  7670 ;;		line 88 in file "system.c"
  7671 ;; Parameters:    Size  Location     Type
  7672 ;;		None
  7673 ;; Auto vars:     Size  Location     Type
  7674 ;;		None
  7675 ;; Return value:  Size  Location     Type
  7676 ;;                  1    wreg      void 
  7677 ;; Registers used:
  7678 ;;		None
  7679 ;; Tracked objects:
  7680 ;;		On entry : 0/0
  7681 ;;		On exit  : 0/0
  7682 ;;		Unchanged: 0/0
  7683 ;; Data sizes:     COMRAM   BANK0   BANK1   BANK2
  7684 ;;      Params:         0       0       0       0
  7685 ;;      Locals:         0       0       0       0
  7686 ;;      Temps:          0       0       0       0
  7687 ;;      Totals:         0       0       0       0
  7688 ;;Total ram usage:        0 bytes
  7689 ;; Hardware stack levels used: 1
  7690 ;; This function calls:
  7691 ;;		Nothing
  7692 ;; This function is called by:
  7693 ;;		Interrupt level 2
  7694 ;; This function uses a non-reentrant model
  7695 ;;
  7696                           
  7697                           	psect	intcode
  7698   000008                     __pintcode:
  7699                           	callstack 0
  7700   000008                     _SYS_InterruptHigh:
  7701                           	callstack 21
  7702                           
  7703                           ;incstack = 0
  7704   000008  825D               	bsf	int$flags,1,c	;set compiler interrupt flag (level 2)
  7705   00000A  925D               	bcf	int$flags,1,c	;clear compiler interrupt flag (level 2)
  7706   00000C  0011               	retfie		f
  7707   00000E                     __end_of_SYS_InterruptHigh:
  7708                           	callstack 0
  7709                           
  7710                           	psect	rparam
  7711   000000                     
  7712                           	psect	temp
  7713   00005D                     btemp:
  7714                           	callstack 0
  7715   00005D                     	ds	1
  7716   000000                     int$flags	set	btemp
  7717   000000                     wtemp8	set	btemp+1
  7718   000000                     ttemp5	set	btemp+1
  7719   000000                     ttemp6	set	btemp+4
  7720   000000                     ttemp7	set	btemp+8
  7721                           
  7722                           	psect	idloc
  7723                           
  7724                           ;Config register IDLOC0 @ 0x200000
  7725                           ;	unspecified, using default values
  7726   200000                     	org	2097152
  7727   200000  FF                 	db	255
  7728                           
  7729                           ;Config register IDLOC1 @ 0x200001
  7730                           ;	unspecified, using default values
  7731   200001                     	org	2097153
  7732   200001  FF                 	db	255
  7733                           
  7734                           ;Config register IDLOC2 @ 0x200002
  7735                           ;	unspecified, using default values
  7736   200002                     	org	2097154
  7737   200002  FF                 	db	255
  7738                           
  7739                           ;Config register IDLOC3 @ 0x200003
  7740                           ;	unspecified, using default values
  7741   200003                     	org	2097155
  7742   200003  FF                 	db	255
  7743                           
  7744                           ;Config register IDLOC4 @ 0x200004
  7745                           ;	unspecified, using default values
  7746   200004                     	org	2097156
  7747   200004  FF                 	db	255
  7748                           
  7749                           ;Config register IDLOC5 @ 0x200005
  7750                           ;	unspecified, using default values
  7751   200005                     	org	2097157
  7752   200005  FF                 	db	255
  7753                           
  7754                           ;Config register IDLOC6 @ 0x200006
  7755                           ;	unspecified, using default values
  7756   200006                     	org	2097158
  7757   200006  FF                 	db	255
  7758                           
  7759                           ;Config register IDLOC7 @ 0x200007
  7760                           ;	unspecified, using default values
  7761   200007                     	org	2097159
  7762   200007  FF                 	db	255
  7763                           
  7764                           	psect	config
  7765                           
  7766                           ;Config register CONFIG1L @ 0x300000
  7767                           ;	CPU System Clock Selection bits
  7768                           ;	CPUDIV = NOCLKDIV, No CPU System Clock divide
  7769                           ;	USB Clock Selection bit
  7770                           ;	USBDIV = OFF, USB clock comes directly from the OSC1/OSC2 oscillator block; no divide
  7771   300000                     	org	3145728
  7772   300000  00                 	db	0
  7773                           
  7774                           ;Config register CONFIG1H @ 0x300001
  7775                           ;	Oscillator Selection bits
  7776                           ;	FOSC = HS, HS oscillator
  7777                           ;	4 X PLL Enable bit
  7778                           ;	PLLEN = ON, Oscillator multiplied by 4
  7779                           ;	Primary Clock Enable bit
  7780                           ;	PCLKEN = ON, Primary clock enabled
  7781                           ;	Fail-Safe Clock Monitor Enable
  7782                           ;	FCMEN = OFF, Fail-Safe Clock Monitor disabled
  7783                           ;	Internal/External Oscillator Switchover bit
  7784                           ;	IESO = OFF, Oscillator Switchover mode disabled
  7785   300001                     	org	3145729
  7786   300001  32                 	db	50
  7787                           
  7788                           ;Config register CONFIG2L @ 0x300002
  7789                           ;	Power-up Timer Enable bit
  7790                           ;	PWRTEN = OFF, PWRT disabled
  7791                           ;	Brown-out Reset Enable bits
  7792                           ;	BOREN = OFF, Brown-out Reset disabled in hardware and software
  7793                           ;	Brown-out Reset Voltage bits
  7794                           ;	BORV = 30, VBOR set to 3.0 V nominal
  7795   300002                     	org	3145730
  7796   300002  01                 	db	1
  7797                           
  7798                           ;Config register CONFIG2H @ 0x300003
  7799                           ;	Watchdog Timer Enable bit
  7800                           ;	WDTEN = OFF, WDT is controlled by SWDTEN bit of the WDTCON register
  7801                           ;	Watchdog Timer Postscale Select bits
  7802                           ;	WDTPS = 32768, 1:32768
  7803   300003                     	org	3145731
  7804   300003  1E                 	db	30
  7805                           
  7806                           ; Padding undefined space
  7807   300004                     	org	3145732
  7808   300004  FF                 	db	255
  7809                           
  7810                           ;Config register CONFIG3H @ 0x300005
  7811                           ;	HFINTOSC Fast Start-up bit
  7812                           ;	HFOFST = OFF, The system clock is held off until the HFINTOSC is stable.
  7813                           ;	MCLR Pin Enable bit
  7814                           ;	MCLRE = OFF, RA3 input pin enabled; MCLR disabled
  7815   300005                     	org	3145733
  7816   300005  00                 	db	0
  7817                           
  7818                           ;Config register CONFIG4L @ 0x300006
  7819                           ;	Stack Full/Underflow Reset Enable bit
  7820                           ;	STVREN = ON, Stack full/underflow will cause Reset
  7821                           ;	Single-Supply ICSP Enable bit
  7822                           ;	LVP = OFF, Single-Supply ICSP disabled
  7823                           ;	Boot Block Size Select bit
  7824                           ;	BBSIZ = OFF, 1kW boot block size
  7825                           ;	Extended Instruction Set Enable bit
  7826                           ;	XINST = OFF, Instruction set extension and Indexed Addressing mode disabled (Legacy mo
      +                          de)
  7827                           ;	Background Debugger Enable bit
  7828                           ;	DEBUG = 0x1, unprogrammed default
  7829   300006                     	org	3145734
  7830   300006  81                 	db	129
  7831                           
  7832                           ; Padding undefined space
  7833   300007                     	org	3145735
  7834   300007  FF                 	db	255
  7835                           
  7836                           ;Config register CONFIG5L @ 0x300008
  7837                           ;	Code Protection bit
  7838                           ;	CP0 = OFF, Block 0 not code-protected
  7839                           ;	Code Protection bit
  7840                           ;	CP1 = OFF, Block 1 not code-protected
  7841   300008                     	org	3145736
  7842   300008  03                 	db	3
  7843                           
  7844                           ;Config register CONFIG5H @ 0x300009
  7845                           ;	Boot Block Code Protection bit
  7846                           ;	CPB = OFF, Boot block not code-protected
  7847                           ;	Data EEPROM Code Protection bit
  7848                           ;	CPD = 0x1, unprogrammed default
  7849   300009                     	org	3145737
  7850   300009  C0                 	db	192
  7851                           
  7852                           ;Config register CONFIG6L @ 0x30000A
  7853                           ;	Table Write Protection bit
  7854                           ;	WRT0 = OFF, Block 0 not write-protected
  7855                           ;	Table Write Protection bit
  7856                           ;	WRT1 = OFF, Block 1 not write-protected
  7857   30000A                     	org	3145738
  7858   30000A  03                 	db	3
  7859                           
  7860                           ;Config register CONFIG6H @ 0x30000B
  7861                           ;	Configuration Register Write Protection bit
  7862                           ;	WRTC = OFF, Configuration registers not write-protected
  7863                           ;	Boot Block Write Protection bit
  7864                           ;	WRTB = OFF, Boot block not write-protected
  7865                           ;	Data EEPROM Write Protection bit
  7866                           ;	WRTD = 0x1, unprogrammed default
  7867   30000B                     	org	3145739
  7868   30000B  E0                 	db	224
  7869                           
  7870                           ;Config register CONFIG7L @ 0x30000C
  7871                           ;	Table Read Protection bit
  7872                           ;	EBTR0 = OFF, Block 0 not protected from table reads executed in other blocks
  7873                           ;	Table Read Protection bit
  7874                           ;	EBTR1 = OFF, Block 1 not protected from table reads executed in other blocks
  7875   30000C                     	org	3145740
  7876   30000C  03                 	db	3
  7877                           
  7878                           ;Config register CONFIG7H @ 0x30000D
  7879                           ;	Boot Block Table Read Protection bit
  7880                           ;	EBTRB = OFF, Boot block not protected from table reads executed in other blocks
  7881   30000D                     	org	3145741
  7882   30000D  40                 	db	64
  7883                           tosu	equ	0xFFF
  7884                           tosh	equ	0xFFE
  7885                           tosl	equ	0xFFD
  7886                           stkptr	equ	0xFFC
  7887                           pclatu	equ	0xFFB
  7888                           pclath	equ	0xFFA
  7889                           pcl	equ	0xFF9
  7890                           tblptru	equ	0xFF8
  7891                           tblptrh	equ	0xFF7
  7892                           tblptrl	equ	0xFF6
  7893                           tablat	equ	0xFF5
  7894                           prodh	equ	0xFF4
  7895                           prodl	equ	0xFF3
  7896                           indf0	equ	0xFEF
  7897                           postinc0	equ	0xFEE
  7898                           postdec0	equ	0xFED
  7899                           preinc0	equ	0xFEC
  7900                           plusw0	equ	0xFEB
  7901                           fsr0h	equ	0xFEA
  7902                           fsr0l	equ	0xFE9
  7903                           wreg	equ	0xFE8
  7904                           indf1	equ	0xFE7
  7905                           postinc1	equ	0xFE6
  7906                           postdec1	equ	0xFE5
  7907                           preinc1	equ	0xFE4
  7908                           plusw1	equ	0xFE3
  7909                           fsr1h	equ	0xFE2
  7910                           fsr1l	equ	0xFE1
  7911                           bsr	equ	0xFE0
  7912                           indf2	equ	0xFDF
  7913                           postinc2	equ	0xFDE
  7914                           postdec2	equ	0xFDD
  7915                           preinc2	equ	0xFDC
  7916                           plusw2	equ	0xFDB
  7917                           fsr2h	equ	0xFDA
  7918                           fsr2l	equ	0xFD9
  7919                           status	equ	0xFD8

Data Sizes:
    Strings     0
    Constant    201
    Data        18
    BSS         363
    Persistent  0
    Stack       0

Auto Spaces:
    Space          Size  Autos    Used
    COMRAM           94     33      92
    BANK0           160      0     130
    BANK1           256      0     192
    BANK2            64      0       0

Pointer List with Targets:

    USER_USB_CALLBACK_EVENT_HANDLER@pdata	PTR void  size(2) Largest target is 767
		 -> RAM(DATA[767]), USTATcopy(COMRAM[1]), USBActiveConfiguration(COMRAM[1]), NULL(NULL[0]), 
		 -> BDT(BIGRAMl[48]), 

    memset@dest	PTR void  size(2) Largest target is 48
		 -> USBAlternateInterface(COMRAM[2]), BDT(BIGRAMl[48]), UEP1(BITBIGSFRlll[1]), 

    memset@s	PTR unsigned char  size(2) Largest target is 48
		 -> USBAlternateInterface(COMRAM[2]), BDT(BIGRAMl[48]), UEP1(BITBIGSFRlll[1]), 

    memcpy@d1	PTR void  size(2) Largest target is 8
		 -> SetupPkt(BIGRAMh[8]), 

    memcpy@d	PTR unsigned char  size(2) Largest target is 8
		 -> SetupPkt(BIGRAMh[8]), 

    memcpy@s1	PTR const void  size(2) Largest target is 767
		 -> CtrlTrfData(BIGRAMh[8]), RAM(DATA[767]), SetupPkt(BIGRAMh[8]), 

    memcpy@s	PTR const unsigned char  size(2) Largest target is 767
		 -> CtrlTrfData(BIGRAMh[8]), RAM(DATA[767]), SetupPkt(BIGRAMh[8]), 

    putUSBUSART@data	PTR unsigned char  size(2) Largest target is 64
		 -> USB_In_Buffer(BANK1[64]), writeBuffer(BANK1[64]), 

    getsUSBUSART@buffer	PTR unsigned char  size(2) Largest target is 64
		 -> USB_Out_Buffer(BANK1[64]), readBuffer(BANK0[64]), 

    CDCDataInHandle	PTR void  size(2) Largest target is 767
		 -> RAM(DATA[767]), NULL(NULL[0]), BDT(BIGRAMl[48]), 

    CDCDataOutHandle	PTR void  size(2) Largest target is 767
		 -> RAM(DATA[767]), NULL(NULL[0]), BDT(BIGRAMl[48]), 

    pCDCDst.wRom	PTR const unsigned short  size(2) Largest target is 0

    pCDCDst.bRom	PTR const unsigned char  size(2) Largest target is 0

    pCDCDst.wRam	PTR unsigned short  size(2) Largest target is 0

    pCDCDst.bRam	PTR unsigned char  size(2) Largest target is 0

    S2081_POINTER$wRom	PTR const unsigned short  size(2) Largest target is 0

    pCDCSrc.wRom	PTR const unsigned short  size(2) Largest target is 0

    S2081_POINTER$bRom	PTR const unsigned char  size(2) Largest target is 0

    pCDCSrc.bRom	PTR const unsigned char  size(2) Largest target is 0

    S2081_POINTER$wRam	PTR unsigned short  size(2) Largest target is 0

    pCDCSrc.wRam	PTR unsigned short  size(2) Largest target is 0

    S2081_POINTER$bRam	PTR unsigned char  size(2) Largest target is 0

    pCDCSrc.bRam	PTR unsigned char  size(2) Largest target is 0

    USBStdFeatureReqHandler@pUEP	PTR unsigned char  size(2) Largest target is 1
		 -> UEP0(BITBIGSFRlll[1]), 

    USBStdFeatureReqHandler@p	PTR struct __BDT size(2) Largest target is 767
		 -> RAM(DATA[767]), NULL(NULL[0]), BDT(BIGRAMl[48]), 

    sp__memcpy	PTR void  size(2) Largest target is 8
		 -> SetupPkt(BIGRAMh[8]), 

    USBStdGetStatusHandler@p	PTR struct __BDT size(2) Largest target is 767
		 -> RAM(DATA[767]), NULL(NULL[0]), BDT(BIGRAMl[48]), 

    pDst	PTR unsigned char  size(2) Largest target is 8
		 -> CtrlTrfData(BIGRAMh[8]), NULL(NULL[0]), 

    USBConfigureEndpoint@handle	PTR volatile struct __BDT size(2) Largest target is 48
		 -> BDT(BIGRAMl[48]), 

    pBDTEntryEP0OutCurrent	PTR volatile struct __BDT size(2) Largest target is 48
		 -> NULL(NULL[0]), BDT(BIGRAMl[48]), 

    pBDTEntryEP0OutNext	PTR volatile struct __BDT size(2) Largest target is 767
		 -> RAM(DATA[767]), NULL(NULL[0]), BDT(BIGRAMl[48]), 

    USBTransferOnePacket@data	PTR unsigned char  size(2) Largest target is 64
		 -> cdc_data_tx(BIGRAMh[64]), cdc_data_rx(BIGRAMh[64]), NULL(NULL[0]), 

    sp__USBTransferOnePacket	PTR void  size(2) Largest target is 767
		 -> RAM(DATA[767]), NULL(NULL[0]), BDT(BIGRAMl[48]), 

    USBTransferOnePacket@handle	PTR volatile struct __BDT size(2) Largest target is 767
		 -> RAM(DATA[767]), NULL(NULL[0]), BDT(BIGRAMl[48]), 

    USBEnableEndpoint@p	PTR unsigned char  size(2) Largest target is 1
		 -> UEP0(BITBIGSFRlll[1]), 

    pBDTEntryOut	PTR volatile struct __BDT[3] size(2) Largest target is 767
		 -> RAM(DATA[767]), NULL(NULL[0]), BDT(BIGRAMl[48]), 

    pBDTEntryIn	PTR volatile struct __BDT[3] size(2) Largest target is 767
		 -> RAM(DATA[767]), NULL(NULL[0]), BDT(BIGRAMl[48]), 

    S574$pFunc	PTR FTN()void  size(2) Largest target is 0
		 -> NULL(NULL[0]), 

    outPipes.pFunc	PTR FTN()void  size(2) Largest target is 0
		 -> NULL(NULL[0]), 

    S564$wRam	PTR unsigned short  size(2) Largest target is 0

    outPipes.pDst.wRam	PTR unsigned short  size(2) Largest target is 0

    S564$bRam	PTR unsigned char  size(2) Largest target is 0

    outPipes.pDst.bRam	PTR unsigned char  size(2) Largest target is 0

    S540$wRom	PTR const unsigned short  size(2) Largest target is 0

    inPipes.pSrc.wRom	PTR const unsigned short  size(2) Largest target is 0

    S540$wRam	PTR unsigned short  size(2) Largest target is 0

    inPipes.pSrc.wRam	PTR unsigned short  size(2) Largest target is 0

    S540$bRom	PTR const unsigned char  size(2) Largest target is 0

    inPipes.pSrc.bRom	PTR const unsigned char  size(2) Largest target is 0

    S540$bRam	PTR unsigned char  size(2) Largest target is 0

    inPipes.pSrc.bRam	PTR unsigned char  size(2) Largest target is 0

    sp__memset	PTR void  size(2) Largest target is 48
		 -> USBAlternateInterface(COMRAM[2]), BDT(BIGRAMl[48]), UEP1(BITBIGSFRlll[1]), 

    USB_SD_Ptr	const PTR const unsigned char [3] size(2) Largest target is 52
		 -> sd002(CODE[52]), sd001(CODE[52]), sd000(CODE[4]), 

    USB_CD_Ptr	const PTR const unsigned char [1] size(2) Largest target is 67
		 -> configDescriptor1(CODE[67]), 


Critical Paths under _main in COMRAM

    _main->_USBDeviceTasks
    _USBDeviceTasks->_USBCtrlEPService
    _USBWakeFromSuspend->_USER_USB_CALLBACK_EVENT_HANDLER
    _USBSuspend->_USER_USB_CALLBACK_EVENT_HANDLER
    _USBDeviceInit->_memset
    _USBCtrlTrfSetupHandler->_USBCheckStdRequest
    _USBCtrlEPAllowDataStage->_USBCtrlTrfTxService
    _USBCheckStdRequest->_USBStdFeatureReqHandler
    _USBStdSetCfgHandler->_USER_USB_CALLBACK_EVENT_HANDLER
    _USBStdFeatureReqHandler->_USER_USB_CALLBACK_EVENT_HANDLER
    _SYSTEM_Initialize->_BUTTON_Enable
    _SYSTEM_Initialize->_LED_Enable
    _CDCInitEP->_USBEnableEndpoint
    _USBEnableEndpoint->_USBConfigureEndpoint
    _APP_LEDUpdateUSBStatus->_LED_Off
    _APP_LEDUpdateUSBStatus->_LED_On
    _USBCtrlTrfOutHandler->_USBCtrlTrfRxService
    _USBCtrlTrfInHandler->_USBCtrlTrfTxService
    _ProcessUSB->_getsUSBUSART
    _getsUSBUSART->_USBTransferOnePacket
    _CDCTxService->_USBTransferOnePacket

Critical Paths under _SYS_InterruptHigh in COMRAM

    None.

Critical Paths under _main in BANK0

    None.

Critical Paths under _SYS_InterruptHigh in BANK0

    None.

Critical Paths under _main in BANK1

    None.

Critical Paths under _SYS_InterruptHigh in BANK1

    None.

Critical Paths under _main in BANK2

    None.

Critical Paths under _SYS_InterruptHigh in BANK2

    None.

Call Graph Tables:

 ---------------------------------------------------------------------------------
 (Depth) Function   	        Calls       Base Space   Used Autos Params    Refs
 ---------------------------------------------------------------------------------
 (0) _main                                                 0     0      0   48454
                         _ProcessUSB
                      _USBDeviceInit
                     _USBDeviceTasks
 ---------------------------------------------------------------------------------
 (1) _USBDeviceTasks                                       1     1      0   41882
                                             32 COMRAM     1     1      0
          _USBCtrlEPAllowStatusStage
                   _USBCtrlEPService
                      _USBDeviceInit
      _USBIncrement1msInternalTimers
                    _USBStallHandler
                         _USBSuspend
                 _USBWakeFromSuspend
    _USER_USB_CALLBACK_EVENT_HANDLER
 ---------------------------------------------------------------------------------
 (2) _USBWakeFromSuspend                                   0     0      0    5246
    _USER_USB_CALLBACK_EVENT_HANDLER
 ---------------------------------------------------------------------------------
 (2) _USBSuspend                                           0     0      0    5246
    _USER_USB_CALLBACK_EVENT_HANDLER
 ---------------------------------------------------------------------------------
 (2) _USBStallHandler                                      1     1      0       0
                                              0 COMRAM     1     1      0
 ---------------------------------------------------------------------------------
 (2) _USBIncrement1msInternalTimers                        0     0      0       0
 ---------------------------------------------------------------------------------
 (2) _USBDeviceInit                                        1     1      0    1989
                                             12 COMRAM     1     1      0
                             _memset
 ---------------------------------------------------------------------------------
 (2) _USBCtrlEPService                                     1     1      0   24109
                                             31 COMRAM     1     1      0
                _USBCtrlTrfInHandler
               _USBCtrlTrfOutHandler
             _USBCtrlTrfSetupHandler
                             _memcpy
 ---------------------------------------------------------------------------------
 (3) _memcpy                                              11     5      6     410
                                              0 COMRAM    11     5      6
 ---------------------------------------------------------------------------------
 (3) _USBCtrlTrfSetupHandler                               0     0      0   23470
                 _USBCheckStdRequest
           _USBCtrlEPServiceComplete
    _USER_USB_CALLBACK_EVENT_HANDLER
 ---------------------------------------------------------------------------------
 (4) _USBCtrlEPServiceComplete                             0     0      0      92
            _USBCtrlEPAllowDataStage
          _USBCtrlEPAllowStatusStage
 ---------------------------------------------------------------------------------
 (5) _USBCtrlEPAllowDataStage                              0     0      0      92
                _USBCtrlTrfTxService
 ---------------------------------------------------------------------------------
 (4) _USBCheckStdRequest                                   2     2      0   18132
                                             29 COMRAM     2     2      0
            _USBStdFeatureReqHandler
                _USBStdGetDscHandler
             _USBStdGetStatusHandler
                _USBStdSetCfgHandler
    _USER_USB_CALLBACK_EVENT_HANDLER
 ---------------------------------------------------------------------------------
 (5) _USBStdSetCfgHandler                                  1     1      0    7123
                                             22 COMRAM     1     1      0
    _USER_USB_CALLBACK_EVENT_HANDLER
                             _memset
 ---------------------------------------------------------------------------------
 (3) _memset                                              12     6      6    1787
                                              0 COMRAM    12     6      6
 ---------------------------------------------------------------------------------
 (5) _USBStdGetStatusHandler                               4     4      0      46
                                              0 COMRAM     4     4      0
 ---------------------------------------------------------------------------------
 (5) _USBStdGetDscHandler                                  2     2      0       0
                                              0 COMRAM     2     2      0
 ---------------------------------------------------------------------------------
 (5) _USBStdFeatureReqHandler                              7     7      0    5717
                                             22 COMRAM     7     7      0
    _USER_USB_CALLBACK_EVENT_HANDLER
 ---------------------------------------------------------------------------------
 (2) _USER_USB_CALLBACK_EVENT_HANDLER                      8     2      6    5246
                                             14 COMRAM     8     2      6
   _APP_DeviceCDCBasicDemoInitialize
             _APP_LEDUpdateUSBStatus
                          _CDCInitEP
                  _SYSTEM_Initialize
                 _USBCheckCDCRequest
 ---------------------------------------------------------------------------------
 (3) _USBCheckCDCRequest                                   2     2      0       0
                                              0 COMRAM     2     2      0
 ---------------------------------------------------------------------------------
 (3) _SYSTEM_Initialize                                    3     3      0      66
                                              3 COMRAM     3     3      0
                      _BUTTON_Enable
                         _LED_Enable
 ---------------------------------------------------------------------------------
 (4) _LED_Enable                                           3     3      0      22
                                              0 COMRAM     3     3      0
 ---------------------------------------------------------------------------------
 (4) _BUTTON_Enable                                        3     3      0      22
                                              0 COMRAM     3     3      0
 ---------------------------------------------------------------------------------
 (3) _CDCInitEP                                            0     0      0    2444
                  _USBEnableEndpoint
               _USBTransferOnePacket
 ---------------------------------------------------------------------------------
 (4) _USBEnableEndpoint                                    4     3      1     733
                                             10 COMRAM     4     3      1
               _USBConfigureEndpoint
 ---------------------------------------------------------------------------------
 (5) _USBConfigureEndpoint                                10     9      1     400
                                              0 COMRAM    10     9      1
 ---------------------------------------------------------------------------------
 (3) _APP_LEDUpdateUSBStatus                               2     2      0      44
                                              3 COMRAM     2     2      0
                            _LED_Off
                             _LED_On
 ---------------------------------------------------------------------------------
 (4) _LED_On                                               3     3      0      22
                                              0 COMRAM     3     3      0
 ---------------------------------------------------------------------------------
 (4) _LED_Off                                              3     3      0      22
                                              0 COMRAM     3     3      0
 ---------------------------------------------------------------------------------
 (3) _APP_DeviceCDCBasicDemoInitialize                     0     0      0       0
 ---------------------------------------------------------------------------------
 (3) _USBCtrlTrfOutHandler                                 0     0      0     114
                _USBCtrlTrfRxService
 ---------------------------------------------------------------------------------
 (4) _USBCtrlTrfRxService                                  2     2      0     114
                                              0 COMRAM     2     2      0
          _USBCtrlEPAllowStatusStage
 ---------------------------------------------------------------------------------
 (5) _USBCtrlEPAllowStatusStage                            0     0      0       0
 ---------------------------------------------------------------------------------
 (3) _USBCtrlTrfInHandler                                  1     1      0     115
                                              1 COMRAM     1     1      0
                _USBCtrlTrfTxService
 ---------------------------------------------------------------------------------
 (6) _USBCtrlTrfTxService                                  1     1      0      92
                                              0 COMRAM     1     1      0
 ---------------------------------------------------------------------------------
 (1) _ProcessUSB                                           4     4      0    4583
                                             15 COMRAM     4     4      0
                       _CDCTxService
                       _getsUSBUSART
                        _putUSBUSART
 ---------------------------------------------------------------------------------
 (2) _putUSBUSART                                          3     0      3     400
                                              0 COMRAM     3     0      3
 ---------------------------------------------------------------------------------
 (2) _getsUSBUSART                                         4     1      3    2134
                                             11 COMRAM     4     1      3
               _USBTransferOnePacket
 ---------------------------------------------------------------------------------
 (2) _CDCTxService                                         2     2      0    1848
                                             11 COMRAM     2     2      0
               _USBTransferOnePacket
 ---------------------------------------------------------------------------------
 (4) _USBTransferOnePacket                                11     7      4    1711
                                              0 COMRAM    11     7      4
 ---------------------------------------------------------------------------------
 Estimated maximum stack depth 6
 ---------------------------------------------------------------------------------
 (Depth) Function   	        Calls       Base Space   Used Autos Params    Refs
 ---------------------------------------------------------------------------------
 (10) _SYS_InterruptHigh                                   0     0      0       0
 ---------------------------------------------------------------------------------
 Estimated maximum stack depth 10
 ---------------------------------------------------------------------------------

 Call Graph Graphs:

 _main (ROOT)
   _ProcessUSB
     _CDCTxService
       _USBTransferOnePacket
     _getsUSBUSART
       _USBTransferOnePacket
     _putUSBUSART
   _USBDeviceInit
     _memset
   _USBDeviceTasks
     _USBCtrlEPAllowStatusStage
     _USBCtrlEPService
       _USBCtrlTrfInHandler
         _USBCtrlTrfTxService
       _USBCtrlTrfOutHandler
         _USBCtrlTrfRxService
           _USBCtrlEPAllowStatusStage
       _USBCtrlTrfSetupHandler
         _USBCheckStdRequest
           _USBStdFeatureReqHandler
             _USER_USB_CALLBACK_EVENT_HANDLER
               _APP_DeviceCDCBasicDemoInitialize
               _APP_LEDUpdateUSBStatus
                 _LED_Off
                 _LED_On
               _CDCInitEP
                 _USBEnableEndpoint
                   _USBConfigureEndpoint
                 _USBTransferOnePacket
               _SYSTEM_Initialize
                 _BUTTON_Enable
                 _LED_Enable
               _USBCheckCDCRequest
           _USBStdGetDscHandler
           _USBStdGetStatusHandler
           _USBStdSetCfgHandler
             _USER_USB_CALLBACK_EVENT_HANDLER
             _memset
           _USER_USB_CALLBACK_EVENT_HANDLER
         _USBCtrlEPServiceComplete
           _USBCtrlEPAllowDataStage
             _USBCtrlTrfTxService
           _USBCtrlEPAllowStatusStage
         _USER_USB_CALLBACK_EVENT_HANDLER
       _memcpy
     _USBDeviceInit
     _USBIncrement1msInternalTimers
     _USBStallHandler
     _USBSuspend
       _USER_USB_CALLBACK_EVENT_HANDLER
     _USBWakeFromSuspend
       _USER_USB_CALLBACK_EVENT_HANDLER
     _USER_USB_CALLBACK_EVENT_HANDLER

 _SYS_InterruptHigh (ROOT)

 Address spaces:
Name               Size   Autos  Total    Cost      Usage
BIGRAMl            1FF      0       0      20        0.0%
EEDATA             100      0       0       0        0.0%
BITBANK1           100      0       0       6        0.0%
BANK1              100      0      C0       7       75.0%
BITBANK0            A0      0       0       4        0.0%
BANK0               A0      0      82       5       81.2%
BITCOMRAM           5E      0       0       0        0.0%
COMRAM              5E     21      5C       1       97.9%
BIGRAMh             40      0       0      19        0.0%
BITBANK2            40      0       0       8        0.0%
BANK2               40      0       0       9        0.0%
BITBIGSFRhhhhlh     31      0       0      11        0.0%
BITBIGSFRhhhhh      2C      0       0      10        0.0%
BITBIGSFRhll        19      0       0      15        0.0%
BITBIGSFRhhhhll      B      0       0      12        0.0%
BITBIGSFRhhl         8      0       0      14        0.0%
BITBIGSFRhhhll       6      0       0      13        0.0%
BITBIGSFRlll         6      0       0      17        0.0%
BITBIGSFRllh         2      0       0      16        0.0%
BIGSFR               0      0       0     200        0.0%
BITSFR_1             0      0       0     200        0.0%
SFR_1                0      0       0     200        0.0%
BITSFR               0      0       0     200        0.0%
SFR                  0      0       0     200        0.0%
STACK                0      0       0       2        0.0%
NULL                 0      0       0       0        0.0%
ABS                  0      0     19E      18        0.0%
DATA                 0      0     19E       3        0.0%
CODE                 0      0       0       0        0.0%


Microchip Technology PIC18 Macro Assembler V2.41 build 20230208172133 
Symbol Table                                                                                   Wed Apr 26 13:31:28 2023

                              _USB_SD_Ptr 0301                                        l29 24C4  
                                      l62 1A0A                                        l66 198C  
                                      l92 244E                               ?_LED_Enable 003C  
                           _USBDeviceInit 0DDA      USER_USB_CALLBACK_EVENT_HANDLER@event 004A  
    USER_USB_CALLBACK_EVENT_HANDLER@pdata 004C                                       l100 2182  
                                     l110 21E4                                       l102 2188  
                                     l103 218E                                       l200 1916  
                                     l112 21EA                                       l104 2194  
                                     l113 21F0                                       l114 21F6  
                                     l106 21DC                                       l116 223E  
                                     l140 20BE                                       l142 20C4  
                                     l222 2376                                       l143 20CA  
                                     l144 20D0                                       l401 08DA  
                                     l146 2118                                       l402 0980  
                                     l403 08EC                                       l421 12DC  
             __end_of_USBStdGetDscHandler 0DDA                                       l415 232C  
                                     l440 1AF8                                       l520 13D6  
                                     l513 0DD8                                       l521 1304  
                                     l522 130A                                       l451 1EA6  
                                     l531 20B4                                       l436 1AF8  
                                     l380 0F1C                                       l517 12EC  
                                     l533 20B6                                       l702 1D46  
                                     l614 067E                                       l606 05D0  
                                     l446 1F52                                       l454 10FA  
                                     l550 1C92                                       l542 23B4  
                                     l375 0E42                                       l623 2420  
                                     l560 2054                                       l528 13F2  
                                     l464 119E                                       l536 247A  
                                     l384 0982                                       l392 07BE  
                                     l553 1FE0                                       l730 0A3A  
                                     l706 24A0                                       l490 1048  
                                     l618 071A                                       l386 0748  
                                     l387 0746                                       l724 0B12  
                                     l492 105E                                       l580 1410  
                                     l725 09C6                                       l573 1710  
                                     l574 1716                                       l566 1702  
                                     l670 1816                                       l479 1610  
                                     l578 1506                                       l683 217A  
                                     l595 0412                                       l499 1BDA  
                                     _BDT 0200                                       l677 1794  
                                     l589 145E                                       l679 17CA  
                                     l767 1DF6                                       _UIE 0F60  
                                     _UIR 0F62                    _APP_LEDUpdateUSBStatus 1918  
                              _USBSuspend 2450                      USBStdSetCfgHandler@i 0052  
                                     prod 0FF3                                       wreg 0FE8  
                          _USBDeviceTasks 071C                            _USBDeviceState 0037  
                           _BUTTON_Enable 2422                     ??_USBCtrlTrfRxService 003C  
                          ??_getsUSBUSART 004A                  USBEnableEndpoint@options 0046  
                         __end_of_LED_Off 2240                                      l4001 0A22  
                                    l4003 0A32                                      l3211 230A  
                                    l1451 0C88                                      l3221 11CE  
                                    l4013 0A66                                      l4021 0A84  
                                    l4005 0A3E                                      l3213 2314  
                                    l3205 22E4                                      l3301 1718  
                                    l4101 0EE4                                      l3231 1228  
                                    l3223 11E6                                      l4023 0A98  
                                    l4015 0A7A                                      l4031 0AB6  
                                    l4007 0A4E                                      l3151 1E02  
                                    l3215 2320                                      l3207 22F2  
                                    l3311 175C                                      l1447 22E0  
                                    l4111 0EFE                                      l4103 0EEA  
                                    l3241 129A                                      l3233 1234  
                                    l3225 11F8                                      l3217 11A2  
                                    l4041 0AF4                                      l4025 0AAC  
                                    l4033 0AC6                                      l4017 0A7E  
                                    l4009 0A52                                      l3161 1E8E  
                                    l3153 1E40                                      l3209 22FC  
                                    l3321 1782                                      l3305 1732  
                                    l3401 1D70                                      l4113 0F02  
                                    l4105 0EF4                                      l4121 237C  
                                    l4201 0756                                      l3243 12D4  
                                    l3235 1240                                      l3219 11B2  
                                    l4035 0AD6                                      l4027 0AB0  
                                    l4019 0A82                                      l3251 1926  
                                    l3163 1E98                                      l3155 1E4A  
                                    l3331 17B2                                      l3323 1788  
                                    l3315 1770                                      l3403 1D74  
                                    l4115 0F14                                      l4107 0EF8  
                                    l4051 0E0A                                      l4043 0DDA  
                                    l4131 23B0                                      l4123 2398  
                                    l4211 0782                                      l4203 075A  
              USBConfigureEndpoint@handle 0044                                      l3237 124C  
                                    l3229 1204                                      l4037 0AE8  
                                    l4029 0AB4                                      l3421 150C  
                                    l3165 21E0                                      l3261 1960  
                                    l3157 1E5A                                      l3149 1DFA  
                                    l3333 17BA                                      l3317 1778  
                                    l3309 174C                                      l3405 1D7C  
                                    l3501 1EC2                                      l4117 0F18  
                                    l4109 0EFC                                      l4061 0E18  
                                    l4053 0E10                                      l4045 0DDC  
                                    l4141 245A                                      l4133 2450  
                                    l4125 239A                                      l4301 0970  
                                    l4221 07AA                                      l4205 076A  
                                    l4213 0788                                      l3239 125C  
                                    l4039 0AF0                                      l4311 185C  
                                    l4303 1818                                      l3431 154E  
                                    l3423 1522                                      l3247 24A2  
                                    l3175 217E                                      l3271 19AC  
                                    l3263 196A                                      l3255 1930  
                                    l3159 1E76                                      l3351 213C  
                                    l3335 17C2                                      l3327 179C  
                                    l3319 1780                                      l3511 1F22  
                                    l3503 1EE6                                      l4071 0E4C  
                                    l4063 0E30                                      l4055 0E14  
                                    l4047 0DEA                                      l4151 240E  
                                    l4143 245E                                      l4135 2452  
                                    l4127 23A0                                      l4119 2378  
                                    l4231 07E2                                      l4223 07B8  
                                    l4215 0796                                      l4207 0778  
                                    l4321 18B8                                      l4313 186C  
                                    l4305 1828                                      l3425 1526  
                                    l3433 1552                                      l3169 21FC  
                                    l3273 19C0                                      l3265 1980  
                                    l3257 1942                                      l3281 19E4  
                                    l3249 1918                                      l3353 2146  
                                    l3185 2424                                      l3329 17AC  
                                    l3409 1D84                                      l3601 12FE  
                                    l3361 0B14                                      l3521 1AFC  
                                    l3513 1F26                                      l3505 1EF2  
                                    l4081 0E60                                      l4073 0E4E  
                                    l4065 0E32                                      l4049 0E06  
                                    l4153 241E                                      l4145 23EE  
                                    l4161 209A                                      l4137 2454  
                                    l4129 23A2                                      l4241 0812  
                                    l4225 07CC                                      l4233 07E4  
                                    l4217 07A4                                      l4209 0780  
                                    l4323 18EE                                      l4315 1874  
                                    l4307 183A                                      l3443 1584  
                                    l3451 15B8                                      l3435 155A  
                                    l3427 1536                                      l3419 1508  
                                    l3179 219A                                      l3275 19CA  
                                    l3267 1990                                      l3283 1A06  
                                    l3259 194C                                      l3355 2150  
                                    l3195 20BA                                      l3291 2334  
                                    l3339 17D4                                      l3611 136E  
                                    l3603 130C                                      l3371 0B74  
                                    l3531 1B3A                                      l3523 1B34  
                                    l3515 1F3A                                      l3507 1F02  
                                    l4171 1BF6                                      l4091 0EAE  
                                    l4083 0E6E                                      l4075 0E50  
                                    l4067 0E44                                      l4147 23FC  
                                    l4163 20A6                                      l4155 2056  
                                    l4139 2456                                      l4251 0852  
                                    l4243 0820                                      l4235 07F2  
                                    l4227 07DA                                      l4219 07A6  
                                    l4317 1894                                      l4325 18F0  
                                    l4309 184A                                      l3453 15CC  
                                    l3445 15AE                                      l3461 1600  
                                    l3437 156A                                      l3429 153E  
                                    l3269 19A2                                      l3357 216E  
                                    l3349 211A                                      l3189 2424  
                                    l3701 0668                                      l3621 13E4  
                                    l3613 1384                                      l3605 1320  
                                    l3373 0BCC                                      l3365 0B32  
                                    l3541 1B86                                      l3533 1B56  
                                    l3525 1B36                                      l3517 1F46  
                                    l3509 1F1A                                      l4181 1C6A  
                                    l4173 1C12                                      l4093 0EBC  
                                    l4077 0E54                                      l4069 0E4A  
                                    l4149 240C                                      l4165 20B2  
                                    l4157 2066                                      l4261 0884  
                                    l4253 0854                                      l4245 083C  
                                    l4237 0800                                      l4229 07DE  
                                    l4421 23B6                                      l4327 1902  
                                    l3455 15F6                                      l3447 15B2  
                                    l3439 1572                                      l3471 1A46  
                                    l3463 1A0C                                      l3359 2176  
                                    l3199 20D6                                      l3295 2344  
                                    l3703 068E                                      l3711 06EC  
                                    l3623 13EC                                      l3615 139A  
                                    l3607 132E                                      l3391 0C76  
                                    l3383 0C2C                                      l3367 0B3E  
                                    l3551 1BB2                                      l3543 1B8E  
                                    l3535 1B58                                      l3519 1AFA  
                                    l4183 1C72                                      l4175 1C1A  
                                    l4167 1BDC                                      l4095 0ECA  
                                    l4079 0E58                                      l4159 2080  
                                    l4271 08C4                                      l4263 0888  
                                    l4255 0864                                      l4247 083E  
                                    l4239 0804                                      l4423 23DA  
                                    l4329 1912                                      l3457 15FA  
                                    l3449 15B6                                      l3481 1A84  
                                    l3473 1A54                                      l3465 1A1C  
                                    l3801 1030                                      l3289 2330  
                                    l3393 1D48                                      l3713 06F8  
                                    l3705 06AA                                      l3641 0406  
                                    l3633 03CC                                      l3561 0CA6  
                                    l3625 13EE                                      l3609 1350  
                                    l3385 0C60                                      l3377 0BE6  
                                    l3553 1BBA                                      l3545 1B96  
                                    l3537 1B68                                      l3721 107E  
                                    l4177 1C24                                      l4185 1C7A  
                                    l4169 1BE0                                      l4097 0ECC  
                                    l4089 0E86                                      l4281 08FA  
                                    l4273 08D4                                      l4265 0896  
                                    l4249 0842                                      l4257 0868  
                                    l4425 23DE                                      l3459 15FE  
                                    l3491 1AC4                                      l3483 1A94  
                                    l3475 1A60                                      l3467 1A30  
                                    l3803 103C                                      l3395 1D4C  
                                    l3715 070E                                      l3707 06C0  
                                    l3651 0460                                      l3643 040E  
                                    l3635 03DE                                      l3571 0D14  
                                    l3563 0CAE                                      l3619 13A2  
                                    l3387 0C6C                                      l3379 0C12  
                                    l3555 1BD6                                      l3547 1B9E  
                                    l3539 1B84                                      l3811 13F4  
                                    l3731 10C6                                      l3723 1092  
                                    l4187 1C8E                                      l4179 1C42  
                                    l4099 0EDC                                      l4291 092C  
                                    l4283 08FE                                      l4275 08E8  
                                    l4267 08A4                                      l4259 0876  
                                    l4427 23E2                                      l3493 1AD4  
                                    l3485 1AA8                                      l3477 1A70  
                                    l3469 1A34                                      l3901 2034  
                                    l3397 1D54                                      l3709 06CC  
                                    l3661 04DA                                      l3653 0472  
                                    l3645 0422                                      l3637 03F2  
                                    l3573 0D46                                      l3565 0CBA  
                                    l3557 0C8A                                      l3389 0C72  
                                    l3549 1BA2                                      l3821 142A  
                                    l3741 1122                                      l3733 10D2  
                                    l3725 1096                                      l3717 1060  
                                    l4293 093A                                      l4285 0908  
                                    l4269 08BE                                      l4197 071C  
                                    l4189 071C                                      l3911 162C  
                                    l3495 1AE8                                      l3487 1AB4  
                                    l3479 1A80                                      l3807 104A  
                                    l3903 2040                                      l3399 1D62  
                                    l3671 0528                                      l3663 04F2  
                                    l3655 0482                                      l3647 0436  
                                    l3639 03F4                                      l3575 0D4E  
                                    l3567 0CCA                                      l3559 0C9E  
                                    l3831 1446                                      l3823 1432  
                                    l3815 1412                                      l3751 1146  
                                    l3743 1126                                      l3735 10EA  
                                    l3727 109A                                      l3719 1070  
                                    l4295 094A                                      l4287 090A  
                                    l4199 072C                                      l3913 163E  
                                    l3921 1664                                      l3489 1AC0  
                                    l3809 105A                                      l3905 2050  
                                    l4801 21AE                                      l3681 059E  
                                    l3673 054A                                      l3665 0500  
                                    l3657 04A0                                      l3649 044A  
                                    l3577 0D5E                                      l3569 0CE6  
                                    l3841 1460                                      l3833 144E  
                                    l3825 1434                                      l3817 141A  
                                    l3497 1EA8                                      l3761 1186  
                                    l3753 1156                                      l3745 112A  
                                    l3737 110A                                      l3729 10A2  
                                    l4297 0952                                      l4289 0918  
                                    l3931 16AA                                      l3923 1674  
                                    l3915 1648                                      l3907 1612  
                                    l3771 0F44                                      l4803 2210  
                                    l3691 0618                                      l3683 05BA  
                                    l3675 0568                                      l3667 0510  
                                    l3659 04BC                                      l3579 0D7A  
                                    l3587 0DA6                                      l3595 12DE  
                                    l3843 1474                                      l3827 1438  
                                    l3819 1422                                      l3499 1EB0  
                                    l3763 118A                                      l3755 116A  
                                    l3747 113A                                      l3739 111E  
                                    l4299 096E                                      l4805 18D8  
                                    l3941 16F2                                      l3933 16BA  
                                    l3925 1688                                      l3917 1658  
                                    l3909 1622                                      l3781 0F74  
                                    l3773 0F48                                      l3693 0624  
                                    l3677 057A                                      l3685 05EC  
                                    l3669 051A                                      l3829 143E  
                                    l3757 1176                                      l3749 1142  
                                    l3861 22B6                                      l3951 1CAA  
                                    l3935 16CA                                      l3927 168C  
                                    l3919 1660                                      l3791 0FD4  
                                    l3783 0F76                                      l3775 0F50  
                                    l3767 0F1E                                      l3695 0644  
                                    l3687 05F6                                      l3679 0590  
                                    l3599 12EE                                      l3847 1494  
                                    l3759 1182                                      l3871 1F78  
                                    l3863 22C2                                      l3855 2292  
                                    l3961 1D12                                      l3953 1CC0  
                                    l3945 1712                                      l3937 16D6  
                                    l3929 169E                                      l3793 0FE0  
                                    l3785 0F88                                      l3777 0F58  
                                    l3769 0F2E                                      l3697 0650  
                                    l3689 060C                                      l3881 1FA8  
                                    l3873 1F82                                      l3857 22A6  
                                    l3865 22C6                                      l3963 1D14  
                                    l3955 1CDE                                      l3947 1C94  
                                    l3971 247C                                      l3939 16E6  
                                    l3795 0FF0                                      l3787 0F9A  
                                    l3779 0F70                                      l3699 065A  
                                    l3891 1FDC                                      l3883 1FB0  
                                    l3875 1F8E                                      l3867 1F54  
                                    l3859 22B2                                      l3981 0984  
                                    l3965 1D26                                      l3957 1CEE  
                                    l3949 1C98                                      l3973 248C  
                                    l3797 0FFC                                      l3789 0FBE  
                                    l3893 1FE2                                      l4781 14A8  
                                    l3885 1FB4                                      l3877 1F98  
                                    l3869 1F6C                                      l3983 0996  
                                    l3959 1CF6                                      l3967 1D44  
                                    l3975 2494                                      l3799 100C  
                                    l3895 1FF4                                      l4791 17E8  
                                    l4783 13B8                                      l3887 1FBC  
                                    l3879 1FA4                                      l3993 09DA  
                                    l3977 2498                                      l3897 1FFC  
                                    l4793 2358                                      l4785 0DBA  
                                    l3889 1FC0                                      l3995 09EC  
                                    l3987 09B0                                      l3979 249C  
                                    l3899 2010                                      l4795 20EA  
                                    l4787 1DA2                                      l3997 0A0A  
                                    l3989 09C2                                      l4797 2438  
                                    l4789 1DE8                                      l3999 0A12  
                                    l4799 19F8                                      u2000 1A1C  
                                    u2001 1A18                                      u2010 1A30  
                                    u2011 1A2C                                      u2020 1A46  
                                    u2100 0D12                                      u2021 1A42  
                                    u2030 1A80                                      u2110 0D40  
                                    u2031 1A7C                                      u2200 03DE  
                                    u2120 0D5E                                      u2040 1EC2  
                                    u3000 0812                                      u2201 03DA  
                                    u2121 0D5A                                      u2041 1EBE  
                                    u3001 080E                                      u2210 03F2  
                                    u2130 0D9A                                      u2050 1F1A  
                                    u3010 0820                                      u2211 03EE  
                                    u2107 0D08                                      u2051 1F16  
                                    u3011 081C                                      u2300 0528  
                                    u2220 0406                                      u2140 12FE  
                                    u2060 1B68                                      u3100 08FA  
                                    u3020 0852                                      u2301 0524  
                                    u2221 0402                                      u2117 0D36  
                                    u2141 12FA                                      u2061 1B64  
                                    u3101 08F6                                      u3021 084E  
                                    u2310 057A                                      u2230 0422  
                                    u2150 1320                                      u2070 1BB2  
                                    u3110 0918                                      u3030 0864  
                                    u2311 0576                                      u2231 041E  
                                    u2151 131C                                      u2071 1BAE  
                                    u3111 0914                                      u3031 0860  
                                    u2320 0590                                      u2240 0436  
                                    u2080 0C9E                                      u2160 132E  
                                    u2400 1092                                      u3120 094A  
                                    u3040 0876                                      u2321 058C  
                                    u2241 0432                                      u2137 0D90  
                                    u2081 0C9A                                      u2161 132A  
                                    u2401 108E                                      u3121 0946  
                                    u3041 0872                                      u2330 059E  
                                    u2250 044A                                      u2090 0CCA  
                                    u2170 1384                                      u2410 110A  
                                    u3130 0980                                      u3050 0884  
                                    u2331 059A                                      u2251 0446  
                                    u2091 0CC6                                      u2171 1380  
                                    u2411 1106                                      u3131 097C  
                                    u3051 0880                                      u3140 1828  
                                    u1700 1E5A                                      u2340 060C  
                                    u2260 0460                                      u2180 139A  
                                    u2500 140C                                      u2420 111E  
                                    u3060 0896                                      u3141 1824  
                                    u1701 1E56                                      u2341 0608  
                                    u2261 045C                                      u2181 1396  
                                    u2501 1408                                      u2421 111A  
                                    u3061 0892                                      u3150 1836  
                                    u1710 22F2                                      u2350 0668  
                                    u2270 0472                                      u2190 13E4  
                                    u2430 113A                                      u2510 22E0  
                                    u3070 08A4                                      u3151 1832  
                                    u1711 22EE                                      u2351 0664  
                                    u2271 046E                                      u2191 13E0  
                                    u2431 1136                                      u2511 22DC  
                                    u3071 08A0                                      u2600 1CAA  
                                    u3160 184A                                      u2520 1FF4  
                                    u1800 19A2                                      u1720 230A  
                                    u2360 067E                                      u2280 0482  
                                    u2440 119A                                      u3080 08D4  
                                    u2601 1CA6                                      u3161 1846  
                                    u2521 1FF0                                      u1801 199E  
                                    u1721 2306                                      u2361 067A  
                                    u2281 047E                                      u2441 1196  
                                    u3081 08D0                                      u1730 11B2  
                                    u2610 1CC0                                      u3170 186C  
                                    u2450 0F44                                      u2530 2010  
                                    u1810 19C0                                      u2370 068E  
                                    u2290 0500                                      u3090 08E8  
                                    u1731 11AE                                      u2611 1CBC  
                                    u3171 1868                                      u2451 0F40  
                                    u2531 200C                                      u1811 19BC  
                                    u2371 068A                                      u2291 04FC  
                                    u3091 08E4                                      u1740 11F8  
                                    u2700 0A22                                      u2620 1CDE  
                                    u3180 1902                                      u2540 163E  
                                    u2460 0F88                                      u1820 19E0  
                                    u1900 0C28                                      u2380 1070  
                                    u1741 11F4                                      u2701 0A1E  
                                    u2621 1CDA                                      u3181 18FE  
                                    u2541 163A                                      u2461 0F84  
                                    u1821 19DC                                      u1901 0C24  
                                    u2381 106C                                      u1750 125C  
                                    u2710 0A32                                      u2630 1D26  
                                    u2550 1658                                      u2470 0F9A  
                                    u1830 172E                                      u1910 0C88  
                                    u2390 107E                                      u1751 1258  
                                    u2711 0A2E                                      u2631 1D22  
                                    u2551 1654                                      u2471 0F96  
                                    u1831 172A                                      u1911 0C84  
                                    u2391 107A                                      u2720 0A62  
                                    u2640 248C                                      u1920 1522  
                                    u2560 1674                                      u2480 0FD4  
                                    u1760 1926                                      u1840 1748  
                                    u2800 23B0                                      u2721 0A5E  
                                    u2641 2488                                      u1921 151E  
                                    u2561 1670                                      u2481 0FD0  
                                    u1761 1922                                      u1841 1744  
                                    u2801 23AC                                      u2730 0A94  
                                    u2650 0996                                      u1930 1536  
                                    u2570 169E                                      u2490 105A  
                                    u1770 1942                                      u1850 175C  
                                    u2810 240C                                      u2731 0A90  
                                    u2651 0992                                      u1931 1532  
                                    u2571 169A                                      u2491 1056  
                                    u1771 193E                                      u1851 1758  
                                    u2811 2408                                      u2740 0AC6  
                                    u2660 09AC                                      u1940 154E  
                                    u2580 16CA                                      u1780 1960  
                                    u1860 176C                                      u2820 241E  
                                    u2900 0756                                      u2741 0AC2  
                                    u2661 09A8                                      u1941 154A  
                                    u2581 16C6                                      u1781 195C  
                                    u1861 1768                                      u2821 241A  
                                    u2901 0752                                      u2750 0AD6  
                                    u2670 09C2                                      u1950 1580  
                                    u2590 1710                                      u1790 1980  
                                    u1870 0B2E                                      u2830 2066  
                                    u2910 076A                                      u2751 0AD2  
                                    u2671 09BE                                      u1951 157C  
                                    u2591 170C                                      u1791 197C  
                                    u1871 0B2A                                      u2831 2062  
                                    u2911 0766                                      u2760 0AE8  
                                    u2680 09D6                                      u1960 15AC  
                                    u1880 0B70                                      u2840 2080  
                                    u2920 0778                                      u2761 0AE4  
                                    u2681 09D2                                      u1881 0B6C  
                                    u2841 207C                                      u2921 0774  
                                    u2690 09EC                                      u1970 15C8  
                                    u1890 0BE2                                      u2770 0E42  
                                    u2850 209A                                      u2930 0796  
                                    u2691 09E8                                      u1971 15C4  
                                    u1891 0BDE                                      u2771 0E3E  
                                    u2851 2096                                      u2931 0792  
                                    u1980 15F4                                      u2860 1BF6  
                                    u2780 0E6E                                      u2940 07A4  
                                    u2861 1BF2                                      u2781 0E6A  
                                    u2941 07A0                                      u1990 1610  
                                    u2870 1C42                                      u2790 0EDC  
                                    u2950 07B8                                      u1991 160C  
                                    u1967 15A2                                      u2871 1C3E  
                                    u2791 0ED8                                      u2951 07B4  
                                    u2880 1C8E                                      u2960 07CC  
                                    u2881 1C8A                                      u2961 07C8  
                                    u2970 07DA                                      u2890 072C  
                                    u1987 15EA                                      u2971 07D6  
                                    u2891 0728                                      u2980 07F2  
                                    u2981 07EE                                      u2990 0800  
                                    u2991 07FC                     ??_USBCtrlTrfTxService 003C  
                                    _UCFG 0F61                                      _UEP0 0F53  
                                    _UEP1 0F54                                      _UEIE 0F5B  
                                    _UEIR 0F5F                                      _UCON 0F64  
                         _CDCDataInHandle 0018    USBStdFeatureReqHandler@current_ep_data 0056  
                                    _pDst 001C                                      _main 23B6  
                                    fsr0h 0FEA                                      fsr1h 0FE2  
                                    indf0 0FEF                                      fsr2h 0FDA  
                                    fsr0l 0FE9                                      indf1 0FE7  
                             _BaudRateGen 0070                                      indf2 0FDF  
                                    fsr1l 0FE1                                      fsr2l 0FD9  
                                    btemp 005D                                      prodh 0FF4  
                                    prodl 0FF3                                      start 000E  
              __end_of_USBCheckStdRequest 1508                    ??_USBCtrlTrfOutHandler 003E  
                            ___param_bank 0000                 ??_USBStdFeatureReqHandler 0052  
                ??_USBStdGetStatusHandler 003C                            ?_USBDeviceInit 003C  
                             _writeBuffer 0180                                     ?_main 003C  
                           _USB_In_Buffer 0140                                     _ANSEL 0F7E  
                  __end_of_USBDeviceTasks 0984                 ?_USBCtrlEPServiceComplete 003C  
                                   i2l227 000A                                     _UADDR 0F5C  
                                   _PORTA 0F80                                     _PORTB 0F81  
                                   _PORTC 0F82                                     _TRISA 0F92  
                                   _TRISB 0F93                                     _TRISC 0F94  
                                   _USTAT 0F63                            ?_BUTTON_Enable 003C  
         __end_of_USBCtrlEPAllowDataStage 1F54                                     _sd000 03C6  
                                   _sd001 0380                                     _sd002 034C  
          ?_USBIncrement1msInternalTimers 003C                                     tablat 0FF5  
                                   plusw2 0FDB                         __end_of_CDCInitEP 217C  
                                   ttemp5 005E                                     ttemp6 0061  
                                   ttemp7 0065                                     status 0FD8  
                                   wtemp8 005E                           putUSBUSART@data 003C  
                         __initialization 2240                              __end_of_main 23EE  
                   _control_signal_bitmap 0024                                    ??_main 005D  
                           __activetblptr 0002                           ?_USBDeviceTasks 003C  
                             ?_USBSuspend 003C                                 ??_LED_Off 003C  
                            _cdc_mem_type 0025                          _CDCDataOutHandle 001A  
                                  _ANSELH 0F7F                           getsUSBUSART@len 0049  
                  SYSTEM_Initialize@state 0041                                    _LED_On 217C  
                                  _OSCCON 0FD3                             CDCTxService@i 0047  
                       _shortPacketStatus 0034                           USBDeviceTasks@i 005C  
             USBStdFeatureReqHandler@pUEP 0054                  USBTransferOnePacket@data 003D  
              USBCtrlTrfInHandler@lastDTS 003D                           ??_USBDeviceInit 0048  
                            ?_putUSBUSART 003C                      __end_of_getsUSBUSART 1D48  
                       _USBEnableEndpoint 22E2                                    _memcpy 2292  
                                  _memset 0B14                                    clear_0 2266  
                                  clear_1 2272                                    clear_2 227E  
                                  isa$std 0001                                _ProcessUSB 1818  
                      ?_USBEnableEndpoint 0046                           ??_BUTTON_Enable 003C  
                            _CDCTxService 0984                              __mediumconst 0000  
                                  tblptrh 0FF7                                    tblptrl 0FF6  
                                  tblptru 0FF8                       ??_USBEnableEndpoint 0047  
                             _CtrlTrfData 0238                      _controlTransferState 0033  
                       _SYSTEM_Initialize 232E                                __accesstop 0060  
                 __end_of__initialization 2284                        ?_SYSTEM_Initialize 003C  
                           ___rparam_used 0001                            __pcstackCOMRAM 003C  
               __end_of_USBEnableEndpoint 232E                             __end_of_sd000 03CA  
                           __end_of_sd001 03B4                             __end_of_sd002 0380  
                            __pidataBANK0 24C6                       ??_SYSTEM_Initialize 003F  
                               LED_On@led 003E                              ??_LED_Enable 003C  
             __end_of_USBCtrlTrfInHandler 1718                   ?_APP_LEDUpdateUSBStatus 003C  
                              _cdc_notice 0060                                _cdc_rx_len 0027  
                              _cdc_tx_len 0026                             _buttonMessage 00D0  
                ??_USBCtrlTrfSetupHandler 005B                   _USBTicksSinceSuspendEnd 0028  
                          _USB_Out_Buffer 0100                 __end_of_SYSTEM_Initialize 2378  
                  _USBStdGetStatusHandler 12DE                             _buttonPressed 0035  
                              __pbssBANK0 0060                                __pbssBANK1 0100  
                                 ?_LED_On 003C  __end_of_APP_DeviceCDCBasicDemoInitialize 24C6  
      ??_APP_DeviceCDCBasicDemoInitialize 003C         ?_APP_DeviceCDCBasicDemoInitialize 003C  
        _APP_DeviceCDCBasicDemoInitialize 24A2                        __end_of_LED_Enable 211A  
                             _pBDTEntryIn 000F          __end_of_USBCtrlEPServiceComplete 11A0  
                    USBCtrlTrfRxService@i 003C                             LED_Enable@led 003E  
          __end_of_APP_LEDUpdateUSBStatus 1A0C                                   ?_memcpy 003C  
                                 ?_memset 003C                                _device_dsc 03B4  
                        _USBCtrlEPService 1BDC                               ?_ProcessUSB 003C  
                              _ep_data_in 0015               __end_of_USBCtrlTrfRxService 1060  
                      _USBCheckStdRequest 13F4                         _configDescriptor1 0309  
                                 _LED_Off 21DE               __end_of_USBCtrlTrfTxService 1612  
                     _USBStdSetCfgHandler 1AFA                       ?_USBCheckStdRequest 003C  
                                 _UIEbits 0F60                                   _UIRbits 0F62  
                           _cdc_trf_state 0036            APP_LEDUpdateUSBStatus@ledCount 0022  
                                 _pCDCDst 0078                                   _pCDCSrc 007B  
                                 __Hparam 0000           ??_USBIncrement1msInternalTimers 003C  
                    ?_USBStdSetCfgHandler 003C                                 _CDCInitEP 211A  
                                 __Lparam 0000                                _readBuffer 0081  
                    ??_USBCheckStdRequest 0059                          ??_USBDeviceTasks 005C  
                       ??_USBStallHandler 003C                              __psmallconst 0300  
                                 __pcinit 2240                        getsUSBUSART@buffer 0047  
               __end_of_configDescriptor1 034C                                   __ramtop 0300  
                                 __ptext0 23B6                                   __ptext1 071C  
                                 __ptext2 2378                                   __ptext3 2450  
                                 __ptext4 2056                                   __ptext5 23EE  
                                 __ptext6 0DDA                                   __ptext7 1BDC  
                                 __ptext8 2292                                   __ptext9 1F54  
                                 _inPipes 0009               _USBDeferOUTDataStagePackets 0029  
                            ??_USBSuspend 0052                               ProcessUSB@i 004E  
                      __end_of_USB_CD_Ptr 0309                      end_of_initialization 2284  
                            _getsUSBUSART 1C94                        __end_of_USB_SD_Ptr 0307  
                                 memcpy@d 0042                                   memcpy@n 0040  
                                 memcpy@s 0044                       _pBDTEntryEP0OutNext 001E  
                                 memset@c 003E                                   memset@k 0044  
                                 memset@n 0040                                   memset@s 0046  
                           __Lmediumconst 0000                           _USB1msTickCount 0074  
         _dummy_encapsulated_cmd_response 00C1                  ?_USBStdFeatureReqHandler 003C  
                   ??_USBStdSetCfgHandler 0052                                ?_CDCInitEP 003C  
                      __end_of_USBSuspend 247C                   _USBCtrlEPAllowDataStage 1EA8  
                                 postdec1 0FE5                                   postdec2 0FDD  
                                 postinc0 0FEE                                   postinc2 0FDE  
                _USBCtrlEPServiceComplete 1060                _USBStatusStageEnabledFlag1 002C  
              _USBStatusStageEnabledFlag2 002B                        USBEnableEndpoint@p 0047  
                               _PORTAbits 0F80                                 _TRISCbits 0F94  
                      _BothEP0OutUOWNsSet 002F                 USBConfigureEndpoint@EPNum 0043  
              ?_USBCtrlEPAllowStatusStage 003C       USER_USB_CALLBACK_EVENT_HANDLER@size 004E  
                               _USTATcopy 003A              __end_of_USBTransferOnePacket 12DE  
                          __end_of_LED_On 21DE                         putUSBUSART@length 003E  
                  _USBCtrlTrfSetupHandler 1F54                     __end_of_USBDeviceInit 0F1E  
   __end_of_USBIncrement1msInternalTimers 2422             _USBIncrement1msInternalTimers 23EE  
                              LED_Off@led 003E                            __end_of_memcpy 22E2  
                          __end_of_memset 0C8A                         _USBBusIsSuspended 0031  
                     start_initialization 2240                   ?_USBStdGetStatusHandler 003C  
                   __end_of_BUTTON_Enable 2450             USBCtrlTrfRxService@byteToRead 003D  
                             _cdc_data_rx 0280                               _cdc_data_tx 0240  
            __end_of_USBConfigureEndpoint 1EA8           __end_of_USBStdFeatureReqHandler 071C  
                                ??_LED_On 003C         __end_of_USBCtrlEPAllowStatusStage 1AFA  
                __end_of_USBCtrlEPService 1C94                 ??_USBCtrlEPAllowDataStage 003D  
                             ??_CDCInitEP 004A                            USBDeviceInit@i 0048  
                  _pBDTEntryEP0OutCurrent 0020                   USBTransferOnePacket@dir 003C  
                 USBTransferOnePacket@len 003F                       _USBStdGetDscHandler 0C8A  
                             __pdataBANK0 00D0                                  ??_memcpy 0042  
                                ??_memset 0042                              ??_ProcessUSB 004B  
                              memset@dest 003C                    _USBActiveConfiguration 003B  
          __end_of_USBStdGetStatusHandler 13F4                                  ?_LED_Off 003C  
                             __pbssCOMRAM 0001                      ?_USBStdGetDscHandler 003C  
              __end_of_USBWakeFromSuspend 23B6                    ProcessUSB@numBytesRead 004D  
                         _USBStallHandler 2056                              _pBDTEntryOut 006A  
              __end_of_USBCheckCDCRequest 1818                        __end_of_ProcessUSB 1918  
                               __pintcode 0008                      _USBTransferOnePacket 11A0  
                             __smallconst 0300              __end_of_USBCtrlTrfOutHandler 2056  
                   ??_USBStdGetDscHandler 003C                               _ep_data_out 007E  
           USBConfigureEndpoint@direction 003C                                  _LATCbits 0F8B  
              ??_USBCtrlEPServiceComplete 003D                                  _PIE2bits 0FA0  
                                _PIR2bits 0FA1                             ??_putUSBUSART 003F  
                                _UEP0bits 0F53                _USBDeferINDataStagePackets 002A  
                                _UCONbits 0F64                      _USBConfigureEndpoint 1DF8  
                   ?_USBTransferOnePacket 003C                         _SYS_InterruptHigh 0008  
                           ?_CDCTxService 003C                              _RemoteWakeup 0032  
                      ?_SYS_InterruptHigh 003C                   __end_of_USBStallHandler 20B8  
                               copy_data0 2254               ??_USBCtrlEPAllowStatusStage 003C  
             __end_of_USBStdSetCfgHandler 1BDC                       ??_SYS_InterruptHigh 003C  
                      __end_of_device_dsc 03C6                  ??_APP_LEDUpdateUSBStatus 003F  
                 ?_USBCtrlTrfSetupHandler 003C                   USBStdGetStatusHandler@p 003E  
                                __Hrparam 0000                                 memcpy@tmp 0046  
                                __Lrparam 0000                    USBTransferOnePacket@ep 0044  
                                _SetupPkt 0230                     ?_USBConfigureEndpoint 003C  
               __end_of_SYS_InterruptHigh 000E                       __end_of_putUSBUSART 24A2  
                             _line_coding 00C9                            ??_CDCTxService 0047  
                                __ptext10 1060                                  __ptext11 1EA8  
                                __ptext20 232E                                  __ptext12 13F4  
                                __ptext21 20B8                                  __ptext13 1AFA  
                                __ptext30 1FE2                                  __ptext22 2422  
                                __ptext14 0B14                                  __ptext31 0F1E  
                                __ptext23 211A                                  __ptext15 12DE  
                                __ptext32 1A0C                                  __ptext24 22E2  
                                __ptext16 0C8A                                  __ptext33 1612  
                                __ptext25 1DF8                                  __ptext17 03CC  
                                __ptext34 1508                                  __ptext26 1918  
                                __ptext18 1D48                                  __ptext35 1818  
                                __ptext27 217C                                  __ptext19 1718  
                                __ptext36 247C                                  __ptext28 21DE  
                                __ptext37 1C94                                  __ptext29 24A2  
                                __ptext38 0984                                  __ptext39 11A0  
          __end_of_USBCtrlTrfSetupHandler 1FE2                         ?_USBCtrlEPService 003C  
                      ??_USBCtrlEPService 005B                       _USBCtrlTrfInHandler 1612  
                                isa$xinst 0000                       BUTTON_Enable@button 003E  
                                _outPipes 0001                      _USBCtrlTrfOutHandler 1FE2  
                                int$flags 005D                 _USBCtrlEPAllowStatusStage 1A0C  
                              _LED_Enable 20B8                    ??_USBTransferOnePacket 0040  
               _USBDeferStatusStagePacket 002D                  CDCTxService@byte_to_send 0048  
                    ?_USBCtrlTrfInHandler 003C                                  memcpy@d1 003C  
                                memcpy@s1 003E             USBCtrlTrfTxService@byteToSend 003C  
                        ?_USBStallHandler 003C                  USBStdFeatureReqHandler@p 0057  
                                intlevel2 0000   __end_of_USER_USB_CALLBACK_EVENT_HANDLER 1DF8  
       ??_USER_USB_CALLBACK_EVENT_HANDLER 0050          ?_USER_USB_CALLBACK_EVENT_HANDLER 004A  
         _USER_USB_CALLBACK_EVENT_HANDLER 1D48                    ??_USBConfigureEndpoint 003D  
                   ?_USBCtrlTrfOutHandler 003C                               _putUSBUSART 247C  
                     _USBCtrlTrfRxService 0F1E                        _USBWakeFromSuspend 2378  
                 _USBStdFeatureReqHandler 03CC                        _USBCheckCDCRequest 1718  
                     _USBCtrlTrfTxService 1508                       ?_USBWakeFromSuspend 003C  
                   ??_USBCtrlTrfInHandler 003D                     _USBAlternateInterface 0038  
                     ?_USBCheckCDCRequest 003C                       USBEnableEndpoint@ep 0049  
                         _endpoint_number 0030                      ?_USBCtrlTrfRxService 003C  
                           ?_getsUSBUSART 0047                  ?_USBCtrlEPAllowDataStage 003C  
                    ?_USBCtrlTrfTxService 003C              _USBStatusStageTimeoutCounter 002E  
                    ??_USBWakeFromSuspend 0052                USBTransferOnePacket@handle 0045  
                    __end_of_CDCTxService 0B14                      ??_USBCheckCDCRequest 003C  
                              _USB_CD_Ptr 0307  
